(lp0
(lp1
ccopy_reg
_reconstructor
p2
(cBlock_Module
Block
p3
c__builtin__
object
p4
Ntp5
Rp6
(dp7
S'walkable'
p8
I01
sS'drop'
p9
NsS'graphic'
p10
S'grass.png'
p11
sS'name'
p12
S'grass'
p13
sS'destructible'
p14
I00
sbag2
(g3
g4
Ntp15
Rp16
(dp17
g8
I01
sg9
Nsg10
g11
sg12
g13
sg14
I00
sbag2
(g3
g4
Ntp18
Rp19
(dp20
g8
I01
sg9
Nsg10
g11
sg12
g13
sg14
I00
sbag2
(g3
g4
Ntp21
Rp22
(dp23
g8
I01
sg9
Nsg10
g11
sg12
g13
sg14
I00
sbag2
(g3
g4
Ntp24
Rp25
(dp26
g8
I01
sg9
Nsg10
g11
sg12
g13
sg14
I00
sbag2
(g3
g4
Ntp27
Rp28
(dp29
g8
I01
sg9
Nsg10
g11
sg12
g13
sg14
I00
sbag2
(g3
g4
Ntp30
Rp31
(dp32
g8
I00
sg9
cBlock_Module
Wood
p33
sg10
S'tree.png'
p34
sg12
S'tree'
p35
sg14
I01
sbag2
(g3
g4
Ntp36
Rp37
(dp38
g8
I01
sg9
Nsg10
g11
sg12
g13
sg14
I00
sbag2
(g3
g4
Ntp39
Rp40
(dp41
g8
I01
sg9
Nsg10
g11
sg12
g13
sg14
I00
sbag2
(g3
g4
Ntp42
Rp43
(dp44
g8
I01
sg9
Nsg10
g11
sg12
g13
sg14
I00
sbag2
(g3
g4
Ntp45
Rp46
(dp47
g8
I00
sg9
g33
sg10
g34
sg12
g35
sg14
I01
sbag2
(g3
g4
Ntp48
Rp49
(dp50
g8
I00
sg9
Nsg10
S'water.png'
p51
sg12
S'blank'
p52
sg14
I00
sbaa(lp53
g2
(g3
g4
Ntp54
Rp55
(dp56
g8
I01
sg9
Nsg10
g11
sg12
g13
sg14
I00
sbag2
(g3
g4
Ntp57
Rp58
(dp59
g8
I00
sg9
g33
sg10
g34
sg12
g35
sg14
I01
sbag2
(g3
g4
Ntp60
Rp61
(dp62
g8
I01
sg9
Nsg10
g11
sg12
g13
sg14
I00
sbag2
(g3
g4
Ntp63
Rp64
(dp65
g8
I01
sg9
Nsg10
g11
sg12
g13
sg14
I00
sbag2
(g3
g4
Ntp66
Rp67
(dp68
g8
I01
sg9
Nsg10
g11
sg12
g13
sg14
I00
sbag2
(g3
g4
Ntp69
Rp70
(dp71
g8
I01
sg9
Nsg10
g11
sg12
g13
sg14
I00
sbag2
(g3
g4
Ntp72
Rp73
(dp74
g8
I01
sg9
Nsg10
g11
sg12
g13
sg14
I00
sbag2
(g3
g4
Ntp75
Rp76
(dp77
g8
I01
sg9
Nsg10
g11
sg12
g13
sg14
I00
sbag2
(g3
g4
Ntp78
Rp79
(dp80
g8
I00
sg9
g33
sg10
g34
sg12
g35
sg14
I01
sbag2
(g3
g4
Ntp81
Rp82
(dp83
g8
I01
sg9
Nsg10
g11
sg12
g13
sg14
I00
sbag2
(g3
g4
Ntp84
Rp85
(dp86
g8
I01
sg9
Nsg10
g11
sg12
g13
sg14
I00
sbag2
(g3
g4
Ntp87
Rp88
(dp89
g8
I00
sg9
Nsg10
g51
sg12
g52
sg14
I00
sbaa(lp90
g2
(g3
g4
Ntp91
Rp92
(dp93
g8
I01
sg9
Nsg10
g11
sg12
g13
sg14
I00
sbag2
(g3
g4
Ntp94
Rp95
(dp96
g8
I01
sg9
Nsg10
g11
sg12
g13
sg14
I00
sbag2
(g3
g4
Ntp97
Rp98
(dp99
g8
I01
sg9
Nsg10
g11
sg12
g13
sg14
I00
sbag2
(g3
g4
Ntp100
Rp101
(dp102
g8
I00
sg9
g33
sg10
g34
sg12
g35
sg14
I01
sbag2
(g3
g4
Ntp103
Rp104
(dp105
g8
I01
sg9
Nsg10
g11
sg12
g13
sg14
I00
sbag2
(g3
g4
Ntp106
Rp107
(dp108
g8
I01
sg9
Nsg10
g11
sg12
g13
sg14
I00
sbag2
(g3
g4
Ntp109
Rp110
(dp111
g8
I00
sg9
g33
sg10
g34
sg12
g35
sg14
I01
sbag2
(g3
g4
Ntp112
Rp113
(dp114
g8
I01
sg9
Nsg10
g11
sg12
g13
sg14
I00
sbag2
(g3
g4
Ntp115
Rp116
(dp117
g8
I01
sg9
Nsg10
g11
sg12
g13
sg14
I00
sbag2
(g3
g4
Ntp118
Rp119
(dp120
g8
I01
sg9
Nsg10
g11
sg12
g13
sg14
I00
sbag2
(g3
g4
Ntp121
Rp122
(dp123
g8
I01
sg9
Nsg10
g11
sg12
g13
sg14
I00
sbag2
(g3
g4
Ntp124
Rp125
(dp126
g8
I00
sg9
Nsg10
g51
sg12
g52
sg14
I00
sbaa(lp127
g2
(g3
g4
Ntp128
Rp129
(dp130
g8
I01
sg9
Nsg10
g11
sg12
g13
sg14
I00
sbag2
(g3
g4
Ntp131
Rp132
(dp133
g8
I00
sg9
g33
sg10
g34
sg12
g35
sg14
I01
sbag2
(g3
g4
Ntp134
Rp135
(dp136
g8
I01
sg9
Nsg10
g11
sg12
g13
sg14
I00
sbag2
(g3
g4
Ntp137
Rp138
(dp139
g8
I01
sg9
Nsg10
g11
sg12
g13
sg14
I00
sbag2
(g3
g4
Ntp140
Rp141
(dp142
g8
I01
sg9
Nsg10
g11
sg12
g13
sg14
I00
sbag2
(g3
g4
Ntp143
Rp144
(dp145
g8
I01
sg9
Nsg10
g11
sg12
g13
sg14
I00
sbag2
(g3
g4
Ntp146
Rp147
(dp148
g8
I01
sg9
Nsg10
g11
sg12
g13
sg14
I00
sbag2
(g3
g4
Ntp149
Rp150
(dp151
g8
I01
sg9
Nsg10
g11
sg12
g13
sg14
I00
sbag2
(g3
g4
Ntp152
Rp153
(dp154
g8
I01
sg9
Nsg10
g11
sg12
g13
sg14
I00
sbag2
(g3
g4
Ntp155
Rp156
(dp157
g8
I01
sg9
Nsg10
g11
sg12
g13
sg14
I00
sbag2
(g3
g4
Ntp158
Rp159
(dp160
g8
I01
sg9
Nsg10
g11
sg12
g13
sg14
I00
sbag2
(g3
g4
Ntp161
Rp162
(dp163
g8
I00
sg9
Nsg10
g51
sg12
g52
sg14
I00
sbaa(lp164
g2
(g3
g4
Ntp165
Rp166
(dp167
g8
I01
sg9
Nsg10
g11
sg12
g13
sg14
I00
sbag2
(g3
g4
Ntp168
Rp169
(dp170
g8
I01
sg9
Nsg10
g11
sg12
g13
sg14
I00
sbag2
(g3
g4
Ntp171
Rp172
(dp173
g8
I01
sg9
Nsg10
g11
sg12
g13
sg14
I00
sbag2
(g3
g4
Ntp174
Rp175
(dp176
g8
I01
sg9
Nsg10
g11
sg12
g13
sg14
I00
sbag2
(g3
g4
Ntp177
Rp178
(dp179
g8
I00
sg9
g33
sg10
g34
sg12
g35
sg14
I01
sbag2
(g3
g4
Ntp180
Rp181
(dp182
g8
I01
sg9
Nsg10
g11
sg12
g13
sg14
I00
sbag2
(g3
g4
Ntp183
Rp184
(dp185
g8
I00
sg9
g33
sg10
g34
sg12
g35
sg14
I01
sbag2
(g3
g4
Ntp186
Rp187
(dp188
g8
I01
sg9
Nsg10
g11
sg12
g13
sg14
I00
sbag2
(g3
g4
Ntp189
Rp190
(dp191
g8
I01
sg9
Nsg10
g11
sg12
g13
sg14
I00
sbag2
(g3
g4
Ntp192
Rp193
(dp194
g8
I00
sg9
g33
sg10
g34
sg12
g35
sg14
I01
sbag2
(g3
g4
Ntp195
Rp196
(dp197
g8
I01
sg9
Nsg10
g11
sg12
g13
sg14
I00
sbag2
(g3
g4
Ntp198
Rp199
(dp200
g8
I00
sg9
Nsg10
g51
sg12
g52
sg14
I00
sbaa(lp201
g2
(g3
g4
Ntp202
Rp203
(dp204
g8
I00
sg9
g33
sg10
g34
sg12
g35
sg14
I01
sbag2
(g3
g4
Ntp205
Rp206
(dp207
g8
I01
sg9
Nsg10
g11
sg12
g13
sg14
I00
sbag2
(g3
g4
Ntp208
Rp209
(dp210
g8
I01
sg9
Nsg10
g11
sg12
g13
sg14
I00
sbag2
(g3
g4
Ntp211
Rp212
(dp213
g8
I01
sg9
Nsg10
g11
sg12
g13
sg14
I00
sbag2
(g3
g4
Ntp214
Rp215
(dp216
g8
I01
sg9
Nsg10
g11
sg12
g13
sg14
I00
sbag2
(g3
g4
Ntp217
Rp218
(dp219
g8
I01
sg9
Nsg10
g11
sg12
g13
sg14
I00
sbag2
(g3
g4
Ntp220
Rp221
(dp222
g8
I01
sg9
Nsg10
g11
sg12
g13
sg14
I00
sbag2
(g3
g4
Ntp223
Rp224
(dp225
g8
I01
sg9
Nsg10
g11
sg12
g13
sg14
I00
sbag2
(g3
g4
Ntp226
Rp227
(dp228
g8
I01
sg9
Nsg10
g11
sg12
g13
sg14
I00
sbag2
(g3
g4
Ntp229
Rp230
(dp231
g8
I01
sg9
Nsg10
g11
sg12
g13
sg14
I00
sbag2
(g3
g4
Ntp232
Rp233
(dp234
g8
I01
sg9
Nsg10
g11
sg12
g13
sg14
I00
sbag2
(g3
g4
Ntp235
Rp236
(dp237
g8
I00
sg9
Nsg10
g51
sg12
g52
sg14
I00
sbaa(lp238
g2
(g3
g4
Ntp239
Rp240
(dp241
g8
I01
sg9
Nsg10
g11
sg12
g13
sg14
I00
sbag2
(g3
g4
Ntp242
Rp243
(dp244
g8
I01
sg9
Nsg10
g11
sg12
g13
sg14
I00
sbag2
(g3
g4
Ntp245
Rp246
(dp247
g8
I01
sg9
Nsg10
g11
sg12
g13
sg14
I00
sbag2
(g3
g4
Ntp248
Rp249
(dp250
g8
I00
sg9
g33
sg10
g34
sg12
g35
sg14
I01
sbag2
(g3
g4
Ntp251
Rp252
(dp253
g8
I01
sg9
Nsg10
g11
sg12
g13
sg14
I00
sbag2
(g3
g4
Ntp254
Rp255
(dp256
g8
I01
sg9
Nsg10
g11
sg12
g13
sg14
I00
sbag2
(g3
g4
Ntp257
Rp258
(dp259
g8
I01
sg9
Nsg10
g11
sg12
g13
sg14
I00
sbag2
(g3
g4
Ntp260
Rp261
(dp262
g8
I01
sg9
Nsg10
g11
sg12
g13
sg14
I00
sbag2
(g3
g4
Ntp263
Rp264
(dp265
g8
I00
sg9
g33
sg10
g34
sg12
g35
sg14
I01
sbag2
(g3
g4
Ntp266
Rp267
(dp268
g8
I01
sg9
Nsg10
g11
sg12
g13
sg14
I00
sbag2
(g3
g4
Ntp269
Rp270
(dp271
g8
I01
sg9
Nsg10
g11
sg12
g13
sg14
I00
sbag2
(g3
g4
Ntp272
Rp273
(dp274
g8
I00
sg9
Nsg10
g51
sg12
g52
sg14
I00
sbaa(lp275
g2
(g3
g4
Ntp276
Rp277
(dp278
g8
I01
sg9
Nsg10
g11
sg12
g13
sg14
I00
sbag2
(g3
g4
Ntp279
Rp280
(dp281
g8
I01
sg9
Nsg10
g11
sg12
g13
sg14
I00
sbag2
(g3
g4
Ntp282
Rp283
(dp284
g8
I01
sg9
Nsg10
g11
sg12
g13
sg14
I00
sbag2
(g3
g4
Ntp285
Rp286
(dp287
g8
I01
sg9
Nsg10
g11
sg12
g13
sg14
I00
sbag2
(g3
g4
Ntp288
Rp289
(dp290
g8
I01
sg9
Nsg10
g11
sg12
g13
sg14
I00
sbag2
(g3
g4
Ntp291
Rp292
(dp293
g8
I00
sg9
g33
sg10
g34
sg12
g35
sg14
I01
sbag2
(g3
g4
Ntp294
Rp295
(dp296
g8
I01
sg9
Nsg10
g11
sg12
g13
sg14
I00
sbag2
(g3
g4
Ntp297
Rp298
(dp299
g8
I01
sg9
Nsg10
g11
sg12
g13
sg14
I00
sbag2
(g3
g4
Ntp300
Rp301
(dp302
g8
I01
sg9
Nsg10
g11
sg12
g13
sg14
I00
sbag2
(g3
g4
Ntp303
Rp304
(dp305
g8
I01
sg9
Nsg10
g11
sg12
g13
sg14
I00
sbag2
(g3
g4
Ntp306
Rp307
(dp308
g8
I01
sg9
Nsg10
g11
sg12
g13
sg14
I00
sbag2
(g3
g4
Ntp309
Rp310
(dp311
g8
I00
sg9
Nsg10
g51
sg12
g52
sg14
I00
sbaa(lp312
g2
(g3
g4
Ntp313
Rp314
(dp315
g8
I01
sg9
Nsg10
g11
sg12
g13
sg14
I00
sbag2
(g3
g4
Ntp316
Rp317
(dp318
g8
I00
sg9
g33
sg10
g34
sg12
g35
sg14
I01
sbag2
(g3
g4
Ntp319
Rp320
(dp321
g8
I01
sg9
Nsg10
g11
sg12
g13
sg14
I00
sbag2
(g3
g4
Ntp322
Rp323
(dp324
g8
I01
sg9
Nsg10
g11
sg12
g13
sg14
I00
sbag2
(g3
g4
Ntp325
Rp326
(dp327
g8
I01
sg9
Nsg10
g11
sg12
g13
sg14
I00
sbag2
(g3
g4
Ntp328
Rp329
(dp330
g8
I01
sg9
Nsg10
g11
sg12
g13
sg14
I00
sbag2
(g3
g4
Ntp331
Rp332
(dp333
g8
I01
sg9
Nsg10
g11
sg12
g13
sg14
I00
sbag2
(g3
g4
Ntp334
Rp335
(dp336
g8
I00
sg9
g33
sg10
g34
sg12
g35
sg14
I01
sbag2
(g3
g4
Ntp337
Rp338
(dp339
g8
I01
sg9
Nsg10
g11
sg12
g13
sg14
I00
sbag2
(g3
g4
Ntp340
Rp341
(dp342
g8
I00
sg9
g33
sg10
g34
sg12
g35
sg14
I01
sbag2
(g3
g4
Ntp343
Rp344
(dp345
g8
I01
sg9
Nsg10
g11
sg12
g13
sg14
I00
sbag2
(g3
g4
Ntp346
Rp347
(dp348
g8
I00
sg9
Nsg10
g51
sg12
g52
sg14
I00
sbaa(lp349
g2
(g3
g4
Ntp350
Rp351
(dp352
g8
I01
sg9
Nsg10
g11
sg12
g13
sg14
I00
sbag2
(g3
g4
Ntp353
Rp354
(dp355
g8
I01
sg9
Nsg10
g11
sg12
g13
sg14
I00
sbag2
(g3
g4
Ntp356
Rp357
(dp358
g8
I01
sg9
Nsg10
g11
sg12
g13
sg14
I00
sbag2
(g3
g4
Ntp359
Rp360
(dp361
g8
I01
sg9
Nsg10
g11
sg12
g13
sg14
I00
sbag2
(g3
g4
Ntp362
Rp363
(dp364
g8
I00
sg9
g33
sg10
g34
sg12
g35
sg14
I01
sbag2
(g3
g4
Ntp365
Rp366
(dp367
g8
I01
sg9
Nsg10
g11
sg12
g13
sg14
I00
sbag2
(g3
g4
Ntp368
Rp369
(dp370
g8
I01
sg9
Nsg10
g11
sg12
g13
sg14
I00
sbag2
(g3
g4
Ntp371
Rp372
(dp373
g8
I01
sg9
Nsg10
g11
sg12
g13
sg14
I00
sbag2
(g3
g4
Ntp374
Rp375
(dp376
g8
I01
sg9
Nsg10
g11
sg12
g13
sg14
I00
sbag2
(g3
g4
Ntp377
Rp378
(dp379
g8
I01
sg9
Nsg10
g11
sg12
g13
sg14
I00
sbag2
(g3
g4
Ntp380
Rp381
(dp382
g8
I01
sg9
Nsg10
g11
sg12
g13
sg14
I00
sbag2
(g3
g4
Ntp383
Rp384
(dp385
g8
I00
sg9
Nsg10
g51
sg12
g52
sg14
I00
sbaa(lp386
g2
(g3
g4
Ntp387
Rp388
(dp389
g8
I00
sg9
g33
sg10
g34
sg12
g35
sg14
I01
sbag2
(g3
g4
Ntp390
Rp391
(dp392
g8
I01
sg9
Nsg10
g11
sg12
g13
sg14
I00
sbag2
(g3
g4
Ntp393
Rp394
(dp395
g8
I00
sg9
g33
sg10
g34
sg12
g35
sg14
I01
sbag2
(g3
g4
Ntp396
Rp397
(dp398
g8
I01
sg9
Nsg10
g11
sg12
g13
sg14
I00
sbag2
(g3
g4
Ntp399
Rp400
(dp401
g8
I01
sg9
Nsg10
g11
sg12
g13
sg14
I00
sbag2
(g3
g4
Ntp402
Rp403
(dp404
g8
I01
sg9
Nsg10
g11
sg12
g13
sg14
I00
sbag2
(g3
g4
Ntp405
Rp406
(dp407
g8
I01
sg9
Nsg10
g11
sg12
g13
sg14
I00
sbag2
(g3
g4
Ntp408
Rp409
(dp410
g8
I01
sg9
Nsg10
g11
sg12
g13
sg14
I00
sbag2
(g3
g4
Ntp411
Rp412
(dp413
g8
I00
sg9
g33
sg10
g34
sg12
g35
sg14
I01
sbag2
(g3
g4
Ntp414
Rp415
(dp416
g8
I01
sg9
Nsg10
g11
sg12
g13
sg14
I00
sbag2
(g3
g4
Ntp417
Rp418
(dp419
g8
I00
sg9
g33
sg10
g34
sg12
g35
sg14
I01
sbag2
(g3
g4
Ntp420
Rp421
(dp422
g8
I00
sg9
Nsg10
g51
sg12
g52
sg14
I00
sbaa(lp423
g2
(g3
g4
Ntp424
Rp425
(dp426
g8
I00
sg9
Nsg10
g51
sg12
g52
sg14
I00
sbag2
(g3
g4
Ntp427
Rp428
(dp429
g8
I00
sg9
Nsg10
g51
sg12
g52
sg14
I00
sbag2
(g3
g4
Ntp430
Rp431
(dp432
g8
I00
sg9
Nsg10
g51
sg12
g52
sg14
I00
sbag2
(g3
g4
Ntp433
Rp434
(dp435
g8
I00
sg9
Nsg10
g51
sg12
g52
sg14
I00
sbag2
(g3
g4
Ntp436
Rp437
(dp438
g8
I00
sg9
Nsg10
g51
sg12
g52
sg14
I00
sbag2
(g3
g4
Ntp439
Rp440
(dp441
g8
I00
sg9
Nsg10
g51
sg12
g52
sg14
I00
sbag2
(g3
g4
Ntp442
Rp443
(dp444
g8
I00
sg9
Nsg10
g51
sg12
g52
sg14
I00
sbag2
(g3
g4
Ntp445
Rp446
(dp447
g8
I00
sg9
Nsg10
g51
sg12
g52
sg14
I00
sbag2
(g3
g4
Ntp448
Rp449
(dp450
g8
I00
sg9
Nsg10
g51
sg12
g52
sg14
I00
sbag2
(g3
g4
Ntp451
Rp452
(dp453
g8
I00
sg9
Nsg10
g51
sg12
g52
sg14
I00
sbag2
(g3
g4
Ntp454
Rp455
(dp456
g8
I00
sg9
Nsg10
g51
sg12
g52
sg14
I00
sbag2
(g3
g4
Ntp457
Rp458
(dp459
g8
I00
sg9
Nsg10
g51
sg12
g52
sg14
I00
sbaa.