(lp0
(lp1
ccopy_reg
_reconstructor
p2
(cBlock_Module
Block
p3
c__builtin__
object
p4
Ntp5
Rp6
(dp7
S'walkable'
p8
I00
sS'drop'
p9
cBlock_Module
Wood
p10
sS'graphic'
p11
S'tree.png'
p12
sS'name'
p13
S'tree'
p14
sS'destructible'
p15
I01
sbag2
(g3
g4
Ntp16
Rp17
(dp18
g8
I01
sg9
cBlock_Module
Grass
p19
sg11
S'grass.png'
p20
sg13
S'grass'
p21
sg15
I01
sbag2
(g3
g4
Ntp22
Rp23
(dp24
g8
I01
sg9
g19
sg11
g20
sg13
g21
sg15
I01
sbag2
(g3
g4
Ntp25
Rp26
(dp27
g8
I01
sg9
g19
sg11
g20
sg13
g21
sg15
I01
sbag2
(g3
g4
Ntp28
Rp29
(dp30
g8
I01
sg9
g19
sg11
g20
sg13
g21
sg15
I01
sbag2
(g3
g4
Ntp31
Rp32
(dp33
g8
I01
sg9
g19
sg11
g20
sg13
g21
sg15
I01
sbag2
(g3
g4
Ntp34
Rp35
(dp36
g8
I01
sg9
g19
sg11
g20
sg13
g21
sg15
I01
sbag2
(g3
g4
Ntp37
Rp38
(dp39
g8
I01
sg9
g19
sg11
g20
sg13
g21
sg15
I01
sbag2
(g3
g4
Ntp40
Rp41
(dp42
g8
I01
sg9
g19
sg11
g20
sg13
g21
sg15
I01
sbag2
(g3
g4
Ntp43
Rp44
(dp45
g8
I01
sg9
g19
sg11
g20
sg13
g21
sg15
I01
sbag2
(g3
g4
Ntp46
Rp47
(dp48
g8
I01
sg9
g19
sg11
g20
sg13
g21
sg15
I01
sbag2
(g3
g4
Ntp49
Rp50
(dp51
g8
I00
sg9
cBlock_Module
Water
p52
sg11
S'water.png'
p53
sg13
S'water'
p54
sg15
I01
sbaa(lp55
g2
(g3
g4
Ntp56
Rp57
(dp58
g8
I01
sg9
g19
sg11
g20
sg13
g21
sg15
I01
sbag2
(g3
g4
Ntp59
Rp60
(dp61
g8
I01
sg9
g19
sg11
g20
sg13
g21
sg15
I01
sbag2
(g3
g4
Ntp62
Rp63
(dp64
g8
I00
sg9
g10
sg11
g12
sg13
g14
sg15
I01
sbag2
(g3
g4
Ntp65
Rp66
(dp67
g8
I00
sg9
g52
sg11
g53
sg13
g54
sg15
I01
sbag2
(g3
g4
Ntp68
Rp69
(dp70
g8
I01
sg9
g19
sg11
g20
sg13
g21
sg15
I01
sbag2
(g3
g4
Ntp71
Rp72
(dp73
g8
I01
sg9
g19
sg11
g20
sg13
g21
sg15
I01
sbag2
(g3
g4
Ntp74
Rp75
(dp76
g8
I00
sg9
g10
sg11
g12
sg13
g14
sg15
I01
sbag2
(g3
g4
Ntp77
Rp78
(dp79
g8
I01
sg9
g19
sg11
g20
sg13
g21
sg15
I01
sbag2
(g3
g4
Ntp80
Rp81
(dp82
g8
I01
sg9
g19
sg11
g20
sg13
g21
sg15
I01
sbag2
(g3
g4
Ntp83
Rp84
(dp85
g8
I01
sg9
g19
sg11
g20
sg13
g21
sg15
I01
sbag2
(g3
g4
Ntp86
Rp87
(dp88
g8
I00
sg9
g10
sg11
g12
sg13
g14
sg15
I01
sbag2
(g3
g4
Ntp89
Rp90
(dp91
g8
I00
sg9
g52
sg11
g53
sg13
g54
sg15
I01
sbaa(lp92
g2
(g3
g4
Ntp93
Rp94
(dp95
g8
I01
sg9
g19
sg11
g20
sg13
g21
sg15
I01
sbag2
(g3
g4
Ntp96
Rp97
(dp98
g8
I01
sg9
g19
sg11
g20
sg13
g21
sg15
I01
sbag2
(g3
g4
Ntp99
Rp100
(dp101
g8
I00
sg9
g10
sg11
g12
sg13
g14
sg15
I01
sbag2
(g3
g4
Ntp102
Rp103
(dp104
g8
I01
sg9
g19
sg11
g20
sg13
g21
sg15
I01
sbag2
(g3
g4
Ntp105
Rp106
(dp107
g8
I00
sg9
g10
sg11
g12
sg13
g14
sg15
I01
sbag2
(g3
g4
Ntp108
Rp109
(dp110
g8
I00
sg9
g10
sg11
g12
sg13
g14
sg15
I01
sbag2
(g3
g4
Ntp111
Rp112
(dp113
g8
I01
sg9
g19
sg11
g20
sg13
g21
sg15
I01
sbag2
(g3
g4
Ntp114
Rp115
(dp116
g8
I01
sg9
g19
sg11
g20
sg13
g21
sg15
I01
sbag2
(g3
g4
Ntp117
Rp118
(dp119
g8
I00
sg9
g52
sg11
g53
sg13
g54
sg15
I01
sbag2
(g3
g4
Ntp120
Rp121
(dp122
g8
I01
sg9
g19
sg11
g20
sg13
g21
sg15
I01
sbag2
(g3
g4
Ntp123
Rp124
(dp125
g8
I01
sg9
g19
sg11
g20
sg13
g21
sg15
I01
sbag2
(g3
g4
Ntp126
Rp127
(dp128
g8
I00
sg9
g52
sg11
g53
sg13
g54
sg15
I01
sbaa(lp129
g2
(g3
g4
Ntp130
Rp131
(dp132
g8
I01
sg9
g19
sg11
g20
sg13
g21
sg15
I01
sbag2
(g3
g4
Ntp133
Rp134
(dp135
g8
I00
sg9
g10
sg11
g12
sg13
g14
sg15
I01
sbag2
(g3
g4
Ntp136
Rp137
(dp138
g8
I01
sg9
g19
sg11
g20
sg13
g21
sg15
I01
sbag2
(g3
g4
Ntp139
Rp140
(dp141
g8
I00
sg9
g10
sg11
g12
sg13
g14
sg15
I01
sbag2
(g3
g4
Ntp142
Rp143
(dp144
g8
I00
sg9
g52
sg11
g53
sg13
g54
sg15
I01
sbag2
(g3
g4
Ntp145
Rp146
(dp147
g8
I00
sg9
g52
sg11
g53
sg13
g54
sg15
I01
sbag2
(g3
g4
Ntp148
Rp149
(dp150
g8
I01
sg9
g19
sg11
g20
sg13
g21
sg15
I01
sbag2
(g3
g4
Ntp151
Rp152
(dp153
g8
I01
sg9
g19
sg11
g20
sg13
g21
sg15
I01
sbag2
(g3
g4
Ntp154
Rp155
(dp156
g8
I01
sg9
g19
sg11
g20
sg13
g21
sg15
I01
sbag2
(g3
g4
Ntp157
Rp158
(dp159
g8
I00
sg9
g10
sg11
g12
sg13
g14
sg15
I01
sbag2
(g3
g4
Ntp160
Rp161
(dp162
g8
I00
sg9
g10
sg11
g12
sg13
g14
sg15
I01
sbag2
(g3
g4
Ntp163
Rp164
(dp165
g8
I00
sg9
g52
sg11
g53
sg13
g54
sg15
I01
sbaa(lp166
g2
(g3
g4
Ntp167
Rp168
(dp169
g8
I00
sg9
g10
sg11
g12
sg13
g14
sg15
I01
sbag2
(g3
g4
Ntp170
Rp171
(dp172
g8
I01
sg9
g19
sg11
g20
sg13
g21
sg15
I01
sbag2
(g3
g4
Ntp173
Rp174
(dp175
g8
I01
sg9
g19
sg11
g20
sg13
g21
sg15
I01
sbag2
(g3
g4
Ntp176
Rp177
(dp178
g8
I01
sg9
g19
sg11
g20
sg13
g21
sg15
I01
sbag2
(g3
g4
Ntp179
Rp180
(dp181
g8
I00
sg9
g10
sg11
g12
sg13
g14
sg15
I01
sbag2
(g3
g4
Ntp182
Rp183
(dp184
g8
I01
sg9
g19
sg11
g20
sg13
g21
sg15
I01
sbag2
(g3
g4
Ntp185
Rp186
(dp187
g8
I01
sg9
g19
sg11
g20
sg13
g21
sg15
I01
sbag2
(g3
g4
Ntp188
Rp189
(dp190
g8
I01
sg9
g19
sg11
g20
sg13
g21
sg15
I01
sbag2
(g3
g4
Ntp191
Rp192
(dp193
g8
I01
sg9
g19
sg11
g20
sg13
g21
sg15
I01
sbag2
(g3
g4
Ntp194
Rp195
(dp196
g8
I01
sg9
g19
sg11
g20
sg13
g21
sg15
I01
sbag2
(g3
g4
Ntp197
Rp198
(dp199
g8
I00
sg9
g10
sg11
g12
sg13
g14
sg15
I01
sbag2
(g3
g4
Ntp200
Rp201
(dp202
g8
I00
sg9
g52
sg11
g53
sg13
g54
sg15
I01
sbaa(lp203
g2
(g3
g4
Ntp204
Rp205
(dp206
g8
I00
sg9
g52
sg11
g53
sg13
g54
sg15
I01
sbag2
(g3
g4
Ntp207
Rp208
(dp209
g8
I00
sg9
g10
sg11
g12
sg13
g14
sg15
I01
sbag2
(g3
g4
Ntp210
Rp211
(dp212
g8
I00
sg9
g52
sg11
g53
sg13
g54
sg15
I01
sbag2
(g3
g4
Ntp213
Rp214
(dp215
g8
I00
sg9
g10
sg11
g12
sg13
g14
sg15
I01
sbag2
(g3
g4
Ntp216
Rp217
(dp218
g8
I01
sg9
g19
sg11
g20
sg13
g21
sg15
I01
sbag2
(g3
g4
Ntp219
Rp220
(dp221
g8
I01
sg9
g19
sg11
g20
sg13
g21
sg15
I01
sbag2
(g3
g4
Ntp222
Rp223
(dp224
g8
I01
sg9
g19
sg11
g20
sg13
g21
sg15
I01
sbag2
(g3
g4
Ntp225
Rp226
(dp227
g8
I01
sg9
g19
sg11
g20
sg13
g21
sg15
I01
sbag2
(g3
g4
Ntp228
Rp229
(dp230
g8
I01
sg9
g19
sg11
g20
sg13
g21
sg15
I01
sbag2
(g3
g4
Ntp231
Rp232
(dp233
g8
I01
sg9
g19
sg11
g20
sg13
g21
sg15
I01
sbag2
(g3
g4
Ntp234
Rp235
(dp236
g8
I00
sg9
g10
sg11
g12
sg13
g14
sg15
I01
sbag2
(g3
g4
Ntp237
Rp238
(dp239
g8
I00
sg9
g52
sg11
g53
sg13
g54
sg15
I01
sbaa(lp240
g2
(g3
g4
Ntp241
Rp242
(dp243
g8
I01
sg9
g19
sg11
g20
sg13
g21
sg15
I01
sbag2
(g3
g4
Ntp244
Rp245
(dp246
g8
I01
sg9
g19
sg11
g20
sg13
g21
sg15
I01
sbag2
(g3
g4
Ntp247
Rp248
(dp249
g8
I01
sg9
g19
sg11
g20
sg13
g21
sg15
I01
sbag2
(g3
g4
Ntp250
Rp251
(dp252
g8
I00
sg9
g10
sg11
g12
sg13
g14
sg15
I01
sbag2
(g3
g4
Ntp253
Rp254
(dp255
g8
I00
sg9
g10
sg11
g12
sg13
g14
sg15
I01
sbag2
(g3
g4
Ntp256
Rp257
(dp258
g8
I01
sg9
g19
sg11
g20
sg13
g21
sg15
I01
sbag2
(g3
g4
Ntp259
Rp260
(dp261
g8
I00
sg9
g10
sg11
g12
sg13
g14
sg15
I01
sbag2
(g3
g4
Ntp262
Rp263
(dp264
g8
I00
sg9
g10
sg11
g12
sg13
g14
sg15
I01
sbag2
(g3
g4
Ntp265
Rp266
(dp267
g8
I01
sg9
g19
sg11
g20
sg13
g21
sg15
I01
sbag2
(g3
g4
Ntp268
Rp269
(dp270
g8
I01
sg9
g19
sg11
g20
sg13
g21
sg15
I01
sbag2
(g3
g4
Ntp271
Rp272
(dp273
g8
I01
sg9
g19
sg11
g20
sg13
g21
sg15
I01
sbag2
(g3
g4
Ntp274
Rp275
(dp276
g8
I00
sg9
g52
sg11
g53
sg13
g54
sg15
I01
sbaa(lp277
g2
(g3
g4
Ntp278
Rp279
(dp280
g8
I01
sg9
g19
sg11
g20
sg13
g21
sg15
I01
sbag2
(g3
g4
Ntp281
Rp282
(dp283
g8
I01
sg9
g19
sg11
g20
sg13
g21
sg15
I01
sbag2
(g3
g4
Ntp284
Rp285
(dp286
g8
I01
sg9
g19
sg11
g20
sg13
g21
sg15
I01
sbag2
(g3
g4
Ntp287
Rp288
(dp289
g8
I01
sg9
g19
sg11
g20
sg13
g21
sg15
I01
sbag2
(g3
g4
Ntp290
Rp291
(dp292
g8
I00
sg9
g10
sg11
g12
sg13
g14
sg15
I01
sbag2
(g3
g4
Ntp293
Rp294
(dp295
g8
I00
sg9
g10
sg11
g12
sg13
g14
sg15
I01
sbag2
(g3
g4
Ntp296
Rp297
(dp298
g8
I00
sg9
g10
sg11
g12
sg13
g14
sg15
I01
sbag2
(g3
g4
Ntp299
Rp300
(dp301
g8
I00
sg9
g10
sg11
g12
sg13
g14
sg15
I01
sbag2
(g3
g4
Ntp302
Rp303
(dp304
g8
I01
sg9
g19
sg11
g20
sg13
g21
sg15
I01
sbag2
(g3
g4
Ntp305
Rp306
(dp307
g8
I00
sg9
g10
sg11
g12
sg13
g14
sg15
I01
sbag2
(g3
g4
Ntp308
Rp309
(dp310
g8
I01
sg9
g19
sg11
g20
sg13
g21
sg15
I01
sbag2
(g3
g4
Ntp311
Rp312
(dp313
g8
I00
sg9
g52
sg11
g53
sg13
g54
sg15
I01
sbaa(lp314
g2
(g3
g4
Ntp315
Rp316
(dp317
g8
I00
sg9
g10
sg11
g12
sg13
g14
sg15
I01
sbag2
(g3
g4
Ntp318
Rp319
(dp320
g8
I01
sg9
g19
sg11
g20
sg13
g21
sg15
I01
sbag2
(g3
g4
Ntp321
Rp322
(dp323
g8
I01
sg9
g19
sg11
g20
sg13
g21
sg15
I01
sbag2
(g3
g4
Ntp324
Rp325
(dp326
g8
I01
sg9
g19
sg11
g20
sg13
g21
sg15
I01
sbag2
(g3
g4
Ntp327
Rp328
(dp329
g8
I01
sg9
g19
sg11
g20
sg13
g21
sg15
I01
sbag2
(g3
g4
Ntp330
Rp331
(dp332
g8
I01
sg9
g19
sg11
g20
sg13
g21
sg15
I01
sbag2
(g3
g4
Ntp333
Rp334
(dp335
g8
I01
sg9
g19
sg11
g20
sg13
g21
sg15
I01
sbag2
(g3
g4
Ntp336
Rp337
(dp338
g8
I00
sg9
g10
sg11
g12
sg13
g14
sg15
I01
sbag2
(g3
g4
Ntp339
Rp340
(dp341
g8
I00
sg9
g52
sg11
g53
sg13
g54
sg15
I01
sbag2
(g3
g4
Ntp342
Rp343
(dp344
g8
I01
sg9
g19
sg11
g20
sg13
g21
sg15
I01
sbag2
(g3
g4
Ntp345
Rp346
(dp347
g8
I00
sg9
g52
sg11
g53
sg13
g54
sg15
I01
sbag2
(g3
g4
Ntp348
Rp349
(dp350
g8
I00
sg9
g52
sg11
g53
sg13
g54
sg15
I01
sbaa(lp351
g2
(g3
g4
Ntp352
Rp353
(dp354
g8
I01
sg9
g19
sg11
g20
sg13
g21
sg15
I01
sbag2
(g3
g4
Ntp355
Rp356
(dp357
g8
I01
sg9
g19
sg11
g20
sg13
g21
sg15
I01
sbag2
(g3
g4
Ntp358
Rp359
(dp360
g8
I01
sg9
g19
sg11
g20
sg13
g21
sg15
I01
sbag2
(g3
g4
Ntp361
Rp362
(dp363
g8
I01
sg9
g19
sg11
g20
sg13
g21
sg15
I01
sbag2
(g3
g4
Ntp364
Rp365
(dp366
g8
I01
sg9
g19
sg11
g20
sg13
g21
sg15
I01
sbag2
(g3
g4
Ntp367
Rp368
(dp369
g8
I01
sg9
g19
sg11
g20
sg13
g21
sg15
I01
sbag2
(g3
g4
Ntp370
Rp371
(dp372
g8
I01
sg9
g19
sg11
g20
sg13
g21
sg15
I01
sbag2
(g3
g4
Ntp373
Rp374
(dp375
g8
I01
sg9
g19
sg11
g20
sg13
g21
sg15
I01
sbag2
(g3
g4
Ntp376
Rp377
(dp378
g8
I01
sg9
g19
sg11
g20
sg13
g21
sg15
I01
sbag2
(g3
g4
Ntp379
Rp380
(dp381
g8
I00
sg9
g52
sg11
g53
sg13
g54
sg15
I01
sbag2
(g3
g4
Ntp382
Rp383
(dp384
g8
I01
sg9
g19
sg11
g20
sg13
g21
sg15
I01
sbag2
(g3
g4
Ntp385
Rp386
(dp387
g8
I00
sg9
g52
sg11
g53
sg13
g54
sg15
I01
sbaa(lp388
g2
(g3
g4
Ntp389
Rp390
(dp391
g8
I01
sg9
g19
sg11
g20
sg13
g21
sg15
I01
sbag2
(g3
g4
Ntp392
Rp393
(dp394
g8
I01
sg9
g19
sg11
g20
sg13
g21
sg15
I01
sbag2
(g3
g4
Ntp395
Rp396
(dp397
g8
I01
sg9
g19
sg11
g20
sg13
g21
sg15
I01
sbag2
(g3
g4
Ntp398
Rp399
(dp400
g8
I01
sg9
g19
sg11
g20
sg13
g21
sg15
I01
sbag2
(g3
g4
Ntp401
Rp402
(dp403
g8
I01
sg9
g19
sg11
g20
sg13
g21
sg15
I01
sbag2
(g3
g4
Ntp404
Rp405
(dp406
g8
I01
sg9
g19
sg11
g20
sg13
g21
sg15
I01
sbag2
(g3
g4
Ntp407
Rp408
(dp409
g8
I01
sg9
g19
sg11
g20
sg13
g21
sg15
I01
sbag2
(g3
g4
Ntp410
Rp411
(dp412
g8
I00
sg9
g10
sg11
g12
sg13
g14
sg15
I01
sbag2
(g3
g4
Ntp413
Rp414
(dp415
g8
I01
sg9
g19
sg11
g20
sg13
g21
sg15
I01
sbag2
(g3
g4
Ntp416
Rp417
(dp418
g8
I01
sg9
g19
sg11
g20
sg13
g21
sg15
I01
sbag2
(g3
g4
Ntp419
Rp420
(dp421
g8
I01
sg9
g19
sg11
g20
sg13
g21
sg15
I01
sbag2
(g3
g4
Ntp422
Rp423
(dp424
g8
I00
sg9
g52
sg11
g53
sg13
g54
sg15
I01
sbaa(lp425
g2
(g3
g4
Ntp426
Rp427
(dp428
g8
I00
sg9
g52
sg11
g53
sg13
g54
sg15
I01
sbag2
(g3
g4
Ntp429
Rp430
(dp431
g8
I00
sg9
g52
sg11
g53
sg13
g54
sg15
I01
sbag2
(g3
g4
Ntp432
Rp433
(dp434
g8
I00
sg9
g52
sg11
g53
sg13
g54
sg15
I01
sbag2
(g3
g4
Ntp435
Rp436
(dp437
g8
I00
sg9
g52
sg11
g53
sg13
g54
sg15
I01
sbag2
(g3
g4
Ntp438
Rp439
(dp440
g8
I00
sg9
g52
sg11
g53
sg13
g54
sg15
I01
sbag2
(g3
g4
Ntp441
Rp442
(dp443
g8
I00
sg9
g52
sg11
g53
sg13
g54
sg15
I01
sbag2
(g3
g4
Ntp444
Rp445
(dp446
g8
I00
sg9
g52
sg11
g53
sg13
g54
sg15
I01
sbag2
(g3
g4
Ntp447
Rp448
(dp449
g8
I00
sg9
g52
sg11
g53
sg13
g54
sg15
I01
sbag2
(g3
g4
Ntp450
Rp451
(dp452
g8
I00
sg9
g52
sg11
g53
sg13
g54
sg15
I01
sbag2
(g3
g4
Ntp453
Rp454
(dp455
g8
I00
sg9
g52
sg11
g53
sg13
g54
sg15
I01
sbag2
(g3
g4
Ntp456
Rp457
(dp458
g8
I00
sg9
g52
sg11
g53
sg13
g54
sg15
I01
sbag2
(g3
g4
Ntp459
Rp460
(dp461
g8
I00
sg9
g52
sg11
g53
sg13
g54
sg15
I01
sbaa.