(lp0
(lp1
ccopy_reg
_reconstructor
p2
(cBlock_Module
Block
p3
c__builtin__
object
p4
Ntp5
Rp6
(dp7
S'walkable'
p8
I00
sS'drop'
p9
cBlock_Module
Wood
p10
sS'graphic'
p11
S'tree.png'
p12
sS'name'
p13
S'tree'
p14
sS'destructible'
p15
I01
sbag2
(g3
g4
Ntp16
Rp17
(dp18
g8
I01
sg9
Nsg11
S'grass.png'
p19
sg13
S'grass'
p20
sg15
I00
sbag2
(g3
g4
Ntp21
Rp22
(dp23
g8
I00
sg9
g10
sg11
g12
sg13
g14
sg15
I01
sbag2
(g3
g4
Ntp24
Rp25
(dp26
g8
I01
sg9
Nsg11
g19
sg13
g20
sg15
I00
sbag2
(g3
g4
Ntp27
Rp28
(dp29
g8
I00
sg9
g10
sg11
g12
sg13
g14
sg15
I01
sbag2
(g3
g4
Ntp30
Rp31
(dp32
g8
I01
sg9
Nsg11
g19
sg13
g20
sg15
I00
sbag2
(g3
g4
Ntp33
Rp34
(dp35
g8
I00
sg9
g10
sg11
g12
sg13
g14
sg15
I01
sbag2
(g3
g4
Ntp36
Rp37
(dp38
g8
I01
sg9
Nsg11
g19
sg13
g20
sg15
I00
sbag2
(g3
g4
Ntp39
Rp40
(dp41
g8
I01
sg9
Nsg11
g19
sg13
g20
sg15
I00
sbag2
(g3
g4
Ntp42
Rp43
(dp44
g8
I00
sg9
g10
sg11
g12
sg13
g14
sg15
I01
sbag2
(g3
g4
Ntp45
Rp46
(dp47
g8
I01
sg9
Nsg11
g19
sg13
g20
sg15
I00
sbag2
(g3
g4
Ntp48
Rp49
(dp50
g8
I00
sg9
Nsg11
S'water.png'
p51
sg13
S'blank'
p52
sg15
I00
sbaa(lp53
g2
(g3
g4
Ntp54
Rp55
(dp56
g8
I01
sg9
Nsg11
g19
sg13
g20
sg15
I00
sbag2
(g3
g4
Ntp57
Rp58
(dp59
g8
I01
sg9
Nsg11
g19
sg13
g20
sg15
I00
sbag2
(g3
g4
Ntp60
Rp61
(dp62
g8
I01
sg9
Nsg11
g19
sg13
g20
sg15
I00
sbag2
(g3
g4
Ntp63
Rp64
(dp65
g8
I01
sg9
Nsg11
g19
sg13
g20
sg15
I00
sbag2
(g3
g4
Ntp66
Rp67
(dp68
g8
I01
sg9
Nsg11
g19
sg13
g20
sg15
I00
sbag2
(g3
g4
Ntp69
Rp70
(dp71
g8
I01
sg9
Nsg11
g19
sg13
g20
sg15
I00
sbag2
(g3
g4
Ntp72
Rp73
(dp74
g8
I01
sg9
Nsg11
g19
sg13
g20
sg15
I00
sbag2
(g3
g4
Ntp75
Rp76
(dp77
g8
I01
sg9
Nsg11
g19
sg13
g20
sg15
I00
sbag2
(g3
g4
Ntp78
Rp79
(dp80
g8
I01
sg9
Nsg11
g19
sg13
g20
sg15
I00
sbag2
(g3
g4
Ntp81
Rp82
(dp83
g8
I01
sg9
Nsg11
g19
sg13
g20
sg15
I00
sbag2
(g3
g4
Ntp84
Rp85
(dp86
g8
I01
sg9
Nsg11
g19
sg13
g20
sg15
I00
sbag2
(g3
g4
Ntp87
Rp88
(dp89
g8
I00
sg9
Nsg11
g51
sg13
g52
sg15
I00
sbaa(lp90
g2
(g3
g4
Ntp91
Rp92
(dp93
g8
I00
sg9
g10
sg11
g12
sg13
g14
sg15
I01
sbag2
(g3
g4
Ntp94
Rp95
(dp96
g8
I01
sg9
Nsg11
g19
sg13
g20
sg15
I00
sbag2
(g3
g4
Ntp97
Rp98
(dp99
g8
I00
sg9
g10
sg11
g12
sg13
g14
sg15
I01
sbag2
(g3
g4
Ntp100
Rp101
(dp102
g8
I01
sg9
Nsg11
g19
sg13
g20
sg15
I00
sbag2
(g3
g4
Ntp103
Rp104
(dp105
g8
I00
sg9
g10
sg11
g12
sg13
g14
sg15
I01
sbag2
(g3
g4
Ntp106
Rp107
(dp108
g8
I01
sg9
Nsg11
g19
sg13
g20
sg15
I00
sbag2
(g3
g4
Ntp109
Rp110
(dp111
g8
I00
sg9
g10
sg11
g12
sg13
g14
sg15
I01
sbag2
(g3
g4
Ntp112
Rp113
(dp114
g8
I01
sg9
Nsg11
g19
sg13
g20
sg15
I00
sbag2
(g3
g4
Ntp115
Rp116
(dp117
g8
I01
sg9
Nsg11
g19
sg13
g20
sg15
I00
sbag2
(g3
g4
Ntp118
Rp119
(dp120
g8
I01
sg9
Nsg11
g19
sg13
g20
sg15
I00
sbag2
(g3
g4
Ntp121
Rp122
(dp123
g8
I00
sg9
g10
sg11
g12
sg13
g14
sg15
I01
sbag2
(g3
g4
Ntp124
Rp125
(dp126
g8
I00
sg9
Nsg11
g51
sg13
g52
sg15
I00
sbaa(lp127
g2
(g3
g4
Ntp128
Rp129
(dp130
g8
I01
sg9
Nsg11
g19
sg13
g20
sg15
I00
sbag2
(g3
g4
Ntp131
Rp132
(dp133
g8
I01
sg9
Nsg11
g19
sg13
g20
sg15
I00
sbag2
(g3
g4
Ntp134
Rp135
(dp136
g8
I01
sg9
Nsg11
g19
sg13
g20
sg15
I00
sbag2
(g3
g4
Ntp137
Rp138
(dp139
g8
I01
sg9
Nsg11
g19
sg13
g20
sg15
I00
sbag2
(g3
g4
Ntp140
Rp141
(dp142
g8
I01
sg9
Nsg11
g19
sg13
g20
sg15
I00
sbag2
(g3
g4
Ntp143
Rp144
(dp145
g8
I01
sg9
Nsg11
g19
sg13
g20
sg15
I00
sbag2
(g3
g4
Ntp146
Rp147
(dp148
g8
I01
sg9
Nsg11
g19
sg13
g20
sg15
I00
sbag2
(g3
g4
Ntp149
Rp150
(dp151
g8
I01
sg9
Nsg11
g19
sg13
g20
sg15
I00
sbag2
(g3
g4
Ntp152
Rp153
(dp154
g8
I00
sg9
g10
sg11
g12
sg13
g14
sg15
I01
sbag2
(g3
g4
Ntp155
Rp156
(dp157
g8
I01
sg9
Nsg11
g19
sg13
g20
sg15
I00
sbag2
(g3
g4
Ntp158
Rp159
(dp160
g8
I01
sg9
Nsg11
g19
sg13
g20
sg15
I00
sbag2
(g3
g4
Ntp161
Rp162
(dp163
g8
I00
sg9
Nsg11
g51
sg13
g52
sg15
I00
sbaa(lp164
g2
(g3
g4
Ntp165
Rp166
(dp167
g8
I00
sg9
g10
sg11
g12
sg13
g14
sg15
I01
sbag2
(g3
g4
Ntp168
Rp169
(dp170
g8
I01
sg9
Nsg11
g19
sg13
g20
sg15
I00
sbag2
(g3
g4
Ntp171
Rp172
(dp173
g8
I00
sg9
g10
sg11
g12
sg13
g14
sg15
I01
sbag2
(g3
g4
Ntp174
Rp175
(dp176
g8
I01
sg9
Nsg11
g19
sg13
g20
sg15
I00
sbag2
(g3
g4
Ntp177
Rp178
(dp179
g8
I01
sg9
Nsg11
g19
sg13
g20
sg15
I00
sbag2
(g3
g4
Ntp180
Rp181
(dp182
g8
I00
sg9
g10
sg11
g12
sg13
g14
sg15
I01
sbag2
(g3
g4
Ntp183
Rp184
(dp185
g8
I01
sg9
Nsg11
g19
sg13
g20
sg15
I00
sbag2
(g3
g4
Ntp186
Rp187
(dp188
g8
I01
sg9
Nsg11
g19
sg13
g20
sg15
I00
sbag2
(g3
g4
Ntp189
Rp190
(dp191
g8
I01
sg9
Nsg11
g19
sg13
g20
sg15
I00
sbag2
(g3
g4
Ntp192
Rp193
(dp194
g8
I01
sg9
Nsg11
g19
sg13
g20
sg15
I00
sbag2
(g3
g4
Ntp195
Rp196
(dp197
g8
I01
sg9
Nsg11
g19
sg13
g20
sg15
I00
sbag2
(g3
g4
Ntp198
Rp199
(dp200
g8
I00
sg9
Nsg11
g51
sg13
g52
sg15
I00
sbaa(lp201
g2
(g3
g4
Ntp202
Rp203
(dp204
g8
I01
sg9
Nsg11
g19
sg13
g20
sg15
I00
sbag2
(g3
g4
Ntp205
Rp206
(dp207
g8
I01
sg9
Nsg11
g19
sg13
g20
sg15
I00
sbag2
(g3
g4
Ntp208
Rp209
(dp210
g8
I01
sg9
Nsg11
g19
sg13
g20
sg15
I00
sbag2
(g3
g4
Ntp211
Rp212
(dp213
g8
I01
sg9
Nsg11
g19
sg13
g20
sg15
I00
sbag2
(g3
g4
Ntp214
Rp215
(dp216
g8
I01
sg9
Nsg11
g19
sg13
g20
sg15
I00
sbag2
(g3
g4
Ntp217
Rp218
(dp219
g8
I01
sg9
Nsg11
g19
sg13
g20
sg15
I00
sbag2
(g3
g4
Ntp220
Rp221
(dp222
g8
I00
sg9
g10
sg11
g12
sg13
g14
sg15
I01
sbag2
(g3
g4
Ntp223
Rp224
(dp225
g8
I00
sg9
Nsg11
S'water.png'
p226
sg13
S'water'
p227
sg15
I00
sbag2
(g3
g4
Ntp228
Rp229
(dp230
g8
I01
sg9
Nsg11
g19
sg13
g20
sg15
I00
sbag2
(g3
g4
Ntp231
Rp232
(dp233
g8
I00
sg9
g10
sg11
g12
sg13
g14
sg15
I01
sbag2
(g3
g4
Ntp234
Rp235
(dp236
g8
I01
sg9
Nsg11
g19
sg13
g20
sg15
I00
sbag2
(g3
g4
Ntp237
Rp238
(dp239
g8
I00
sg9
Nsg11
g51
sg13
g52
sg15
I00
sbaa(lp240
g2
(g3
g4
Ntp241
Rp242
(dp243
g8
I00
sg9
g10
sg11
g12
sg13
g14
sg15
I01
sbag2
(g3
g4
Ntp244
Rp245
(dp246
g8
I01
sg9
Nsg11
g19
sg13
g20
sg15
I00
sbag2
(g3
g4
Ntp247
Rp248
(dp249
g8
I01
sg9
Nsg11
g19
sg13
g20
sg15
I00
sbag2
(g3
g4
Ntp250
Rp251
(dp252
g8
I00
sg9
g10
sg11
g12
sg13
g14
sg15
I01
sbag2
(g3
g4
Ntp253
Rp254
(dp255
g8
I01
sg9
Nsg11
g19
sg13
g20
sg15
I00
sbag2
(g3
g4
Ntp256
Rp257
(dp258
g8
I01
sg9
Nsg11
g19
sg13
g20
sg15
I00
sbag2
(g3
g4
Ntp259
Rp260
(dp261
g8
I01
sg9
Nsg11
g19
sg13
g20
sg15
I00
sbag2
(g3
g4
Ntp262
Rp263
(dp264
g8
I01
sg9
Nsg11
g19
sg13
g20
sg15
I00
sbag2
(g3
g4
Ntp265
Rp266
(dp267
g8
I00
sg9
g10
sg11
g12
sg13
g14
sg15
I01
sbag2
(g3
g4
Ntp268
Rp269
(dp270
g8
I01
sg9
Nsg11
g19
sg13
g20
sg15
I00
sbag2
(g3
g4
Ntp271
Rp272
(dp273
g8
I01
sg9
Nsg11
g19
sg13
g20
sg15
I00
sbag2
(g3
g4
Ntp274
Rp275
(dp276
g8
I00
sg9
Nsg11
g51
sg13
g52
sg15
I00
sbaa(lp277
g2
(g3
g4
Ntp278
Rp279
(dp280
g8
I01
sg9
Nsg11
g19
sg13
g20
sg15
I00
sbag2
(g3
g4
Ntp281
Rp282
(dp283
g8
I01
sg9
Nsg11
g19
sg13
g20
sg15
I00
sbag2
(g3
g4
Ntp284
Rp285
(dp286
g8
I01
sg9
Nsg11
g19
sg13
g20
sg15
I00
sbag2
(g3
g4
Ntp287
Rp288
(dp289
g8
I01
sg9
Nsg11
g19
sg13
g20
sg15
I00
sbag2
(g3
g4
Ntp290
Rp291
(dp292
g8
I01
sg9
Nsg11
g19
sg13
g20
sg15
I00
sbag2
(g3
g4
Ntp293
Rp294
(dp295
g8
I00
sg9
g10
sg11
g12
sg13
g14
sg15
I01
sbag2
(g3
g4
Ntp296
Rp297
(dp298
g8
I01
sg9
Nsg11
g19
sg13
g20
sg15
I00
sbag2
(g3
g4
Ntp299
Rp300
(dp301
g8
I01
sg9
Nsg11
g19
sg13
g20
sg15
I00
sbag2
(g3
g4
Ntp302
Rp303
(dp304
g8
I01
sg9
Nsg11
g19
sg13
g20
sg15
I00
sbag2
(g3
g4
Ntp305
Rp306
(dp307
g8
I01
sg9
Nsg11
g19
sg13
g20
sg15
I00
sbag2
(g3
g4
Ntp308
Rp309
(dp310
g8
I01
sg9
Nsg11
g19
sg13
g20
sg15
I00
sbag2
(g3
g4
Ntp311
Rp312
(dp313
g8
I00
sg9
Nsg11
g51
sg13
g52
sg15
I00
sbaa(lp314
g2
(g3
g4
Ntp315
Rp316
(dp317
g8
I01
sg9
Nsg11
g19
sg13
g20
sg15
I00
sbag2
(g3
g4
Ntp318
Rp319
(dp320
g8
I01
sg9
Nsg11
g19
sg13
g20
sg15
I00
sbag2
(g3
g4
Ntp321
Rp322
(dp323
g8
I01
sg9
Nsg11
g19
sg13
g20
sg15
I00
sbag2
(g3
g4
Ntp324
Rp325
(dp326
g8
I01
sg9
Nsg11
g19
sg13
g20
sg15
I00
sbag2
(g3
g4
Ntp327
Rp328
(dp329
g8
I01
sg9
Nsg11
g19
sg13
g20
sg15
I00
sbag2
(g3
g4
Ntp330
Rp331
(dp332
g8
I01
sg9
Nsg11
g19
sg13
g20
sg15
I00
sbag2
(g3
g4
Ntp333
Rp334
(dp335
g8
I01
sg9
Nsg11
g19
sg13
g20
sg15
I00
sbag2
(g3
g4
Ntp336
Rp337
(dp338
g8
I00
sg9
g10
sg11
g12
sg13
g14
sg15
I01
sbag2
(g3
g4
Ntp339
Rp340
(dp341
g8
I01
sg9
Nsg11
g19
sg13
g20
sg15
I00
sbag2
(g3
g4
Ntp342
Rp343
(dp344
g8
I00
sg9
g10
sg11
g12
sg13
g14
sg15
I01
sbag2
(g3
g4
Ntp345
Rp346
(dp347
g8
I01
sg9
Nsg11
g19
sg13
g20
sg15
I00
sbag2
(g3
g4
Ntp348
Rp349
(dp350
g8
I00
sg9
Nsg11
g51
sg13
g52
sg15
I00
sbaa(lp351
g2
(g3
g4
Ntp352
Rp353
(dp354
g8
I01
sg9
Nsg11
g19
sg13
g20
sg15
I00
sbag2
(g3
g4
Ntp355
Rp356
(dp357
g8
I01
sg9
Nsg11
g19
sg13
g20
sg15
I00
sbag2
(g3
g4
Ntp358
Rp359
(dp360
g8
I01
sg9
Nsg11
g19
sg13
g20
sg15
I00
sbag2
(g3
g4
Ntp361
Rp362
(dp363
g8
I01
sg9
Nsg11
g19
sg13
g20
sg15
I00
sbag2
(g3
g4
Ntp364
Rp365
(dp366
g8
I01
sg9
Nsg11
g19
sg13
g20
sg15
I00
sbag2
(g3
g4
Ntp367
Rp368
(dp369
g8
I00
sg9
g10
sg11
g12
sg13
g14
sg15
I01
sbag2
(g3
g4
Ntp370
Rp371
(dp372
g8
I01
sg9
Nsg11
g19
sg13
g20
sg15
I00
sbag2
(g3
g4
Ntp373
Rp374
(dp375
g8
I01
sg9
Nsg11
g19
sg13
g20
sg15
I00
sbag2
(g3
g4
Ntp376
Rp377
(dp378
g8
I01
sg9
Nsg11
g19
sg13
g20
sg15
I00
sbag2
(g3
g4
Ntp379
Rp380
(dp381
g8
I01
sg9
Nsg11
g19
sg13
g20
sg15
I00
sbag2
(g3
g4
Ntp382
Rp383
(dp384
g8
I01
sg9
Nsg11
g19
sg13
g20
sg15
I00
sbag2
(g3
g4
Ntp385
Rp386
(dp387
g8
I00
sg9
Nsg11
g51
sg13
g52
sg15
I00
sbaa(lp388
g2
(g3
g4
Ntp389
Rp390
(dp391
g8
I01
sg9
Nsg11
g19
sg13
g20
sg15
I00
sbag2
(g3
g4
Ntp392
Rp393
(dp394
g8
I01
sg9
Nsg11
g19
sg13
g20
sg15
I00
sbag2
(g3
g4
Ntp395
Rp396
(dp397
g8
I01
sg9
Nsg11
g19
sg13
g20
sg15
I00
sbag2
(g3
g4
Ntp398
Rp399
(dp400
g8
I00
sg9
g10
sg11
g12
sg13
g14
sg15
I01
sbag2
(g3
g4
Ntp401
Rp402
(dp403
g8
I01
sg9
Nsg11
g19
sg13
g20
sg15
I00
sbag2
(g3
g4
Ntp404
Rp405
(dp406
g8
I01
sg9
Nsg11
g19
sg13
g20
sg15
I00
sbag2
(g3
g4
Ntp407
Rp408
(dp409
g8
I01
sg9
Nsg11
g19
sg13
g20
sg15
I00
sbag2
(g3
g4
Ntp410
Rp411
(dp412
g8
I01
sg9
Nsg11
g19
sg13
g20
sg15
I00
sbag2
(g3
g4
Ntp413
Rp414
(dp415
g8
I01
sg9
Nsg11
g19
sg13
g20
sg15
I00
sbag2
(g3
g4
Ntp416
Rp417
(dp418
g8
I01
sg9
Nsg11
g19
sg13
g20
sg15
I00
sbag2
(g3
g4
Ntp419
Rp420
(dp421
g8
I00
sg9
g10
sg11
g12
sg13
g14
sg15
I01
sbag2
(g3
g4
Ntp422
Rp423
(dp424
g8
I00
sg9
Nsg11
g51
sg13
g52
sg15
I00
sbaa(lp425
g2
(g3
g4
Ntp426
Rp427
(dp428
g8
I00
sg9
Nsg11
g51
sg13
g52
sg15
I00
sbag2
(g3
g4
Ntp429
Rp430
(dp431
g8
I00
sg9
Nsg11
g51
sg13
g52
sg15
I00
sbag2
(g3
g4
Ntp432
Rp433
(dp434
g8
I00
sg9
Nsg11
g51
sg13
g52
sg15
I00
sbag2
(g3
g4
Ntp435
Rp436
(dp437
g8
I00
sg9
Nsg11
g51
sg13
g52
sg15
I00
sbag2
(g3
g4
Ntp438
Rp439
(dp440
g8
I00
sg9
Nsg11
g51
sg13
g52
sg15
I00
sbag2
(g3
g4
Ntp441
Rp442
(dp443
g8
I00
sg9
Nsg11
g51
sg13
g52
sg15
I00
sbag2
(g3
g4
Ntp444
Rp445
(dp446
g8
I00
sg9
Nsg11
g51
sg13
g52
sg15
I00
sbag2
(g3
g4
Ntp447
Rp448
(dp449
g8
I00
sg9
Nsg11
g51
sg13
g52
sg15
I00
sbag2
(g3
g4
Ntp450
Rp451
(dp452
g8
I00
sg9
Nsg11
g51
sg13
g52
sg15
I00
sbag2
(g3
g4
Ntp453
Rp454
(dp455
g8
I00
sg9
Nsg11
g51
sg13
g52
sg15
I00
sbag2
(g3
g4
Ntp456
Rp457
(dp458
g8
I00
sg9
Nsg11
g51
sg13
g52
sg15
I00
sbag2
(g3
g4
Ntp459
Rp460
(dp461
g8
I00
sg9
Nsg11
g51
sg13
g52
sg15
I00
sbaa.