(lp0
ccopy_reg
_reconstructor
p1
(cWorld_Module
World
p2
c__builtin__
object
p3
Ntp4
Rp5
(dp6
S'center_chunk'
p7
(lp8
I0
aI0
asS'loaded_world'
p9
(dp10
(I0
I1
tp11
g1
(cWorld_Module
Chunk
p12
g3
Ntp13
Rp14
(dp15
S'chunk'
p16
(lp17
(lp18
g1
(cBlock_Module
Block
p19
g3
Ntp20
Rp21
(dp22
S'walkable'
p23
I00
sS'drop'
p24
cBlock_Module
Wood
p25
sS'graphic'
p26
S'tree.png'
p27
sS'name'
p28
S'tree'
p29
sS'destructible'
p30
I01
sbag1
(g19
g3
Ntp31
Rp32
(dp33
g23
I01
sg24
Nsg26
S'grass.png'
p34
sg28
S'grass'
p35
sg30
I00
sbag1
(g19
g3
Ntp36
Rp37
(dp38
g23
I01
sg24
Nsg26
g34
sg28
g35
sg30
I00
sbag1
(g19
g3
Ntp39
Rp40
(dp41
g23
I01
sg24
Nsg26
g34
sg28
g35
sg30
I00
sbag1
(g19
g3
Ntp42
Rp43
(dp44
g23
I01
sg24
Nsg26
g34
sg28
g35
sg30
I00
sbag1
(g19
g3
Ntp45
Rp46
(dp47
g23
I01
sg24
Nsg26
g34
sg28
g35
sg30
I00
sbag1
(g19
g3
Ntp48
Rp49
(dp50
g23
I01
sg24
Nsg26
g34
sg28
g35
sg30
I00
sbag1
(g19
g3
Ntp51
Rp52
(dp53
g23
I00
sg24
g25
sg26
g27
sg28
g29
sg30
I01
sbag1
(g19
g3
Ntp54
Rp55
(dp56
g23
I01
sg24
Nsg26
g34
sg28
g35
sg30
I00
sbag1
(g19
g3
Ntp57
Rp58
(dp59
g23
I00
sg24
g25
sg26
g27
sg28
g29
sg30
I01
sbag1
(g19
g3
Ntp60
Rp61
(dp62
g23
I01
sg24
Nsg26
g34
sg28
g35
sg30
I00
sbag1
(g19
g3
Ntp63
Rp64
(dp65
g23
I00
sg24
Nsg26
S'water.png'
p66
sg28
S'blank'
p67
sg30
I00
sbaa(lp68
g1
(g19
g3
Ntp69
Rp70
(dp71
g23
I01
sg24
Nsg26
g34
sg28
g35
sg30
I00
sbag1
(g19
g3
Ntp72
Rp73
(dp74
g23
I01
sg24
Nsg26
g34
sg28
g35
sg30
I00
sbag1
(g19
g3
Ntp75
Rp76
(dp77
g23
I00
sg24
g25
sg26
g27
sg28
g29
sg30
I01
sbag1
(g19
g3
Ntp78
Rp79
(dp80
g23
I01
sg24
Nsg26
g34
sg28
g35
sg30
I00
sbag1
(g19
g3
Ntp81
Rp82
(dp83
g23
I00
sg24
g25
sg26
g27
sg28
g29
sg30
I01
sbag1
(g19
g3
Ntp84
Rp85
(dp86
g23
I01
sg24
Nsg26
g34
sg28
g35
sg30
I00
sbag1
(g19
g3
Ntp87
Rp88
(dp89
g23
I01
sg24
Nsg26
g34
sg28
g35
sg30
I00
sbag1
(g19
g3
Ntp90
Rp91
(dp92
g23
I01
sg24
Nsg26
g34
sg28
g35
sg30
I00
sbag1
(g19
g3
Ntp93
Rp94
(dp95
g23
I01
sg24
Nsg26
g34
sg28
g35
sg30
I00
sbag1
(g19
g3
Ntp96
Rp97
(dp98
g23
I01
sg24
Nsg26
g34
sg28
g35
sg30
I00
sbag1
(g19
g3
Ntp99
Rp100
(dp101
g23
I01
sg24
Nsg26
g34
sg28
g35
sg30
I00
sbag1
(g19
g3
Ntp102
Rp103
(dp104
g23
I00
sg24
Nsg26
g66
sg28
g67
sg30
I00
sbaa(lp105
g1
(g19
g3
Ntp106
Rp107
(dp108
g23
I00
sg24
g25
sg26
g27
sg28
g29
sg30
I01
sbag1
(g19
g3
Ntp109
Rp110
(dp111
g23
I01
sg24
Nsg26
g34
sg28
g35
sg30
I00
sbag1
(g19
g3
Ntp112
Rp113
(dp114
g23
I01
sg24
Nsg26
g34
sg28
g35
sg30
I00
sbag1
(g19
g3
Ntp115
Rp116
(dp117
g23
I01
sg24
Nsg26
g34
sg28
g35
sg30
I00
sbag1
(g19
g3
Ntp118
Rp119
(dp120
g23
I01
sg24
Nsg26
g34
sg28
g35
sg30
I00
sbag1
(g19
g3
Ntp121
Rp122
(dp123
g23
I01
sg24
Nsg26
g34
sg28
g35
sg30
I00
sbag1
(g19
g3
Ntp124
Rp125
(dp126
g23
I01
sg24
Nsg26
g34
sg28
g35
sg30
I00
sbag1
(g19
g3
Ntp127
Rp128
(dp129
g23
I00
sg24
g25
sg26
g27
sg28
g29
sg30
I01
sbag1
(g19
g3
Ntp130
Rp131
(dp132
g23
I01
sg24
Nsg26
g34
sg28
g35
sg30
I00
sbag1
(g19
g3
Ntp133
Rp134
(dp135
g23
I00
sg24
g25
sg26
g27
sg28
g29
sg30
I01
sbag1
(g19
g3
Ntp136
Rp137
(dp138
g23
I01
sg24
Nsg26
g34
sg28
g35
sg30
I00
sbag1
(g19
g3
Ntp139
Rp140
(dp141
g23
I00
sg24
Nsg26
g66
sg28
g67
sg30
I00
sbaa(lp142
g1
(g19
g3
Ntp143
Rp144
(dp145
g23
I01
sg24
Nsg26
g34
sg28
g35
sg30
I00
sbag1
(g19
g3
Ntp146
Rp147
(dp148
g23
I01
sg24
Nsg26
g34
sg28
g35
sg30
I00
sbag1
(g19
g3
Ntp149
Rp150
(dp151
g23
I01
sg24
Nsg26
g34
sg28
g35
sg30
I00
sbag1
(g19
g3
Ntp152
Rp153
(dp154
g23
I00
sg24
g25
sg26
g27
sg28
g29
sg30
I01
sbag1
(g19
g3
Ntp155
Rp156
(dp157
g23
I01
sg24
Nsg26
g34
sg28
g35
sg30
I00
sbag1
(g19
g3
Ntp158
Rp159
(dp160
g23
I01
sg24
Nsg26
g34
sg28
g35
sg30
I00
sbag1
(g19
g3
Ntp161
Rp162
(dp163
g23
I01
sg24
Nsg26
g34
sg28
g35
sg30
I00
sbag1
(g19
g3
Ntp164
Rp165
(dp166
g23
I01
sg24
Nsg26
g34
sg28
g35
sg30
I00
sbag1
(g19
g3
Ntp167
Rp168
(dp169
g23
I01
sg24
Nsg26
g34
sg28
g35
sg30
I00
sbag1
(g19
g3
Ntp170
Rp171
(dp172
g23
I01
sg24
Nsg26
g34
sg28
g35
sg30
I00
sbag1
(g19
g3
Ntp173
Rp174
(dp175
g23
I01
sg24
Nsg26
g34
sg28
g35
sg30
I00
sbag1
(g19
g3
Ntp176
Rp177
(dp178
g23
I00
sg24
Nsg26
g66
sg28
g67
sg30
I00
sbaa(lp179
g1
(g19
g3
Ntp180
Rp181
(dp182
g23
I00
sg24
g25
sg26
g27
sg28
g29
sg30
I01
sbag1
(g19
g3
Ntp183
Rp184
(dp185
g23
I01
sg24
Nsg26
g34
sg28
g35
sg30
I00
sbag1
(g19
g3
Ntp186
Rp187
(dp188
g23
I01
sg24
Nsg26
g34
sg28
g35
sg30
I00
sbag1
(g19
g3
Ntp189
Rp190
(dp191
g23
I01
sg24
Nsg26
g34
sg28
g35
sg30
I00
sbag1
(g19
g3
Ntp192
Rp193
(dp194
g23
I01
sg24
Nsg26
g34
sg28
g35
sg30
I00
sbag1
(g19
g3
Ntp195
Rp196
(dp197
g23
I01
sg24
Nsg26
g34
sg28
g35
sg30
I00
sbag1
(g19
g3
Ntp198
Rp199
(dp200
g23
I01
sg24
Nsg26
g34
sg28
g35
sg30
I00
sbag1
(g19
g3
Ntp201
Rp202
(dp203
g23
I01
sg24
Nsg26
g34
sg28
g35
sg30
I00
sbag1
(g19
g3
Ntp204
Rp205
(dp206
g23
I00
sg24
g25
sg26
g27
sg28
g29
sg30
I01
sbag1
(g19
g3
Ntp207
Rp208
(dp209
g23
I01
sg24
Nsg26
g34
sg28
g35
sg30
I00
sbag1
(g19
g3
Ntp210
Rp211
(dp212
g23
I01
sg24
Nsg26
g34
sg28
g35
sg30
I00
sbag1
(g19
g3
Ntp213
Rp214
(dp215
g23
I00
sg24
Nsg26
g66
sg28
g67
sg30
I00
sbaa(lp216
g1
(g19
g3
Ntp217
Rp218
(dp219
g23
I01
sg24
Nsg26
g34
sg28
g35
sg30
I00
sbag1
(g19
g3
Ntp220
Rp221
(dp222
g23
I01
sg24
Nsg26
g34
sg28
g35
sg30
I00
sbag1
(g19
g3
Ntp223
Rp224
(dp225
g23
I00
sg24
g25
sg26
g27
sg28
g29
sg30
I01
sbag1
(g19
g3
Ntp226
Rp227
(dp228
g23
I01
sg24
Nsg26
g34
sg28
g35
sg30
I00
sbag1
(g19
g3
Ntp229
Rp230
(dp231
g23
I01
sg24
Nsg26
g34
sg28
g35
sg30
I00
sbag1
(g19
g3
Ntp232
Rp233
(dp234
g23
I00
sg24
g25
sg26
g27
sg28
g29
sg30
I01
sbag1
(g19
g3
Ntp235
Rp236
(dp237
g23
I01
sg24
Nsg26
g34
sg28
g35
sg30
I00
sbag1
(g19
g3
Ntp238
Rp239
(dp240
g23
I01
sg24
Nsg26
g34
sg28
g35
sg30
I00
sbag1
(g19
g3
Ntp241
Rp242
(dp243
g23
I01
sg24
Nsg26
g34
sg28
g35
sg30
I00
sbag1
(g19
g3
Ntp244
Rp245
(dp246
g23
I01
sg24
Nsg26
g34
sg28
g35
sg30
I00
sbag1
(g19
g3
Ntp247
Rp248
(dp249
g23
I01
sg24
Nsg26
g34
sg28
g35
sg30
I00
sbag1
(g19
g3
Ntp250
Rp251
(dp252
g23
I00
sg24
Nsg26
g66
sg28
g67
sg30
I00
sbaa(lp253
g1
(g19
g3
Ntp254
Rp255
(dp256
g23
I01
sg24
Nsg26
g34
sg28
g35
sg30
I00
sbag1
(g19
g3
Ntp257
Rp258
(dp259
g23
I01
sg24
Nsg26
g34
sg28
g35
sg30
I00
sbag1
(g19
g3
Ntp260
Rp261
(dp262
g23
I01
sg24
Nsg26
g34
sg28
g35
sg30
I00
sbag1
(g19
g3
Ntp263
Rp264
(dp265
g23
I01
sg24
Nsg26
g34
sg28
g35
sg30
I00
sbag1
(g19
g3
Ntp266
Rp267
(dp268
g23
I01
sg24
Nsg26
g34
sg28
g35
sg30
I00
sbag1
(g19
g3
Ntp269
Rp270
(dp271
g23
I01
sg24
Nsg26
g34
sg28
g35
sg30
I00
sbag1
(g19
g3
Ntp272
Rp273
(dp274
g23
I01
sg24
Nsg26
g34
sg28
g35
sg30
I00
sbag1
(g19
g3
Ntp275
Rp276
(dp277
g23
I01
sg24
Nsg26
g34
sg28
g35
sg30
I00
sbag1
(g19
g3
Ntp278
Rp279
(dp280
g23
I00
sg24
g25
sg26
g27
sg28
g29
sg30
I01
sbag1
(g19
g3
Ntp281
Rp282
(dp283
g23
I01
sg24
Nsg26
g34
sg28
g35
sg30
I00
sbag1
(g19
g3
Ntp284
Rp285
(dp286
g23
I00
sg24
g25
sg26
g27
sg28
g29
sg30
I01
sbag1
(g19
g3
Ntp287
Rp288
(dp289
g23
I00
sg24
Nsg26
g66
sg28
g67
sg30
I00
sbaa(lp290
g1
(g19
g3
Ntp291
Rp292
(dp293
g23
I00
sg24
g25
sg26
g27
sg28
g29
sg30
I01
sbag1
(g19
g3
Ntp294
Rp295
(dp296
g23
I01
sg24
Nsg26
g34
sg28
g35
sg30
I00
sbag1
(g19
g3
Ntp297
Rp298
(dp299
g23
I00
sg24
g25
sg26
g27
sg28
g29
sg30
I01
sbag1
(g19
g3
Ntp300
Rp301
(dp302
g23
I01
sg24
Nsg26
g34
sg28
g35
sg30
I00
sbag1
(g19
g3
Ntp303
Rp304
(dp305
g23
I01
sg24
Nsg26
g34
sg28
g35
sg30
I00
sbag1
(g19
g3
Ntp306
Rp307
(dp308
g23
I00
sg24
g25
sg26
g27
sg28
g29
sg30
I01
sbag1
(g19
g3
Ntp309
Rp310
(dp311
g23
I01
sg24
Nsg26
g34
sg28
g35
sg30
I00
sbag1
(g19
g3
Ntp312
Rp313
(dp314
g23
I01
sg24
Nsg26
g34
sg28
g35
sg30
I00
sbag1
(g19
g3
Ntp315
Rp316
(dp317
g23
I01
sg24
Nsg26
g34
sg28
g35
sg30
I00
sbag1
(g19
g3
Ntp318
Rp319
(dp320
g23
I01
sg24
Nsg26
g34
sg28
g35
sg30
I00
sbag1
(g19
g3
Ntp321
Rp322
(dp323
g23
I01
sg24
Nsg26
g34
sg28
g35
sg30
I00
sbag1
(g19
g3
Ntp324
Rp325
(dp326
g23
I00
sg24
Nsg26
g66
sg28
g67
sg30
I00
sbaa(lp327
g1
(g19
g3
Ntp328
Rp329
(dp330
g23
I01
sg24
Nsg26
g34
sg28
g35
sg30
I00
sbag1
(g19
g3
Ntp331
Rp332
(dp333
g23
I01
sg24
Nsg26
g34
sg28
g35
sg30
I00
sbag1
(g19
g3
Ntp334
Rp335
(dp336
g23
I01
sg24
Nsg26
g34
sg28
g35
sg30
I00
sbag1
(g19
g3
Ntp337
Rp338
(dp339
g23
I01
sg24
Nsg26
g34
sg28
g35
sg30
I00
sbag1
(g19
g3
Ntp340
Rp341
(dp342
g23
I01
sg24
Nsg26
g34
sg28
g35
sg30
I00
sbag1
(g19
g3
Ntp343
Rp344
(dp345
g23
I00
sg24
g25
sg26
g27
sg28
g29
sg30
I01
sbag1
(g19
g3
Ntp346
Rp347
(dp348
g23
I00
sg24
g25
sg26
g27
sg28
g29
sg30
I01
sbag1
(g19
g3
Ntp349
Rp350
(dp351
g23
I01
sg24
Nsg26
g34
sg28
g35
sg30
I00
sbag1
(g19
g3
Ntp352
Rp353
(dp354
g23
I00
sg24
g25
sg26
g27
sg28
g29
sg30
I01
sbag1
(g19
g3
Ntp355
Rp356
(dp357
g23
I01
sg24
Nsg26
g34
sg28
g35
sg30
I00
sbag1
(g19
g3
Ntp358
Rp359
(dp360
g23
I01
sg24
Nsg26
g34
sg28
g35
sg30
I00
sbag1
(g19
g3
Ntp361
Rp362
(dp363
g23
I00
sg24
Nsg26
g66
sg28
g67
sg30
I00
sbaa(lp364
g1
(g19
g3
Ntp365
Rp366
(dp367
g23
I00
sg24
g25
sg26
g27
sg28
g29
sg30
I01
sbag1
(g19
g3
Ntp368
Rp369
(dp370
g23
I01
sg24
Nsg26
g34
sg28
g35
sg30
I00
sbag1
(g19
g3
Ntp371
Rp372
(dp373
g23
I00
sg24
g25
sg26
g27
sg28
g29
sg30
I01
sbag1
(g19
g3
Ntp374
Rp375
(dp376
g23
I01
sg24
Nsg26
g34
sg28
g35
sg30
I00
sbag1
(g19
g3
Ntp377
Rp378
(dp379
g23
I01
sg24
Nsg26
g34
sg28
g35
sg30
I00
sbag1
(g19
g3
Ntp380
Rp381
(dp382
g23
I01
sg24
Nsg26
g34
sg28
g35
sg30
I00
sbag1
(g19
g3
Ntp383
Rp384
(dp385
g23
I01
sg24
Nsg26
g34
sg28
g35
sg30
I00
sbag1
(g19
g3
Ntp386
Rp387
(dp388
g23
I01
sg24
Nsg26
g34
sg28
g35
sg30
I00
sbag1
(g19
g3
Ntp389
Rp390
(dp391
g23
I01
sg24
Nsg26
g34
sg28
g35
sg30
I00
sbag1
(g19
g3
Ntp392
Rp393
(dp394
g23
I01
sg24
Nsg26
g34
sg28
g35
sg30
I00
sbag1
(g19
g3
Ntp395
Rp396
(dp397
g23
I01
sg24
Nsg26
g34
sg28
g35
sg30
I00
sbag1
(g19
g3
Ntp398
Rp399
(dp400
g23
I00
sg24
Nsg26
g66
sg28
g67
sg30
I00
sbaa(lp401
g1
(g19
g3
Ntp402
Rp403
(dp404
g23
I01
sg24
Nsg26
g34
sg28
g35
sg30
I00
sbag1
(g19
g3
Ntp405
Rp406
(dp407
g23
I01
sg24
Nsg26
g34
sg28
g35
sg30
I00
sbag1
(g19
g3
Ntp408
Rp409
(dp410
g23
I01
sg24
Nsg26
g34
sg28
g35
sg30
I00
sbag1
(g19
g3
Ntp411
Rp412
(dp413
g23
I01
sg24
Nsg26
g34
sg28
g35
sg30
I00
sbag1
(g19
g3
Ntp414
Rp415
(dp416
g23
I00
sg24
g25
sg26
g27
sg28
g29
sg30
I01
sbag1
(g19
g3
Ntp417
Rp418
(dp419
g23
I01
sg24
Nsg26
g34
sg28
g35
sg30
I00
sbag1
(g19
g3
Ntp420
Rp421
(dp422
g23
I00
sg24
g25
sg26
g27
sg28
g29
sg30
I01
sbag1
(g19
g3
Ntp423
Rp424
(dp425
g23
I01
sg24
Nsg26
g34
sg28
g35
sg30
I00
sbag1
(g19
g3
Ntp426
Rp427
(dp428
g23
I00
sg24
g25
sg26
g27
sg28
g29
sg30
I01
sbag1
(g19
g3
Ntp429
Rp430
(dp431
g23
I01
sg24
Nsg26
g34
sg28
g35
sg30
I00
sbag1
(g19
g3
Ntp432
Rp433
(dp434
g23
I00
sg24
g25
sg26
g27
sg28
g29
sg30
I01
sbag1
(g19
g3
Ntp435
Rp436
(dp437
g23
I00
sg24
Nsg26
g66
sg28
g67
sg30
I00
sbaa(lp438
g1
(g19
g3
Ntp439
Rp440
(dp441
g23
I00
sg24
Nsg26
g66
sg28
g67
sg30
I00
sbag1
(g19
g3
Ntp442
Rp443
(dp444
g23
I00
sg24
Nsg26
g66
sg28
g67
sg30
I00
sbag1
(g19
g3
Ntp445
Rp446
(dp447
g23
I00
sg24
Nsg26
g66
sg28
g67
sg30
I00
sbag1
(g19
g3
Ntp448
Rp449
(dp450
g23
I00
sg24
Nsg26
g66
sg28
g67
sg30
I00
sbag1
(g19
g3
Ntp451
Rp452
(dp453
g23
I00
sg24
Nsg26
g66
sg28
g67
sg30
I00
sbag1
(g19
g3
Ntp454
Rp455
(dp456
g23
I00
sg24
Nsg26
g66
sg28
g67
sg30
I00
sbag1
(g19
g3
Ntp457
Rp458
(dp459
g23
I00
sg24
Nsg26
g66
sg28
g67
sg30
I00
sbag1
(g19
g3
Ntp460
Rp461
(dp462
g23
I00
sg24
Nsg26
g66
sg28
g67
sg30
I00
sbag1
(g19
g3
Ntp463
Rp464
(dp465
g23
I00
sg24
Nsg26
g66
sg28
g67
sg30
I00
sbag1
(g19
g3
Ntp466
Rp467
(dp468
g23
I00
sg24
Nsg26
g66
sg28
g67
sg30
I00
sbag1
(g19
g3
Ntp469
Rp470
(dp471
g23
I00
sg24
Nsg26
g66
sg28
g67
sg30
I00
sbag1
(g19
g3
Ntp472
Rp473
(dp474
g23
I00
sg24
Nsg26
g66
sg28
g67
sg30
I00
sbaasS'location'
p475
(I0
I1
tp476
sbs(I-1
I1
tp477
g1
(g12
g3
Ntp478
Rp479
(dp480
g16
(lp481
(lp482
g1
(g19
g3
Ntp483
Rp484
(dp485
g23
I01
sg24
Nsg26
g34
sg28
g35
sg30
I00
sbag1
(g19
g3
Ntp486
Rp487
(dp488
g23
I01
sg24
Nsg26
g34
sg28
g35
sg30
I00
sbag1
(g19
g3
Ntp489
Rp490
(dp491
g23
I01
sg24
Nsg26
g34
sg28
g35
sg30
I00
sbag1
(g19
g3
Ntp492
Rp493
(dp494
g23
I01
sg24
Nsg26
g34
sg28
g35
sg30
I00
sbag1
(g19
g3
Ntp495
Rp496
(dp497
g23
I01
sg24
Nsg26
g34
sg28
g35
sg30
I00
sbag1
(g19
g3
Ntp498
Rp499
(dp500
g23
I00
sg24
g25
sg26
g27
sg28
g29
sg30
I01
sbag1
(g19
g3
Ntp501
Rp502
(dp503
g23
I01
sg24
Nsg26
g34
sg28
g35
sg30
I00
sbag1
(g19
g3
Ntp504
Rp505
(dp506
g23
I00
sg24
g25
sg26
g27
sg28
g29
sg30
I01
sbag1
(g19
g3
Ntp507
Rp508
(dp509
g23
I01
sg24
Nsg26
g34
sg28
g35
sg30
I00
sbag1
(g19
g3
Ntp510
Rp511
(dp512
g23
I00
sg24
g25
sg26
g27
sg28
g29
sg30
I01
sbag1
(g19
g3
Ntp513
Rp514
(dp515
g23
I01
sg24
Nsg26
g34
sg28
g35
sg30
I00
sbag1
(g19
g3
Ntp516
Rp517
(dp518
g23
I00
sg24
Nsg26
g66
sg28
g67
sg30
I00
sbaa(lp519
g1
(g19
g3
Ntp520
Rp521
(dp522
g23
I00
sg24
g25
sg26
g27
sg28
g29
sg30
I01
sbag1
(g19
g3
Ntp523
Rp524
(dp525
g23
I01
sg24
Nsg26
g34
sg28
g35
sg30
I00
sbag1
(g19
g3
Ntp526
Rp527
(dp528
g23
I00
sg24
g25
sg26
g27
sg28
g29
sg30
I01
sbag1
(g19
g3
Ntp529
Rp530
(dp531
g23
I01
sg24
Nsg26
g34
sg28
g35
sg30
I00
sbag1
(g19
g3
Ntp532
Rp533
(dp534
g23
I01
sg24
Nsg26
g34
sg28
g35
sg30
I00
sbag1
(g19
g3
Ntp535
Rp536
(dp537
g23
I01
sg24
Nsg26
g34
sg28
g35
sg30
I00
sbag1
(g19
g3
Ntp538
Rp539
(dp540
g23
I01
sg24
Nsg26
g34
sg28
g35
sg30
I00
sbag1
(g19
g3
Ntp541
Rp542
(dp543
g23
I01
sg24
Nsg26
g34
sg28
g35
sg30
I00
sbag1
(g19
g3
Ntp544
Rp545
(dp546
g23
I01
sg24
Nsg26
g34
sg28
g35
sg30
I00
sbag1
(g19
g3
Ntp547
Rp548
(dp549
g23
I01
sg24
Nsg26
g34
sg28
g35
sg30
I00
sbag1
(g19
g3
Ntp550
Rp551
(dp552
g23
I01
sg24
Nsg26
g34
sg28
g35
sg30
I00
sbag1
(g19
g3
Ntp553
Rp554
(dp555
g23
I00
sg24
Nsg26
g66
sg28
g67
sg30
I00
sbaa(lp556
g1
(g19
g3
Ntp557
Rp558
(dp559
g23
I01
sg24
Nsg26
g34
sg28
g35
sg30
I00
sbag1
(g19
g3
Ntp560
Rp561
(dp562
g23
I01
sg24
Nsg26
g34
sg28
g35
sg30
I00
sbag1
(g19
g3
Ntp563
Rp564
(dp565
g23
I01
sg24
Nsg26
g34
sg28
g35
sg30
I00
sbag1
(g19
g3
Ntp566
Rp567
(dp568
g23
I01
sg24
Nsg26
g34
sg28
g35
sg30
I00
sbag1
(g19
g3
Ntp569
Rp570
(dp571
g23
I01
sg24
Nsg26
g34
sg28
g35
sg30
I00
sbag1
(g19
g3
Ntp572
Rp573
(dp574
g23
I01
sg24
Nsg26
g34
sg28
g35
sg30
I00
sbag1
(g19
g3
Ntp575
Rp576
(dp577
g23
I00
sg24
g25
sg26
g27
sg28
g29
sg30
I01
sbag1
(g19
g3
Ntp578
Rp579
(dp580
g23
I01
sg24
Nsg26
g34
sg28
g35
sg30
I00
sbag1
(g19
g3
Ntp581
Rp582
(dp583
g23
I01
sg24
Nsg26
g34
sg28
g35
sg30
I00
sbag1
(g19
g3
Ntp584
Rp585
(dp586
g23
I00
sg24
g25
sg26
g27
sg28
g29
sg30
I01
sbag1
(g19
g3
Ntp587
Rp588
(dp589
g23
I01
sg24
Nsg26
g34
sg28
g35
sg30
I00
sbag1
(g19
g3
Ntp590
Rp591
(dp592
g23
I00
sg24
Nsg26
g66
sg28
g67
sg30
I00
sbaa(lp593
g1
(g19
g3
Ntp594
Rp595
(dp596
g23
I01
sg24
Nsg26
g34
sg28
g35
sg30
I00
sbag1
(g19
g3
Ntp597
Rp598
(dp599
g23
I00
sg24
g25
sg26
g27
sg28
g29
sg30
I01
sbag1
(g19
g3
Ntp600
Rp601
(dp602
g23
I01
sg24
Nsg26
g34
sg28
g35
sg30
I00
sbag1
(g19
g3
Ntp603
Rp604
(dp605
g23
I01
sg24
Nsg26
g34
sg28
g35
sg30
I00
sbag1
(g19
g3
Ntp606
Rp607
(dp608
g23
I01
sg24
Nsg26
g34
sg28
g35
sg30
I00
sbag1
(g19
g3
Ntp609
Rp610
(dp611
g23
I01
sg24
Nsg26
g34
sg28
g35
sg30
I00
sbag1
(g19
g3
Ntp612
Rp613
(dp614
g23
I00
sg24
g25
sg26
g27
sg28
g29
sg30
I01
sbag1
(g19
g3
Ntp615
Rp616
(dp617
g23
I01
sg24
Nsg26
g34
sg28
g35
sg30
I00
sbag1
(g19
g3
Ntp618
Rp619
(dp620
g23
I01
sg24
Nsg26
g34
sg28
g35
sg30
I00
sbag1
(g19
g3
Ntp621
Rp622
(dp623
g23
I01
sg24
Nsg26
g34
sg28
g35
sg30
I00
sbag1
(g19
g3
Ntp624
Rp625
(dp626
g23
I01
sg24
Nsg26
g34
sg28
g35
sg30
I00
sbag1
(g19
g3
Ntp627
Rp628
(dp629
g23
I00
sg24
Nsg26
g66
sg28
g67
sg30
I00
sbaa(lp630
g1
(g19
g3
Ntp631
Rp632
(dp633
g23
I01
sg24
Nsg26
g34
sg28
g35
sg30
I00
sbag1
(g19
g3
Ntp634
Rp635
(dp636
g23
I01
sg24
Nsg26
g34
sg28
g35
sg30
I00
sbag1
(g19
g3
Ntp637
Rp638
(dp639
g23
I01
sg24
Nsg26
g34
sg28
g35
sg30
I00
sbag1
(g19
g3
Ntp640
Rp641
(dp642
g23
I00
sg24
g25
sg26
g27
sg28
g29
sg30
I01
sbag1
(g19
g3
Ntp643
Rp644
(dp645
g23
I01
sg24
Nsg26
g34
sg28
g35
sg30
I00
sbag1
(g19
g3
Ntp646
Rp647
(dp648
g23
I01
sg24
Nsg26
g34
sg28
g35
sg30
I00
sbag1
(g19
g3
Ntp649
Rp650
(dp651
g23
I01
sg24
Nsg26
g34
sg28
g35
sg30
I00
sbag1
(g19
g3
Ntp652
Rp653
(dp654
g23
I01
sg24
Nsg26
g34
sg28
g35
sg30
I00
sbag1
(g19
g3
Ntp655
Rp656
(dp657
g23
I00
sg24
g25
sg26
g27
sg28
g29
sg30
I01
sbag1
(g19
g3
Ntp658
Rp659
(dp660
g23
I01
sg24
Nsg26
g34
sg28
g35
sg30
I00
sbag1
(g19
g3
Ntp661
Rp662
(dp663
g23
I01
sg24
Nsg26
g34
sg28
g35
sg30
I00
sbag1
(g19
g3
Ntp664
Rp665
(dp666
g23
I00
sg24
Nsg26
g66
sg28
g67
sg30
I00
sbaa(lp667
g1
(g19
g3
Ntp668
Rp669
(dp670
g23
I00
sg24
g25
sg26
g27
sg28
g29
sg30
I01
sbag1
(g19
g3
Ntp671
Rp672
(dp673
g23
I01
sg24
Nsg26
g34
sg28
g35
sg30
I00
sbag1
(g19
g3
Ntp674
Rp675
(dp676
g23
I01
sg24
Nsg26
g34
sg28
g35
sg30
I00
sbag1
(g19
g3
Ntp677
Rp678
(dp679
g23
I01
sg24
Nsg26
g34
sg28
g35
sg30
I00
sbag1
(g19
g3
Ntp680
Rp681
(dp682
g23
I01
sg24
Nsg26
g34
sg28
g35
sg30
I00
sbag1
(g19
g3
Ntp683
Rp684
(dp685
g23
I01
sg24
Nsg26
g34
sg28
g35
sg30
I00
sbag1
(g19
g3
Ntp686
Rp687
(dp688
g23
I01
sg24
Nsg26
g34
sg28
g35
sg30
I00
sbag1
(g19
g3
Ntp689
Rp690
(dp691
g23
I01
sg24
Nsg26
g34
sg28
g35
sg30
I00
sbag1
(g19
g3
Ntp692
Rp693
(dp694
g23
I01
sg24
Nsg26
g34
sg28
g35
sg30
I00
sbag1
(g19
g3
Ntp695
Rp696
(dp697
g23
I01
sg24
Nsg26
g34
sg28
g35
sg30
I00
sbag1
(g19
g3
Ntp698
Rp699
(dp700
g23
I01
sg24
Nsg26
g34
sg28
g35
sg30
I00
sbag1
(g19
g3
Ntp701
Rp702
(dp703
g23
I00
sg24
Nsg26
g66
sg28
g67
sg30
I00
sbaa(lp704
g1
(g19
g3
Ntp705
Rp706
(dp707
g23
I01
sg24
Nsg26
g34
sg28
g35
sg30
I00
sbag1
(g19
g3
Ntp708
Rp709
(dp710
g23
I01
sg24
Nsg26
g34
sg28
g35
sg30
I00
sbag1
(g19
g3
Ntp711
Rp712
(dp713
g23
I01
sg24
Nsg26
g34
sg28
g35
sg30
I00
sbag1
(g19
g3
Ntp714
Rp715
(dp716
g23
I01
sg24
Nsg26
g34
sg28
g35
sg30
I00
sbag1
(g19
g3
Ntp717
Rp718
(dp719
g23
I01
sg24
Nsg26
g34
sg28
g35
sg30
I00
sbag1
(g19
g3
Ntp720
Rp721
(dp722
g23
I01
sg24
Nsg26
g34
sg28
g35
sg30
I00
sbag1
(g19
g3
Ntp723
Rp724
(dp725
g23
I01
sg24
Nsg26
g34
sg28
g35
sg30
I00
sbag1
(g19
g3
Ntp726
Rp727
(dp728
g23
I00
sg24
g25
sg26
g27
sg28
g29
sg30
I01
sbag1
(g19
g3
Ntp729
Rp730
(dp731
g23
I01
sg24
Nsg26
g34
sg28
g35
sg30
I00
sbag1
(g19
g3
Ntp732
Rp733
(dp734
g23
I01
sg24
Nsg26
g34
sg28
g35
sg30
I00
sbag1
(g19
g3
Ntp735
Rp736
(dp737
g23
I00
sg24
g25
sg26
g27
sg28
g29
sg30
I01
sbag1
(g19
g3
Ntp738
Rp739
(dp740
g23
I00
sg24
Nsg26
g66
sg28
g67
sg30
I00
sbaa(lp741
g1
(g19
g3
Ntp742
Rp743
(dp744
g23
I01
sg24
Nsg26
g34
sg28
g35
sg30
I00
sbag1
(g19
g3
Ntp745
Rp746
(dp747
g23
I00
sg24
g25
sg26
g27
sg28
g29
sg30
I01
sbag1
(g19
g3
Ntp748
Rp749
(dp750
g23
I01
sg24
Nsg26
g34
sg28
g35
sg30
I00
sbag1
(g19
g3
Ntp751
Rp752
(dp753
g23
I01
sg24
Nsg26
g34
sg28
g35
sg30
I00
sbag1
(g19
g3
Ntp754
Rp755
(dp756
g23
I01
sg24
Nsg26
g34
sg28
g35
sg30
I00
sbag1
(g19
g3
Ntp757
Rp758
(dp759
g23
I01
sg24
Nsg26
g34
sg28
g35
sg30
I00
sbag1
(g19
g3
Ntp760
Rp761
(dp762
g23
I01
sg24
Nsg26
g34
sg28
g35
sg30
I00
sbag1
(g19
g3
Ntp763
Rp764
(dp765
g23
I01
sg24
Nsg26
g34
sg28
g35
sg30
I00
sbag1
(g19
g3
Ntp766
Rp767
(dp768
g23
I01
sg24
Nsg26
g34
sg28
g35
sg30
I00
sbag1
(g19
g3
Ntp769
Rp770
(dp771
g23
I01
sg24
Nsg26
g34
sg28
g35
sg30
I00
sbag1
(g19
g3
Ntp772
Rp773
(dp774
g23
I01
sg24
Nsg26
g34
sg28
g35
sg30
I00
sbag1
(g19
g3
Ntp775
Rp776
(dp777
g23
I00
sg24
Nsg26
g66
sg28
g67
sg30
I00
sbaa(lp778
g1
(g19
g3
Ntp779
Rp780
(dp781
g23
I01
sg24
Nsg26
g34
sg28
g35
sg30
I00
sbag1
(g19
g3
Ntp782
Rp783
(dp784
g23
I01
sg24
Nsg26
g34
sg28
g35
sg30
I00
sbag1
(g19
g3
Ntp785
Rp786
(dp787
g23
I01
sg24
Nsg26
g34
sg28
g35
sg30
I00
sbag1
(g19
g3
Ntp788
Rp789
(dp790
g23
I00
sg24
g25
sg26
g27
sg28
g29
sg30
I01
sbag1
(g19
g3
Ntp791
Rp792
(dp793
g23
I01
sg24
Nsg26
g34
sg28
g35
sg30
I00
sbag1
(g19
g3
Ntp794
Rp795
(dp796
g23
I01
sg24
Nsg26
g34
sg28
g35
sg30
I00
sbag1
(g19
g3
Ntp797
Rp798
(dp799
g23
I00
sg24
g25
sg26
g27
sg28
g29
sg30
I01
sbag1
(g19
g3
Ntp800
Rp801
(dp802
g23
I01
sg24
Nsg26
g34
sg28
g35
sg30
I00
sbag1
(g19
g3
Ntp803
Rp804
(dp805
g23
I01
sg24
Nsg26
g34
sg28
g35
sg30
I00
sbag1
(g19
g3
Ntp806
Rp807
(dp808
g23
I00
sg24
g25
sg26
g27
sg28
g29
sg30
I01
sbag1
(g19
g3
Ntp809
Rp810
(dp811
g23
I01
sg24
Nsg26
g34
sg28
g35
sg30
I00
sbag1
(g19
g3
Ntp812
Rp813
(dp814
g23
I00
sg24
Nsg26
g66
sg28
g67
sg30
I00
sbaa(lp815
g1
(g19
g3
Ntp816
Rp817
(dp818
g23
I01
sg24
Nsg26
g34
sg28
g35
sg30
I00
sbag1
(g19
g3
Ntp819
Rp820
(dp821
g23
I01
sg24
Nsg26
g34
sg28
g35
sg30
I00
sbag1
(g19
g3
Ntp822
Rp823
(dp824
g23
I01
sg24
Nsg26
g34
sg28
g35
sg30
I00
sbag1
(g19
g3
Ntp825
Rp826
(dp827
g23
I01
sg24
Nsg26
g34
sg28
g35
sg30
I00
sbag1
(g19
g3
Ntp828
Rp829
(dp830
g23
I01
sg24
Nsg26
g34
sg28
g35
sg30
I00
sbag1
(g19
g3
Ntp831
Rp832
(dp833
g23
I01
sg24
Nsg26
g34
sg28
g35
sg30
I00
sbag1
(g19
g3
Ntp834
Rp835
(dp836
g23
I01
sg24
Nsg26
g34
sg28
g35
sg30
I00
sbag1
(g19
g3
Ntp837
Rp838
(dp839
g23
I01
sg24
Nsg26
g34
sg28
g35
sg30
I00
sbag1
(g19
g3
Ntp840
Rp841
(dp842
g23
I01
sg24
Nsg26
g34
sg28
g35
sg30
I00
sbag1
(g19
g3
Ntp843
Rp844
(dp845
g23
I01
sg24
Nsg26
g34
sg28
g35
sg30
I00
sbag1
(g19
g3
Ntp846
Rp847
(dp848
g23
I01
sg24
Nsg26
g34
sg28
g35
sg30
I00
sbag1
(g19
g3
Ntp849
Rp850
(dp851
g23
I00
sg24
Nsg26
g66
sg28
g67
sg30
I00
sbaa(lp852
g1
(g19
g3
Ntp853
Rp854
(dp855
g23
I00
sg24
g25
sg26
g27
sg28
g29
sg30
I01
sbag1
(g19
g3
Ntp856
Rp857
(dp858
g23
I01
sg24
Nsg26
g34
sg28
g35
sg30
I00
sbag1
(g19
g3
Ntp859
Rp860
(dp861
g23
I01
sg24
Nsg26
g34
sg28
g35
sg30
I00
sbag1
(g19
g3
Ntp862
Rp863
(dp864
g23
I01
sg24
Nsg26
g34
sg28
g35
sg30
I00
sbag1
(g19
g3
Ntp865
Rp866
(dp867
g23
I01
sg24
Nsg26
g34
sg28
g35
sg30
I00
sbag1
(g19
g3
Ntp868
Rp869
(dp870
g23
I01
sg24
Nsg26
g34
sg28
g35
sg30
I00
sbag1
(g19
g3
Ntp871
Rp872
(dp873
g23
I01
sg24
Nsg26
g34
sg28
g35
sg30
I00
sbag1
(g19
g3
Ntp874
Rp875
(dp876
g23
I00
sg24
g25
sg26
g27
sg28
g29
sg30
I01
sbag1
(g19
g3
Ntp877
Rp878
(dp879
g23
I01
sg24
Nsg26
g34
sg28
g35
sg30
I00
sbag1
(g19
g3
Ntp880
Rp881
(dp882
g23
I01
sg24
Nsg26
g34
sg28
g35
sg30
I00
sbag1
(g19
g3
Ntp883
Rp884
(dp885
g23
I01
sg24
Nsg26
g34
sg28
g35
sg30
I00
sbag1
(g19
g3
Ntp886
Rp887
(dp888
g23
I00
sg24
Nsg26
g66
sg28
g67
sg30
I00
sbaa(lp889
g1
(g19
g3
Ntp890
Rp891
(dp892
g23
I00
sg24
Nsg26
g66
sg28
g67
sg30
I00
sbag1
(g19
g3
Ntp893
Rp894
(dp895
g23
I00
sg24
Nsg26
g66
sg28
g67
sg30
I00
sbag1
(g19
g3
Ntp896
Rp897
(dp898
g23
I00
sg24
Nsg26
g66
sg28
g67
sg30
I00
sbag1
(g19
g3
Ntp899
Rp900
(dp901
g23
I00
sg24
Nsg26
g66
sg28
g67
sg30
I00
sbag1
(g19
g3
Ntp902
Rp903
(dp904
g23
I00
sg24
Nsg26
g66
sg28
g67
sg30
I00
sbag1
(g19
g3
Ntp905
Rp906
(dp907
g23
I00
sg24
Nsg26
g66
sg28
g67
sg30
I00
sbag1
(g19
g3
Ntp908
Rp909
(dp910
g23
I00
sg24
Nsg26
g66
sg28
g67
sg30
I00
sbag1
(g19
g3
Ntp911
Rp912
(dp913
g23
I00
sg24
Nsg26
g66
sg28
g67
sg30
I00
sbag1
(g19
g3
Ntp914
Rp915
(dp916
g23
I00
sg24
Nsg26
g66
sg28
g67
sg30
I00
sbag1
(g19
g3
Ntp917
Rp918
(dp919
g23
I00
sg24
Nsg26
g66
sg28
g67
sg30
I00
sbag1
(g19
g3
Ntp920
Rp921
(dp922
g23
I00
sg24
Nsg26
g66
sg28
g67
sg30
I00
sbag1
(g19
g3
Ntp923
Rp924
(dp925
g23
I00
sg24
Nsg26
g66
sg28
g67
sg30
I00
sbaasg475
(I-1
I1
tp926
sbs(I0
I0
tp927
g1
(g12
g3
Ntp928
Rp929
(dp930
g16
(lp931
(lp932
g1
(g19
g3
Ntp933
Rp934
(dp935
g23
I01
sg24
Nsg26
S'dirt.png'
p936
sg28
S'dirt'
p937
sg30
I00
sbag1
(g19
g3
Ntp938
Rp939
(dp940
g23
I01
sg24
Nsg26
g34
sg28
g35
sg30
I00
sbag1
(g19
g3
Ntp941
Rp942
(dp943
g23
I01
sg24
Nsg26
g936
sg28
g937
sg30
I00
sbag1
(g19
g3
Ntp944
Rp945
(dp946
g23
I01
sg24
Nsg26
g34
sg28
g35
sg30
I00
sbag1
(g19
g3
Ntp947
Rp948
(dp949
g23
I00
sg24
g25
sg26
g27
sg28
g29
sg30
I01
sbag1
(g19
g3
Ntp950
Rp951
(dp952
g23
I01
sg24
Nsg26
g34
sg28
g35
sg30
I00
sbag1
(g19
g3
Ntp953
Rp954
(dp955
g23
I01
sg24
Nsg26
g34
sg28
g35
sg30
I00
sbag1
(g19
g3
Ntp956
Rp957
(dp958
g23
I00
sg24
g25
sg26
g27
sg28
g29
sg30
I01
sbag1
(g19
g3
Ntp959
Rp960
(dp961
g23
I01
sg24
Nsg26
g34
sg28
g35
sg30
I00
sbag1
(g19
g3
Ntp962
Rp963
(dp964
g23
I01
sg24
Nsg26
g34
sg28
g35
sg30
I00
sbag1
(g19
g3
Ntp965
Rp966
(dp967
g23
I01
sg24
Nsg26
g34
sg28
g35
sg30
I00
sbag1
(g19
g3
Ntp968
Rp969
(dp970
g23
I00
sg24
Nsg26
g66
sg28
g67
sg30
I00
sbaa(lp971
g1
(g19
g3
Ntp972
Rp973
(dp974
g23
I01
sg24
Nsg26
g34
sg28
g35
sg30
I00
sbag1
(g19
g3
Ntp975
Rp976
(dp977
g23
I01
sg24
Nsg26
g34
sg28
g35
sg30
I00
sbag1
(g19
g3
Ntp978
Rp979
(dp980
g23
I01
sg24
Nsg26
g34
sg28
g35
sg30
I00
sbag1
(g19
g3
Ntp981
Rp982
(dp983
g23
I01
sg24
Nsg26
g34
sg28
g35
sg30
I00
sbag1
(g19
g3
Ntp984
Rp985
(dp986
g23
I01
sg24
Nsg26
g34
sg28
g35
sg30
I00
sbag1
(g19
g3
Ntp987
Rp988
(dp989
g23
I01
sg24
Nsg26
g34
sg28
g35
sg30
I00
sbag1
(g19
g3
Ntp990
Rp991
(dp992
g23
I00
sg24
Nsg26
S'water.png'
p993
sg28
S'water'
p994
sg30
I00
sbag1
(g19
g3
Ntp995
Rp996
(dp997
g23
I00
sg24
Nsg26
g993
sg28
g994
sg30
I00
sbag1
(g19
g3
Ntp998
Rp999
(dp1000
g23
I00
sg24
Nsg26
g993
sg28
g994
sg30
I00
sbag1
(g19
g3
Ntp1001
Rp1002
(dp1003
g23
I01
sg24
Nsg26
g34
sg28
g35
sg30
I00
sbag1
(g19
g3
Ntp1004
Rp1005
(dp1006
g23
I00
sg24
g25
sg26
g27
sg28
g29
sg30
I01
sbag1
(g19
g3
Ntp1007
Rp1008
(dp1009
g23
I00
sg24
Nsg26
g66
sg28
g67
sg30
I00
sbaa(lp1010
g1
(g19
g3
Ntp1011
Rp1012
(dp1013
g23
I01
sg24
Nsg26
g34
sg28
g35
sg30
I00
sbag1
(g19
g3
Ntp1014
Rp1015
(dp1016
g23
I01
sg24
Nsg26
g936
sg28
g937
sg30
I00
sbag1
(g19
g3
Ntp1017
Rp1018
(dp1019
g23
I01
sg24
Nsg26
g34
sg28
g35
sg30
I00
sbag1
(g19
g3
Ntp1020
Rp1021
(dp1022
g23
I01
sg24
Nsg26
g34
sg28
g35
sg30
I00
sbag1
(g19
g3
Ntp1023
Rp1024
(dp1025
g23
I01
sg24
Nsg26
g34
sg28
g35
sg30
I00
sbag1
(g19
g3
Ntp1026
Rp1027
(dp1028
g23
I01
sg24
Nsg26
g34
sg28
g35
sg30
I00
sbag1
(g19
g3
Ntp1029
Rp1030
(dp1031
g23
I00
sg24
Nsg26
g993
sg28
g994
sg30
I00
sbag1
(g19
g3
Ntp1032
Rp1033
(dp1034
g23
I01
sg24
Nsg26
g34
sg28
g35
sg30
I00
sbag1
(g19
g3
Ntp1035
Rp1036
(dp1037
g23
I00
sg24
Nsg26
g993
sg28
g994
sg30
I00
sbag1
(g19
g3
Ntp1038
Rp1039
(dp1040
g23
I00
sg24
g25
sg26
g27
sg28
g29
sg30
I01
sbag1
(g19
g3
Ntp1041
Rp1042
(dp1043
g23
I01
sg24
Nsg26
g34
sg28
g35
sg30
I00
sbag1
(g19
g3
Ntp1044
Rp1045
(dp1046
g23
I00
sg24
Nsg26
g66
sg28
g67
sg30
I00
sbaa(lp1047
g1
(g19
g3
Ntp1048
Rp1049
(dp1050
g23
I01
sg24
Nsg26
g34
sg28
g35
sg30
I00
sbag1
(g19
g3
Ntp1051
Rp1052
(dp1053
g23
I01
sg24
Nsg26
g34
sg28
g35
sg30
I00
sbag1
(g19
g3
Ntp1054
Rp1055
(dp1056
g23
I01
sg24
Nsg26
g34
sg28
g35
sg30
I00
sbag1
(g19
g3
Ntp1057
Rp1058
(dp1059
g23
I01
sg24
Nsg26
g34
sg28
g35
sg30
I00
sbag1
(g19
g3
Ntp1060
Rp1061
(dp1062
g23
I01
sg24
Nsg26
g936
sg28
g937
sg30
I00
sbag1
(g19
g3
Ntp1063
Rp1064
(dp1065
g23
I01
sg24
Nsg26
g34
sg28
g35
sg30
I00
sbag1
(g19
g3
Ntp1066
Rp1067
(dp1068
g23
I01
sg24
Nsg26
g34
sg28
g35
sg30
I00
sbag1
(g19
g3
Ntp1069
Rp1070
(dp1071
g23
I01
sg24
Nsg26
g936
sg28
g937
sg30
I00
sbag1
(g19
g3
Ntp1072
Rp1073
(dp1074
g23
I01
sg24
Nsg26
g34
sg28
g35
sg30
I00
sbag1
(g19
g3
Ntp1075
Rp1076
(dp1077
g23
I00
sg24
Nsg26
g993
sg28
g994
sg30
I00
sbag1
(g19
g3
Ntp1078
Rp1079
(dp1080
g23
I00
sg24
Nsg26
g993
sg28
g994
sg30
I00
sbag1
(g19
g3
Ntp1081
Rp1082
(dp1083
g23
I00
sg24
Nsg26
g66
sg28
g67
sg30
I00
sbaa(lp1084
g1
(g19
g3
Ntp1085
Rp1086
(dp1087
g23
I01
sg24
Nsg26
g34
sg28
g35
sg30
I00
sbag1
(g19
g3
Ntp1088
Rp1089
(dp1090
g23
I01
sg24
Nsg26
g34
sg28
g35
sg30
I00
sbag1
(g19
g3
Ntp1091
Rp1092
(dp1093
g23
I01
sg24
Nsg26
g34
sg28
g35
sg30
I00
sbag1
(g19
g3
Ntp1094
Rp1095
(dp1096
g23
I01
sg24
Nsg26
g34
sg28
g35
sg30
I00
sbag1
(g19
g3
Ntp1097
Rp1098
(dp1099
g23
I01
sg24
Nsg26
g34
sg28
g35
sg30
I00
sbag1
(g19
g3
Ntp1100
Rp1101
(dp1102
g23
I00
sg24
g25
sg26
S'wood.png'
p1103
sg28
S'wood'
p1104
sg30
I01
sbag1
(g19
g3
Ntp1105
Rp1106
(dp1107
g23
I01
sg24
Nsg26
g34
sg28
g35
sg30
I00
sbag1
(g19
g3
Ntp1108
Rp1109
(dp1110
g23
I01
sg24
Nsg26
g34
sg28
g35
sg30
I00
sbag1
(g19
g3
Ntp1111
Rp1112
(dp1113
g23
I01
sg24
Nsg26
g34
sg28
g35
sg30
I00
sbag1
(g19
g3
Ntp1114
Rp1115
(dp1116
g23
I00
sg24
Nsg26
g993
sg28
g994
sg30
I00
sbag1
(g19
g3
Ntp1117
Rp1118
(dp1119
g23
I00
sg24
Nsg26
g993
sg28
g994
sg30
I00
sbag1
(g19
g3
Ntp1120
Rp1121
(dp1122
g23
I00
sg24
Nsg26
g66
sg28
g67
sg30
I00
sbaa(lp1123
g1
(g19
g3
Ntp1124
Rp1125
(dp1126
g23
I01
sg24
Nsg26
g34
sg28
g35
sg30
I00
sbag1
(g19
g3
Ntp1127
Rp1128
(dp1129
g23
I01
sg24
Nsg26
g34
sg28
g35
sg30
I00
sbag1
(g19
g3
Ntp1130
Rp1131
(dp1132
g23
I01
sg24
Nsg26
S'dirt.png'
p1133
sg28
S'dirt'
p1134
sg30
I00
sbag1
(g19
g3
Ntp1135
Rp1136
(dp1137
g23
I01
sg24
Nsg26
g34
sg28
g35
sg30
I00
sbag1
(g19
g3
Ntp1138
Rp1139
(dp1140
g23
I01
sg24
Nsg26
g1133
sg28
g1134
sg30
I00
sbag1
(g19
g3
Ntp1141
Rp1142
(dp1143
g23
I01
sg24
Nsg26
g34
sg28
g35
sg30
I00
sbag1
(g19
g3
Ntp1144
Rp1145
(dp1146
g23
I00
sg24
g25
sg26
g1103
sg28
g1104
sg30
I01
sbag1
(g19
g3
Ntp1147
Rp1148
(dp1149
g23
I01
sg24
Nsg26
S'dirt.png'
p1150
sg28
S'dirt'
p1151
sg30
I00
sbag1
(g19
g3
Ntp1152
Rp1153
(dp1154
g23
I01
sg24
Nsg26
g34
sg28
g35
sg30
I00
sbag1
(g19
g3
Ntp1155
Rp1156
(dp1157
g23
I01
sg24
Nsg26
g34
sg28
g35
sg30
I00
sbag1
(g19
g3
Ntp1158
Rp1159
(dp1160
g23
I01
sg24
Nsg26
g34
sg28
g35
sg30
I00
sbag1
(g19
g3
Ntp1161
Rp1162
(dp1163
g23
I00
sg24
Nsg26
g66
sg28
g67
sg30
I00
sbaa(lp1164
g1
(g19
g3
Ntp1165
Rp1166
(dp1167
g23
I01
sg24
Nsg26
g34
sg28
g35
sg30
I00
sbag1
(g19
g3
Ntp1168
Rp1169
(dp1170
g23
I01
sg24
Nsg26
g34
sg28
g35
sg30
I00
sbag1
(g19
g3
Ntp1171
Rp1172
(dp1173
g23
I01
sg24
Nsg26
g34
sg28
g35
sg30
I00
sbag1
(g19
g3
Ntp1174
Rp1175
(dp1176
g23
I01
sg24
Nsg26
g34
sg28
g35
sg30
I00
sbag1
(g19
g3
Ntp1177
Rp1178
(dp1179
g23
I01
sg24
Nsg26
g34
sg28
g35
sg30
I00
sbag1
(g19
g3
Ntp1180
Rp1181
(dp1182
g23
I01
sg24
Nsg26
g34
sg28
g35
sg30
I00
sbag1
(g19
g3
Ntp1183
Rp1184
(dp1185
g23
I01
sg24
Nsg26
g34
sg28
g35
sg30
I00
sbag1
(g19
g3
Ntp1186
Rp1187
(dp1188
g23
I01
sg24
Nsg26
g34
sg28
g35
sg30
I00
sbag1
(g19
g3
Ntp1189
Rp1190
(dp1191
g23
I01
sg24
Nsg26
g34
sg28
g35
sg30
I00
sbag1
(g19
g3
Ntp1192
Rp1193
(dp1194
g23
I00
sg24
g25
sg26
g27
sg28
g29
sg30
I01
sbag1
(g19
g3
Ntp1195
Rp1196
(dp1197
g23
I01
sg24
Nsg26
g34
sg28
g35
sg30
I00
sbag1
(g19
g3
Ntp1198
Rp1199
(dp1200
g23
I00
sg24
Nsg26
g66
sg28
g67
sg30
I00
sbaa(lp1201
g1
(g19
g3
Ntp1202
Rp1203
(dp1204
g23
I00
sg24
g25
sg26
g27
sg28
g29
sg30
I01
sbag1
(g19
g3
Ntp1205
Rp1206
(dp1207
g23
I01
sg24
Nsg26
g34
sg28
g35
sg30
I00
sbag1
(g19
g3
Ntp1208
Rp1209
(dp1210
g23
I01
sg24
Nsg26
g34
sg28
g35
sg30
I00
sbag1
(g19
g3
Ntp1211
Rp1212
(dp1213
g23
I01
sg24
Nsg26
g1133
sg28
g1134
sg30
I00
sbag1
(g19
g3
Ntp1214
Rp1215
(dp1216
g23
I01
sg24
Nsg26
g34
sg28
g35
sg30
I00
sbag1
(g19
g3
Ntp1217
Rp1218
(dp1219
g23
I01
sg24
Nsg26
g1133
sg28
g1134
sg30
I00
sbag1
(g19
g3
Ntp1220
Rp1221
(dp1222
g23
I01
sg24
Nsg26
g34
sg28
g35
sg30
I00
sbag1
(g19
g3
Ntp1223
Rp1224
(dp1225
g23
I01
sg24
Nsg26
g34
sg28
g35
sg30
I00
sbag1
(g19
g3
Ntp1226
Rp1227
(dp1228
g23
I01
sg24
Nsg26
g34
sg28
g35
sg30
I00
sbag1
(g19
g3
Ntp1229
Rp1230
(dp1231
g23
I01
sg24
Nsg26
g34
sg28
g35
sg30
I00
sbag1
(g19
g3
Ntp1232
Rp1233
(dp1234
g23
I01
sg24
Nsg26
g34
sg28
g35
sg30
I00
sbag1
(g19
g3
Ntp1235
Rp1236
(dp1237
g23
I00
sg24
Nsg26
g66
sg28
g67
sg30
I00
sbaa(lp1238
g1
(g19
g3
Ntp1239
Rp1240
(dp1241
g23
I01
sg24
Nsg26
g34
sg28
g35
sg30
I00
sbag1
(g19
g3
Ntp1242
Rp1243
(dp1244
g23
I01
sg24
Nsg26
g34
sg28
g35
sg30
I00
sbag1
(g19
g3
Ntp1245
Rp1246
(dp1247
g23
I01
sg24
Nsg26
g34
sg28
g35
sg30
I00
sbag1
(g19
g3
Ntp1248
Rp1249
(dp1250
g23
I01
sg24
Nsg26
g34
sg28
g35
sg30
I00
sbag1
(g19
g3
Ntp1251
Rp1252
(dp1253
g23
I01
sg24
Nsg26
g34
sg28
g35
sg30
I00
sbag1
(g19
g3
Ntp1254
Rp1255
(dp1256
g23
I01
sg24
Nsg26
g34
sg28
g35
sg30
I00
sbag1
(g19
g3
Ntp1257
Rp1258
(dp1259
g23
I01
sg24
Nsg26
g34
sg28
g35
sg30
I00
sbag1
(g19
g3
Ntp1260
Rp1261
(dp1262
g23
I01
sg24
Nsg26
g1133
sg28
g1134
sg30
I00
sbag1
(g19
g3
Ntp1263
Rp1264
(dp1265
g23
I01
sg24
Nsg26
g34
sg28
g35
sg30
I00
sbag1
(g19
g3
Ntp1266
Rp1267
(dp1268
g23
I01
sg24
Nsg26
g34
sg28
g35
sg30
I00
sbag1
(g19
g3
Ntp1269
Rp1270
(dp1271
g23
I00
sg24
g25
sg26
g27
sg28
g29
sg30
I01
sbag1
(g19
g3
Ntp1272
Rp1273
(dp1274
g23
I00
sg24
Nsg26
g66
sg28
g67
sg30
I00
sbaa(lp1275
g1
(g19
g3
Ntp1276
Rp1277
(dp1278
g23
I00
sg24
g25
sg26
g27
sg28
g29
sg30
I01
sbag1
(g19
g3
Ntp1279
Rp1280
(dp1281
g23
I01
sg24
Nsg26
g34
sg28
g35
sg30
I00
sbag1
(g19
g3
Ntp1282
Rp1283
(dp1284
g23
I01
sg24
Nsg26
g34
sg28
g35
sg30
I00
sbag1
(g19
g3
Ntp1285
Rp1286
(dp1287
g23
I00
sg24
g25
sg26
g27
sg28
g29
sg30
I01
sbag1
(g19
g3
Ntp1288
Rp1289
(dp1290
g23
I01
sg24
Nsg26
g34
sg28
g35
sg30
I00
sbag1
(g19
g3
Ntp1291
Rp1292
(dp1293
g23
I01
sg24
Nsg26
g34
sg28
g35
sg30
I00
sbag1
(g19
g3
Ntp1294
Rp1295
(dp1296
g23
I01
sg24
Nsg26
g34
sg28
g35
sg30
I00
sbag1
(g19
g3
Ntp1297
Rp1298
(dp1299
g23
I01
sg24
Nsg26
g34
sg28
g35
sg30
I00
sbag1
(g19
g3
Ntp1300
Rp1301
(dp1302
g23
I01
sg24
Nsg26
g34
sg28
g35
sg30
I00
sbag1
(g19
g3
Ntp1303
Rp1304
(dp1305
g23
I01
sg24
Nsg26
g34
sg28
g35
sg30
I00
sbag1
(g19
g3
Ntp1306
Rp1307
(dp1308
g23
I01
sg24
Nsg26
g34
sg28
g35
sg30
I00
sbag1
(g19
g3
Ntp1309
Rp1310
(dp1311
g23
I00
sg24
Nsg26
g66
sg28
g67
sg30
I00
sbaa(lp1312
g1
(g19
g3
Ntp1313
Rp1314
(dp1315
g23
I01
sg24
Nsg26
g34
sg28
g35
sg30
I00
sbag1
(g19
g3
Ntp1316
Rp1317
(dp1318
g23
I01
sg24
Nsg26
g34
sg28
g35
sg30
I00
sbag1
(g19
g3
Ntp1319
Rp1320
(dp1321
g23
I01
sg24
Nsg26
g34
sg28
g35
sg30
I00
sbag1
(g19
g3
Ntp1322
Rp1323
(dp1324
g23
I01
sg24
Nsg26
g34
sg28
g35
sg30
I00
sbag1
(g19
g3
Ntp1325
Rp1326
(dp1327
g23
I01
sg24
Nsg26
g34
sg28
g35
sg30
I00
sbag1
(g19
g3
Ntp1328
Rp1329
(dp1330
g23
I01
sg24
Nsg26
g34
sg28
g35
sg30
I00
sbag1
(g19
g3
Ntp1331
Rp1332
(dp1333
g23
I01
sg24
Nsg26
g34
sg28
g35
sg30
I00
sbag1
(g19
g3
Ntp1334
Rp1335
(dp1336
g23
I00
sg24
g25
sg26
g27
sg28
g29
sg30
I01
sbag1
(g19
g3
Ntp1337
Rp1338
(dp1339
g23
I01
sg24
Nsg26
g34
sg28
g35
sg30
I00
sbag1
(g19
g3
Ntp1340
Rp1341
(dp1342
g23
I00
sg24
g25
sg26
g27
sg28
g29
sg30
I01
sbag1
(g19
g3
Ntp1343
Rp1344
(dp1345
g23
I01
sg24
Nsg26
g34
sg28
g35
sg30
I00
sbag1
(g19
g3
Ntp1346
Rp1347
(dp1348
g23
I00
sg24
Nsg26
g66
sg28
g67
sg30
I00
sbaa(lp1349
g1
(g19
g3
Ntp1350
Rp1351
(dp1352
g23
I00
sg24
Nsg26
g66
sg28
g67
sg30
I00
sbag1
(g19
g3
Ntp1353
Rp1354
(dp1355
g23
I00
sg24
Nsg26
g66
sg28
g67
sg30
I00
sbag1
(g19
g3
Ntp1356
Rp1357
(dp1358
g23
I00
sg24
Nsg26
g66
sg28
g67
sg30
I00
sbag1
(g19
g3
Ntp1359
Rp1360
(dp1361
g23
I00
sg24
Nsg26
g66
sg28
g67
sg30
I00
sbag1
(g19
g3
Ntp1362
Rp1363
(dp1364
g23
I00
sg24
Nsg26
g66
sg28
g67
sg30
I00
sbag1
(g19
g3
Ntp1365
Rp1366
(dp1367
g23
I00
sg24
Nsg26
g66
sg28
g67
sg30
I00
sbag1
(g19
g3
Ntp1368
Rp1369
(dp1370
g23
I00
sg24
Nsg26
g66
sg28
g67
sg30
I00
sbag1
(g19
g3
Ntp1371
Rp1372
(dp1373
g23
I00
sg24
Nsg26
g66
sg28
g67
sg30
I00
sbag1
(g19
g3
Ntp1374
Rp1375
(dp1376
g23
I00
sg24
Nsg26
g66
sg28
g67
sg30
I00
sbag1
(g19
g3
Ntp1377
Rp1378
(dp1379
g23
I00
sg24
Nsg26
g66
sg28
g67
sg30
I00
sbag1
(g19
g3
Ntp1380
Rp1381
(dp1382
g23
I00
sg24
Nsg26
g66
sg28
g67
sg30
I00
sbag1
(g19
g3
Ntp1383
Rp1384
(dp1385
g23
I00
sg24
Nsg26
g66
sg28
g67
sg30
I00
sbaasg475
(I0
I0
tp1386
sbs(I-1
I0
tp1387
g1
(g12
g3
Ntp1388
Rp1389
(dp1390
g16
(lp1391
(lp1392
g1
(g19
g3
Ntp1393
Rp1394
(dp1395
g23
I01
sg24
Nsg26
g34
sg28
g35
sg30
I00
sbag1
(g19
g3
Ntp1396
Rp1397
(dp1398
g23
I00
sg24
g25
sg26
g27
sg28
g29
sg30
I01
sbag1
(g19
g3
Ntp1399
Rp1400
(dp1401
g23
I01
sg24
Nsg26
g34
sg28
g35
sg30
I00
sbag1
(g19
g3
Ntp1402
Rp1403
(dp1404
g23
I00
sg24
g25
sg26
g27
sg28
g29
sg30
I01
sbag1
(g19
g3
Ntp1405
Rp1406
(dp1407
g23
I01
sg24
Nsg26
g34
sg28
g35
sg30
I00
sbag1
(g19
g3
Ntp1408
Rp1409
(dp1410
g23
I00
sg24
g25
sg26
g27
sg28
g29
sg30
I01
sbag1
(g19
g3
Ntp1411
Rp1412
(dp1413
g23
I01
sg24
Nsg26
g34
sg28
g35
sg30
I00
sbag1
(g19
g3
Ntp1414
Rp1415
(dp1416
g23
I01
sg24
Nsg26
g34
sg28
g35
sg30
I00
sbag1
(g19
g3
Ntp1417
Rp1418
(dp1419
g23
I01
sg24
Nsg26
g34
sg28
g35
sg30
I00
sbag1
(g19
g3
Ntp1420
Rp1421
(dp1422
g23
I01
sg24
Nsg26
g34
sg28
g35
sg30
I00
sbag1
(g19
g3
Ntp1423
Rp1424
(dp1425
g23
I00
sg24
g25
sg26
g27
sg28
g29
sg30
I01
sbag1
(g19
g3
Ntp1426
Rp1427
(dp1428
g23
I00
sg24
Nsg26
g66
sg28
g67
sg30
I00
sbaa(lp1429
g1
(g19
g3
Ntp1430
Rp1431
(dp1432
g23
I01
sg24
Nsg26
g34
sg28
g35
sg30
I00
sbag1
(g19
g3
Ntp1433
Rp1434
(dp1435
g23
I01
sg24
Nsg26
g34
sg28
g35
sg30
I00
sbag1
(g19
g3
Ntp1436
Rp1437
(dp1438
g23
I01
sg24
Nsg26
g34
sg28
g35
sg30
I00
sbag1
(g19
g3
Ntp1439
Rp1440
(dp1441
g23
I01
sg24
Nsg26
g34
sg28
g35
sg30
I00
sbag1
(g19
g3
Ntp1442
Rp1443
(dp1444
g23
I01
sg24
Nsg26
g34
sg28
g35
sg30
I00
sbag1
(g19
g3
Ntp1445
Rp1446
(dp1447
g23
I01
sg24
Nsg26
g34
sg28
g35
sg30
I00
sbag1
(g19
g3
Ntp1448
Rp1449
(dp1450
g23
I01
sg24
Nsg26
g34
sg28
g35
sg30
I00
sbag1
(g19
g3
Ntp1451
Rp1452
(dp1453
g23
I00
sg24
g25
sg26
g27
sg28
g29
sg30
I01
sbag1
(g19
g3
Ntp1454
Rp1455
(dp1456
g23
I00
sg24
g25
sg26
g27
sg28
g29
sg30
I01
sbag1
(g19
g3
Ntp1457
Rp1458
(dp1459
g23
I01
sg24
Nsg26
g34
sg28
g35
sg30
I00
sbag1
(g19
g3
Ntp1460
Rp1461
(dp1462
g23
I01
sg24
Nsg26
g34
sg28
g35
sg30
I00
sbag1
(g19
g3
Ntp1463
Rp1464
(dp1465
g23
I00
sg24
Nsg26
g66
sg28
g67
sg30
I00
sbaa(lp1466
g1
(g19
g3
Ntp1467
Rp1468
(dp1469
g23
I01
sg24
Nsg26
g34
sg28
g35
sg30
I00
sbag1
(g19
g3
Ntp1470
Rp1471
(dp1472
g23
I01
sg24
Nsg26
g34
sg28
g35
sg30
I00
sbag1
(g19
g3
Ntp1473
Rp1474
(dp1475
g23
I00
sg24
g25
sg26
g27
sg28
g29
sg30
I01
sbag1
(g19
g3
Ntp1476
Rp1477
(dp1478
g23
I01
sg24
Nsg26
g34
sg28
g35
sg30
I00
sbag1
(g19
g3
Ntp1479
Rp1480
(dp1481
g23
I01
sg24
Nsg26
g34
sg28
g35
sg30
I00
sbag1
(g19
g3
Ntp1482
Rp1483
(dp1484
g23
I01
sg24
Nsg26
g34
sg28
g35
sg30
I00
sbag1
(g19
g3
Ntp1485
Rp1486
(dp1487
g23
I01
sg24
Nsg26
g34
sg28
g35
sg30
I00
sbag1
(g19
g3
Ntp1488
Rp1489
(dp1490
g23
I01
sg24
Nsg26
g34
sg28
g35
sg30
I00
sbag1
(g19
g3
Ntp1491
Rp1492
(dp1493
g23
I00
sg24
Nsg26
g993
sg28
g994
sg30
I00
sbag1
(g19
g3
Ntp1494
Rp1495
(dp1496
g23
I00
sg24
Nsg26
g993
sg28
g994
sg30
I00
sbag1
(g19
g3
Ntp1497
Rp1498
(dp1499
g23
I01
sg24
Nsg26
g34
sg28
g35
sg30
I00
sbag1
(g19
g3
Ntp1500
Rp1501
(dp1502
g23
I00
sg24
Nsg26
g66
sg28
g67
sg30
I00
sbaa(lp1503
g1
(g19
g3
Ntp1504
Rp1505
(dp1506
g23
I00
sg24
g25
sg26
g27
sg28
g29
sg30
I01
sbag1
(g19
g3
Ntp1507
Rp1508
(dp1509
g23
I01
sg24
Nsg26
g34
sg28
g35
sg30
I00
sbag1
(g19
g3
Ntp1510
Rp1511
(dp1512
g23
I01
sg24
Nsg26
g34
sg28
g35
sg30
I00
sbag1
(g19
g3
Ntp1513
Rp1514
(dp1515
g23
I01
sg24
Nsg26
g34
sg28
g35
sg30
I00
sbag1
(g19
g3
Ntp1516
Rp1517
(dp1518
g23
I01
sg24
Nsg26
g34
sg28
g35
sg30
I00
sbag1
(g19
g3
Ntp1519
Rp1520
(dp1521
g23
I00
sg24
g25
sg26
g27
sg28
g29
sg30
I01
sbag1
(g19
g3
Ntp1522
Rp1523
(dp1524
g23
I01
sg24
Nsg26
g34
sg28
g35
sg30
I00
sbag1
(g19
g3
Ntp1525
Rp1526
(dp1527
g23
I00
sg24
Nsg26
g993
sg28
g994
sg30
I00
sbag1
(g19
g3
Ntp1528
Rp1529
(dp1530
g23
I01
sg24
Nsg26
g34
sg28
g35
sg30
I00
sbag1
(g19
g3
Ntp1531
Rp1532
(dp1533
g23
I01
sg24
Nsg26
g34
sg28
g35
sg30
I00
sbag1
(g19
g3
Ntp1534
Rp1535
(dp1536
g23
I01
sg24
Nsg26
g34
sg28
g35
sg30
I00
sbag1
(g19
g3
Ntp1537
Rp1538
(dp1539
g23
I00
sg24
Nsg26
g66
sg28
g67
sg30
I00
sbaa(lp1540
g1
(g19
g3
Ntp1541
Rp1542
(dp1543
g23
I01
sg24
Nsg26
g34
sg28
g35
sg30
I00
sbag1
(g19
g3
Ntp1544
Rp1545
(dp1546
g23
I01
sg24
Nsg26
g34
sg28
g35
sg30
I00
sbag1
(g19
g3
Ntp1547
Rp1548
(dp1549
g23
I01
sg24
Nsg26
g34
sg28
g35
sg30
I00
sbag1
(g19
g3
Ntp1550
Rp1551
(dp1552
g23
I01
sg24
Nsg26
g34
sg28
g35
sg30
I00
sbag1
(g19
g3
Ntp1553
Rp1554
(dp1555
g23
I01
sg24
Nsg26
g34
sg28
g35
sg30
I00
sbag1
(g19
g3
Ntp1556
Rp1557
(dp1558
g23
I01
sg24
Nsg26
g34
sg28
g35
sg30
I00
sbag1
(g19
g3
Ntp1559
Rp1560
(dp1561
g23
I01
sg24
Nsg26
g34
sg28
g35
sg30
I00
sbag1
(g19
g3
Ntp1562
Rp1563
(dp1564
g23
I01
sg24
Nsg26
g34
sg28
g35
sg30
I00
sbag1
(g19
g3
Ntp1565
Rp1566
(dp1567
g23
I01
sg24
Nsg26
g34
sg28
g35
sg30
I00
sbag1
(g19
g3
Ntp1568
Rp1569
(dp1570
g23
I00
sg24
g25
sg26
g27
sg28
g29
sg30
I01
sbag1
(g19
g3
Ntp1571
Rp1572
(dp1573
g23
I01
sg24
Nsg26
g34
sg28
g35
sg30
I00
sbag1
(g19
g3
Ntp1574
Rp1575
(dp1576
g23
I00
sg24
Nsg26
g66
sg28
g67
sg30
I00
sbaa(lp1577
g1
(g19
g3
Ntp1578
Rp1579
(dp1580
g23
I00
sg24
g25
sg26
g27
sg28
g29
sg30
I01
sbag1
(g19
g3
Ntp1581
Rp1582
(dp1583
g23
I01
sg24
Nsg26
g34
sg28
g35
sg30
I00
sbag1
(g19
g3
Ntp1584
Rp1585
(dp1586
g23
I00
sg24
g25
sg26
g27
sg28
g29
sg30
I01
sbag1
(g19
g3
Ntp1587
Rp1588
(dp1589
g23
I01
sg24
Nsg26
g34
sg28
g35
sg30
I00
sbag1
(g19
g3
Ntp1590
Rp1591
(dp1592
g23
I00
sg24
g25
sg26
g27
sg28
g29
sg30
I01
sbag1
(g19
g3
Ntp1593
Rp1594
(dp1595
g23
I01
sg24
Nsg26
g34
sg28
g35
sg30
I00
sbag1
(g19
g3
Ntp1596
Rp1597
(dp1598
g23
I00
sg24
g25
sg26
g27
sg28
g29
sg30
I01
sbag1
(g19
g3
Ntp1599
Rp1600
(dp1601
g23
I01
sg24
Nsg26
g34
sg28
g35
sg30
I00
sbag1
(g19
g3
Ntp1602
Rp1603
(dp1604
g23
I01
sg24
Nsg26
g34
sg28
g35
sg30
I00
sbag1
(g19
g3
Ntp1605
Rp1606
(dp1607
g23
I01
sg24
Nsg26
g34
sg28
g35
sg30
I00
sbag1
(g19
g3
Ntp1608
Rp1609
(dp1610
g23
I01
sg24
Nsg26
g34
sg28
g35
sg30
I00
sbag1
(g19
g3
Ntp1611
Rp1612
(dp1613
g23
I00
sg24
Nsg26
g66
sg28
g67
sg30
I00
sbaa(lp1614
g1
(g19
g3
Ntp1615
Rp1616
(dp1617
g23
I01
sg24
Nsg26
g34
sg28
g35
sg30
I00
sbag1
(g19
g3
Ntp1618
Rp1619
(dp1620
g23
I01
sg24
Nsg26
g34
sg28
g35
sg30
I00
sbag1
(g19
g3
Ntp1621
Rp1622
(dp1623
g23
I01
sg24
Nsg26
g34
sg28
g35
sg30
I00
sbag1
(g19
g3
Ntp1624
Rp1625
(dp1626
g23
I01
sg24
Nsg26
g34
sg28
g35
sg30
I00
sbag1
(g19
g3
Ntp1627
Rp1628
(dp1629
g23
I01
sg24
Nsg26
g34
sg28
g35
sg30
I00
sbag1
(g19
g3
Ntp1630
Rp1631
(dp1632
g23
I01
sg24
Nsg26
g34
sg28
g35
sg30
I00
sbag1
(g19
g3
Ntp1633
Rp1634
(dp1635
g23
I01
sg24
Nsg26
g34
sg28
g35
sg30
I00
sbag1
(g19
g3
Ntp1636
Rp1637
(dp1638
g23
I01
sg24
Nsg26
g34
sg28
g35
sg30
I00
sbag1
(g19
g3
Ntp1639
Rp1640
(dp1641
g23
I00
sg24
g25
sg26
g27
sg28
g29
sg30
I01
sbag1
(g19
g3
Ntp1642
Rp1643
(dp1644
g23
I01
sg24
Nsg26
g34
sg28
g35
sg30
I00
sbag1
(g19
g3
Ntp1645
Rp1646
(dp1647
g23
I01
sg24
Nsg26
g34
sg28
g35
sg30
I00
sbag1
(g19
g3
Ntp1648
Rp1649
(dp1650
g23
I00
sg24
Nsg26
g66
sg28
g67
sg30
I00
sbaa(lp1651
g1
(g19
g3
Ntp1652
Rp1653
(dp1654
g23
I00
sg24
g25
sg26
g27
sg28
g29
sg30
I01
sbag1
(g19
g3
Ntp1655
Rp1656
(dp1657
g23
I01
sg24
Nsg26
g34
sg28
g35
sg30
I00
sbag1
(g19
g3
Ntp1658
Rp1659
(dp1660
g23
I00
sg24
g25
sg26
g27
sg28
g29
sg30
I01
sbag1
(g19
g3
Ntp1661
Rp1662
(dp1663
g23
I01
sg24
Nsg26
g34
sg28
g35
sg30
I00
sbag1
(g19
g3
Ntp1664
Rp1665
(dp1666
g23
I01
sg24
Nsg26
g34
sg28
g35
sg30
I00
sbag1
(g19
g3
Ntp1667
Rp1668
(dp1669
g23
I01
sg24
Nsg26
g34
sg28
g35
sg30
I00
sbag1
(g19
g3
Ntp1670
Rp1671
(dp1672
g23
I01
sg24
Nsg26
g34
sg28
g35
sg30
I00
sbag1
(g19
g3
Ntp1673
Rp1674
(dp1675
g23
I01
sg24
Nsg26
g34
sg28
g35
sg30
I00
sbag1
(g19
g3
Ntp1676
Rp1677
(dp1678
g23
I01
sg24
Nsg26
g34
sg28
g35
sg30
I00
sbag1
(g19
g3
Ntp1679
Rp1680
(dp1681
g23
I01
sg24
Nsg26
g34
sg28
g35
sg30
I00
sbag1
(g19
g3
Ntp1682
Rp1683
(dp1684
g23
I01
sg24
Nsg26
g34
sg28
g35
sg30
I00
sbag1
(g19
g3
Ntp1685
Rp1686
(dp1687
g23
I00
sg24
Nsg26
g66
sg28
g67
sg30
I00
sbaa(lp1688
g1
(g19
g3
Ntp1689
Rp1690
(dp1691
g23
I01
sg24
Nsg26
g34
sg28
g35
sg30
I00
sbag1
(g19
g3
Ntp1692
Rp1693
(dp1694
g23
I01
sg24
Nsg26
g34
sg28
g35
sg30
I00
sbag1
(g19
g3
Ntp1695
Rp1696
(dp1697
g23
I01
sg24
Nsg26
g34
sg28
g35
sg30
I00
sbag1
(g19
g3
Ntp1698
Rp1699
(dp1700
g23
I01
sg24
Nsg26
g34
sg28
g35
sg30
I00
sbag1
(g19
g3
Ntp1701
Rp1702
(dp1703
g23
I00
sg24
g25
sg26
g27
sg28
g29
sg30
I01
sbag1
(g19
g3
Ntp1704
Rp1705
(dp1706
g23
I01
sg24
Nsg26
g34
sg28
g35
sg30
I00
sbag1
(g19
g3
Ntp1707
Rp1708
(dp1709
g23
I01
sg24
Nsg26
g34
sg28
g35
sg30
I00
sbag1
(g19
g3
Ntp1710
Rp1711
(dp1712
g23
I00
sg24
g25
sg26
g27
sg28
g29
sg30
I01
sbag1
(g19
g3
Ntp1713
Rp1714
(dp1715
g23
I01
sg24
Nsg26
g34
sg28
g35
sg30
I00
sbag1
(g19
g3
Ntp1716
Rp1717
(dp1718
g23
I01
sg24
Nsg26
g34
sg28
g35
sg30
I00
sbag1
(g19
g3
Ntp1719
Rp1720
(dp1721
g23
I01
sg24
Nsg26
g34
sg28
g35
sg30
I00
sbag1
(g19
g3
Ntp1722
Rp1723
(dp1724
g23
I00
sg24
Nsg26
g66
sg28
g67
sg30
I00
sbaa(lp1725
g1
(g19
g3
Ntp1726
Rp1727
(dp1728
g23
I00
sg24
g25
sg26
g27
sg28
g29
sg30
I01
sbag1
(g19
g3
Ntp1729
Rp1730
(dp1731
g23
I01
sg24
Nsg26
g34
sg28
g35
sg30
I00
sbag1
(g19
g3
Ntp1732
Rp1733
(dp1734
g23
I01
sg24
Nsg26
g34
sg28
g35
sg30
I00
sbag1
(g19
g3
Ntp1735
Rp1736
(dp1737
g23
I01
sg24
Nsg26
g34
sg28
g35
sg30
I00
sbag1
(g19
g3
Ntp1738
Rp1739
(dp1740
g23
I01
sg24
Nsg26
g34
sg28
g35
sg30
I00
sbag1
(g19
g3
Ntp1741
Rp1742
(dp1743
g23
I01
sg24
Nsg26
g34
sg28
g35
sg30
I00
sbag1
(g19
g3
Ntp1744
Rp1745
(dp1746
g23
I01
sg24
Nsg26
g34
sg28
g35
sg30
I00
sbag1
(g19
g3
Ntp1747
Rp1748
(dp1749
g23
I01
sg24
Nsg26
g34
sg28
g35
sg30
I00
sbag1
(g19
g3
Ntp1750
Rp1751
(dp1752
g23
I01
sg24
Nsg26
g34
sg28
g35
sg30
I00
sbag1
(g19
g3
Ntp1753
Rp1754
(dp1755
g23
I01
sg24
Nsg26
g34
sg28
g35
sg30
I00
sbag1
(g19
g3
Ntp1756
Rp1757
(dp1758
g23
I01
sg24
Nsg26
g34
sg28
g35
sg30
I00
sbag1
(g19
g3
Ntp1759
Rp1760
(dp1761
g23
I00
sg24
Nsg26
g66
sg28
g67
sg30
I00
sbaa(lp1762
g1
(g19
g3
Ntp1763
Rp1764
(dp1765
g23
I01
sg24
Nsg26
g34
sg28
g35
sg30
I00
sbag1
(g19
g3
Ntp1766
Rp1767
(dp1768
g23
I01
sg24
Nsg26
g34
sg28
g35
sg30
I00
sbag1
(g19
g3
Ntp1769
Rp1770
(dp1771
g23
I00
sg24
g25
sg26
g27
sg28
g29
sg30
I01
sbag1
(g19
g3
Ntp1772
Rp1773
(dp1774
g23
I01
sg24
Nsg26
g34
sg28
g35
sg30
I00
sbag1
(g19
g3
Ntp1775
Rp1776
(dp1777
g23
I01
sg24
Nsg26
g34
sg28
g35
sg30
I00
sbag1
(g19
g3
Ntp1778
Rp1779
(dp1780
g23
I01
sg24
Nsg26
g34
sg28
g35
sg30
I00
sbag1
(g19
g3
Ntp1781
Rp1782
(dp1783
g23
I00
sg24
g25
sg26
g27
sg28
g29
sg30
I01
sbag1
(g19
g3
Ntp1784
Rp1785
(dp1786
g23
I01
sg24
Nsg26
g34
sg28
g35
sg30
I00
sbag1
(g19
g3
Ntp1787
Rp1788
(dp1789
g23
I01
sg24
Nsg26
g34
sg28
g35
sg30
I00
sbag1
(g19
g3
Ntp1790
Rp1791
(dp1792
g23
I01
sg24
Nsg26
g34
sg28
g35
sg30
I00
sbag1
(g19
g3
Ntp1793
Rp1794
(dp1795
g23
I00
sg24
g25
sg26
g27
sg28
g29
sg30
I01
sbag1
(g19
g3
Ntp1796
Rp1797
(dp1798
g23
I00
sg24
Nsg26
g66
sg28
g67
sg30
I00
sbaa(lp1799
g1
(g19
g3
Ntp1800
Rp1801
(dp1802
g23
I00
sg24
Nsg26
g66
sg28
g67
sg30
I00
sbag1
(g19
g3
Ntp1803
Rp1804
(dp1805
g23
I00
sg24
Nsg26
g66
sg28
g67
sg30
I00
sbag1
(g19
g3
Ntp1806
Rp1807
(dp1808
g23
I00
sg24
Nsg26
g66
sg28
g67
sg30
I00
sbag1
(g19
g3
Ntp1809
Rp1810
(dp1811
g23
I00
sg24
Nsg26
g66
sg28
g67
sg30
I00
sbag1
(g19
g3
Ntp1812
Rp1813
(dp1814
g23
I00
sg24
Nsg26
g66
sg28
g67
sg30
I00
sbag1
(g19
g3
Ntp1815
Rp1816
(dp1817
g23
I00
sg24
Nsg26
g66
sg28
g67
sg30
I00
sbag1
(g19
g3
Ntp1818
Rp1819
(dp1820
g23
I00
sg24
Nsg26
g66
sg28
g67
sg30
I00
sbag1
(g19
g3
Ntp1821
Rp1822
(dp1823
g23
I00
sg24
Nsg26
g66
sg28
g67
sg30
I00
sbag1
(g19
g3
Ntp1824
Rp1825
(dp1826
g23
I00
sg24
Nsg26
g66
sg28
g67
sg30
I00
sbag1
(g19
g3
Ntp1827
Rp1828
(dp1829
g23
I00
sg24
Nsg26
g66
sg28
g67
sg30
I00
sbag1
(g19
g3
Ntp1830
Rp1831
(dp1832
g23
I00
sg24
Nsg26
g66
sg28
g67
sg30
I00
sbag1
(g19
g3
Ntp1833
Rp1834
(dp1835
g23
I00
sg24
Nsg26
g66
sg28
g67
sg30
I00
sbaasg475
(I-1
I0
tp1836
sbs(I-1
I-1
tp1837
g1
(g12
g3
Ntp1838
Rp1839
(dp1840
g16
(lp1841
(lp1842
g1
(g19
g3
Ntp1843
Rp1844
(dp1845
g23
I01
sg24
Nsg26
g34
sg28
g35
sg30
I00
sbag1
(g19
g3
Ntp1846
Rp1847
(dp1848
g23
I01
sg24
Nsg26
g34
sg28
g35
sg30
I00
sbag1
(g19
g3
Ntp1849
Rp1850
(dp1851
g23
I01
sg24
Nsg26
g34
sg28
g35
sg30
I00
sbag1
(g19
g3
Ntp1852
Rp1853
(dp1854
g23
I01
sg24
Nsg26
g34
sg28
g35
sg30
I00
sbag1
(g19
g3
Ntp1855
Rp1856
(dp1857
g23
I01
sg24
Nsg26
g34
sg28
g35
sg30
I00
sbag1
(g19
g3
Ntp1858
Rp1859
(dp1860
g23
I01
sg24
Nsg26
g34
sg28
g35
sg30
I00
sbag1
(g19
g3
Ntp1861
Rp1862
(dp1863
g23
I00
sg24
g25
sg26
g27
sg28
g29
sg30
I01
sbag1
(g19
g3
Ntp1864
Rp1865
(dp1866
g23
I01
sg24
Nsg26
g34
sg28
g35
sg30
I00
sbag1
(g19
g3
Ntp1867
Rp1868
(dp1869
g23
I01
sg24
Nsg26
g34
sg28
g35
sg30
I00
sbag1
(g19
g3
Ntp1870
Rp1871
(dp1872
g23
I01
sg24
Nsg26
g34
sg28
g35
sg30
I00
sbag1
(g19
g3
Ntp1873
Rp1874
(dp1875
g23
I00
sg24
g25
sg26
g27
sg28
g29
sg30
I01
sbag1
(g19
g3
Ntp1876
Rp1877
(dp1878
g23
I00
sg24
Nsg26
g66
sg28
g67
sg30
I00
sbaa(lp1879
g1
(g19
g3
Ntp1880
Rp1881
(dp1882
g23
I01
sg24
Nsg26
g34
sg28
g35
sg30
I00
sbag1
(g19
g3
Ntp1883
Rp1884
(dp1885
g23
I00
sg24
g25
sg26
g27
sg28
g29
sg30
I01
sbag1
(g19
g3
Ntp1886
Rp1887
(dp1888
g23
I01
sg24
Nsg26
g34
sg28
g35
sg30
I00
sbag1
(g19
g3
Ntp1889
Rp1890
(dp1891
g23
I01
sg24
Nsg26
g34
sg28
g35
sg30
I00
sbag1
(g19
g3
Ntp1892
Rp1893
(dp1894
g23
I01
sg24
Nsg26
g34
sg28
g35
sg30
I00
sbag1
(g19
g3
Ntp1895
Rp1896
(dp1897
g23
I01
sg24
Nsg26
g34
sg28
g35
sg30
I00
sbag1
(g19
g3
Ntp1898
Rp1899
(dp1900
g23
I01
sg24
Nsg26
g34
sg28
g35
sg30
I00
sbag1
(g19
g3
Ntp1901
Rp1902
(dp1903
g23
I01
sg24
Nsg26
g34
sg28
g35
sg30
I00
sbag1
(g19
g3
Ntp1904
Rp1905
(dp1906
g23
I00
sg24
g25
sg26
g27
sg28
g29
sg30
I01
sbag1
(g19
g3
Ntp1907
Rp1908
(dp1909
g23
I01
sg24
Nsg26
g34
sg28
g35
sg30
I00
sbag1
(g19
g3
Ntp1910
Rp1911
(dp1912
g23
I01
sg24
Nsg26
g34
sg28
g35
sg30
I00
sbag1
(g19
g3
Ntp1913
Rp1914
(dp1915
g23
I00
sg24
Nsg26
g66
sg28
g67
sg30
I00
sbaa(lp1916
g1
(g19
g3
Ntp1917
Rp1918
(dp1919
g23
I01
sg24
Nsg26
g34
sg28
g35
sg30
I00
sbag1
(g19
g3
Ntp1920
Rp1921
(dp1922
g23
I01
sg24
Nsg26
g34
sg28
g35
sg30
I00
sbag1
(g19
g3
Ntp1923
Rp1924
(dp1925
g23
I01
sg24
Nsg26
g34
sg28
g35
sg30
I00
sbag1
(g19
g3
Ntp1926
Rp1927
(dp1928
g23
I00
sg24
g25
sg26
g27
sg28
g29
sg30
I01
sbag1
(g19
g3
Ntp1929
Rp1930
(dp1931
g23
I01
sg24
Nsg26
g34
sg28
g35
sg30
I00
sbag1
(g19
g3
Ntp1932
Rp1933
(dp1934
g23
I01
sg24
Nsg26
g34
sg28
g35
sg30
I00
sbag1
(g19
g3
Ntp1935
Rp1936
(dp1937
g23
I00
sg24
g25
sg26
g27
sg28
g29
sg30
I01
sbag1
(g19
g3
Ntp1938
Rp1939
(dp1940
g23
I01
sg24
Nsg26
g34
sg28
g35
sg30
I00
sbag1
(g19
g3
Ntp1941
Rp1942
(dp1943
g23
I01
sg24
Nsg26
g34
sg28
g35
sg30
I00
sbag1
(g19
g3
Ntp1944
Rp1945
(dp1946
g23
I01
sg24
Nsg26
g34
sg28
g35
sg30
I00
sbag1
(g19
g3
Ntp1947
Rp1948
(dp1949
g23
I01
sg24
Nsg26
g34
sg28
g35
sg30
I00
sbag1
(g19
g3
Ntp1950
Rp1951
(dp1952
g23
I00
sg24
Nsg26
g66
sg28
g67
sg30
I00
sbaa(lp1953
g1
(g19
g3
Ntp1954
Rp1955
(dp1956
g23
I01
sg24
Nsg26
g34
sg28
g35
sg30
I00
sbag1
(g19
g3
Ntp1957
Rp1958
(dp1959
g23
I00
sg24
g25
sg26
g27
sg28
g29
sg30
I01
sbag1
(g19
g3
Ntp1960
Rp1961
(dp1962
g23
I01
sg24
Nsg26
g34
sg28
g35
sg30
I00
sbag1
(g19
g3
Ntp1963
Rp1964
(dp1965
g23
I01
sg24
Nsg26
g34
sg28
g35
sg30
I00
sbag1
(g19
g3
Ntp1966
Rp1967
(dp1968
g23
I01
sg24
Nsg26
g34
sg28
g35
sg30
I00
sbag1
(g19
g3
Ntp1969
Rp1970
(dp1971
g23
I01
sg24
Nsg26
g34
sg28
g35
sg30
I00
sbag1
(g19
g3
Ntp1972
Rp1973
(dp1974
g23
I01
sg24
Nsg26
g34
sg28
g35
sg30
I00
sbag1
(g19
g3
Ntp1975
Rp1976
(dp1977
g23
I01
sg24
Nsg26
g34
sg28
g35
sg30
I00
sbag1
(g19
g3
Ntp1978
Rp1979
(dp1980
g23
I01
sg24
Nsg26
g34
sg28
g35
sg30
I00
sbag1
(g19
g3
Ntp1981
Rp1982
(dp1983
g23
I01
sg24
Nsg26
g34
sg28
g35
sg30
I00
sbag1
(g19
g3
Ntp1984
Rp1985
(dp1986
g23
I01
sg24
Nsg26
g34
sg28
g35
sg30
I00
sbag1
(g19
g3
Ntp1987
Rp1988
(dp1989
g23
I00
sg24
Nsg26
g66
sg28
g67
sg30
I00
sbaa(lp1990
g1
(g19
g3
Ntp1991
Rp1992
(dp1993
g23
I01
sg24
Nsg26
g34
sg28
g35
sg30
I00
sbag1
(g19
g3
Ntp1994
Rp1995
(dp1996
g23
I01
sg24
Nsg26
g34
sg28
g35
sg30
I00
sbag1
(g19
g3
Ntp1997
Rp1998
(dp1999
g23
I01
sg24
Nsg26
g34
sg28
g35
sg30
I00
sbag1
(g19
g3
Ntp2000
Rp2001
(dp2002
g23
I01
sg24
Nsg26
g34
sg28
g35
sg30
I00
sbag1
(g19
g3
Ntp2003
Rp2004
(dp2005
g23
I00
sg24
g25
sg26
g27
sg28
g29
sg30
I01
sbag1
(g19
g3
Ntp2006
Rp2007
(dp2008
g23
I01
sg24
Nsg26
g34
sg28
g35
sg30
I00
sbag1
(g19
g3
Ntp2009
Rp2010
(dp2011
g23
I00
sg24
g25
sg26
g27
sg28
g29
sg30
I01
sbag1
(g19
g3
Ntp2012
Rp2013
(dp2014
g23
I01
sg24
Nsg26
g34
sg28
g35
sg30
I00
sbag1
(g19
g3
Ntp2015
Rp2016
(dp2017
g23
I01
sg24
Nsg26
g34
sg28
g35
sg30
I00
sbag1
(g19
g3
Ntp2018
Rp2019
(dp2020
g23
I00
sg24
g25
sg26
g27
sg28
g29
sg30
I01
sbag1
(g19
g3
Ntp2021
Rp2022
(dp2023
g23
I01
sg24
Nsg26
g34
sg28
g35
sg30
I00
sbag1
(g19
g3
Ntp2024
Rp2025
(dp2026
g23
I00
sg24
Nsg26
g66
sg28
g67
sg30
I00
sbaa(lp2027
g1
(g19
g3
Ntp2028
Rp2029
(dp2030
g23
I00
sg24
g25
sg26
g27
sg28
g29
sg30
I01
sbag1
(g19
g3
Ntp2031
Rp2032
(dp2033
g23
I01
sg24
Nsg26
g34
sg28
g35
sg30
I00
sbag1
(g19
g3
Ntp2034
Rp2035
(dp2036
g23
I01
sg24
Nsg26
g34
sg28
g35
sg30
I00
sbag1
(g19
g3
Ntp2037
Rp2038
(dp2039
g23
I01
sg24
Nsg26
g34
sg28
g35
sg30
I00
sbag1
(g19
g3
Ntp2040
Rp2041
(dp2042
g23
I01
sg24
Nsg26
g34
sg28
g35
sg30
I00
sbag1
(g19
g3
Ntp2043
Rp2044
(dp2045
g23
I01
sg24
Nsg26
g34
sg28
g35
sg30
I00
sbag1
(g19
g3
Ntp2046
Rp2047
(dp2048
g23
I01
sg24
Nsg26
g34
sg28
g35
sg30
I00
sbag1
(g19
g3
Ntp2049
Rp2050
(dp2051
g23
I01
sg24
Nsg26
g34
sg28
g35
sg30
I00
sbag1
(g19
g3
Ntp2052
Rp2053
(dp2054
g23
I01
sg24
Nsg26
g34
sg28
g35
sg30
I00
sbag1
(g19
g3
Ntp2055
Rp2056
(dp2057
g23
I01
sg24
Nsg26
g34
sg28
g35
sg30
I00
sbag1
(g19
g3
Ntp2058
Rp2059
(dp2060
g23
I01
sg24
Nsg26
g34
sg28
g35
sg30
I00
sbag1
(g19
g3
Ntp2061
Rp2062
(dp2063
g23
I00
sg24
Nsg26
g66
sg28
g67
sg30
I00
sbaa(lp2064
g1
(g19
g3
Ntp2065
Rp2066
(dp2067
g23
I01
sg24
Nsg26
g34
sg28
g35
sg30
I00
sbag1
(g19
g3
Ntp2068
Rp2069
(dp2070
g23
I01
sg24
Nsg26
g34
sg28
g35
sg30
I00
sbag1
(g19
g3
Ntp2071
Rp2072
(dp2073
g23
I01
sg24
Nsg26
g34
sg28
g35
sg30
I00
sbag1
(g19
g3
Ntp2074
Rp2075
(dp2076
g23
I00
sg24
g25
sg26
g27
sg28
g29
sg30
I01
sbag1
(g19
g3
Ntp2077
Rp2078
(dp2079
g23
I01
sg24
Nsg26
g34
sg28
g35
sg30
I00
sbag1
(g19
g3
Ntp2080
Rp2081
(dp2082
g23
I01
sg24
Nsg26
g34
sg28
g35
sg30
I00
sbag1
(g19
g3
Ntp2083
Rp2084
(dp2085
g23
I01
sg24
Nsg26
g34
sg28
g35
sg30
I00
sbag1
(g19
g3
Ntp2086
Rp2087
(dp2088
g23
I01
sg24
Nsg26
g34
sg28
g35
sg30
I00
sbag1
(g19
g3
Ntp2089
Rp2090
(dp2091
g23
I00
sg24
g25
sg26
g27
sg28
g29
sg30
I01
sbag1
(g19
g3
Ntp2092
Rp2093
(dp2094
g23
I01
sg24
Nsg26
g34
sg28
g35
sg30
I00
sbag1
(g19
g3
Ntp2095
Rp2096
(dp2097
g23
I01
sg24
Nsg26
g34
sg28
g35
sg30
I00
sbag1
(g19
g3
Ntp2098
Rp2099
(dp2100
g23
I00
sg24
Nsg26
g66
sg28
g67
sg30
I00
sbaa(lp2101
g1
(g19
g3
Ntp2102
Rp2103
(dp2104
g23
I01
sg24
Nsg26
g34
sg28
g35
sg30
I00
sbag1
(g19
g3
Ntp2105
Rp2106
(dp2107
g23
I01
sg24
Nsg26
g34
sg28
g35
sg30
I00
sbag1
(g19
g3
Ntp2108
Rp2109
(dp2110
g23
I01
sg24
Nsg26
g34
sg28
g35
sg30
I00
sbag1
(g19
g3
Ntp2111
Rp2112
(dp2113
g23
I01
sg24
Nsg26
g34
sg28
g35
sg30
I00
sbag1
(g19
g3
Ntp2114
Rp2115
(dp2116
g23
I01
sg24
Nsg26
g34
sg28
g35
sg30
I00
sbag1
(g19
g3
Ntp2117
Rp2118
(dp2119
g23
I00
sg24
g25
sg26
g27
sg28
g29
sg30
I01
sbag1
(g19
g3
Ntp2120
Rp2121
(dp2122
g23
I01
sg24
Nsg26
g34
sg28
g35
sg30
I00
sbag1
(g19
g3
Ntp2123
Rp2124
(dp2125
g23
I01
sg24
Nsg26
g34
sg28
g35
sg30
I00
sbag1
(g19
g3
Ntp2126
Rp2127
(dp2128
g23
I01
sg24
Nsg26
g34
sg28
g35
sg30
I00
sbag1
(g19
g3
Ntp2129
Rp2130
(dp2131
g23
I01
sg24
Nsg26
g34
sg28
g35
sg30
I00
sbag1
(g19
g3
Ntp2132
Rp2133
(dp2134
g23
I01
sg24
Nsg26
g34
sg28
g35
sg30
I00
sbag1
(g19
g3
Ntp2135
Rp2136
(dp2137
g23
I00
sg24
Nsg26
g66
sg28
g67
sg30
I00
sbaa(lp2138
g1
(g19
g3
Ntp2139
Rp2140
(dp2141
g23
I01
sg24
Nsg26
g34
sg28
g35
sg30
I00
sbag1
(g19
g3
Ntp2142
Rp2143
(dp2144
g23
I00
sg24
g25
sg26
g27
sg28
g29
sg30
I01
sbag1
(g19
g3
Ntp2145
Rp2146
(dp2147
g23
I01
sg24
Nsg26
g34
sg28
g35
sg30
I00
sbag1
(g19
g3
Ntp2148
Rp2149
(dp2150
g23
I01
sg24
Nsg26
g34
sg28
g35
sg30
I00
sbag1
(g19
g3
Ntp2151
Rp2152
(dp2153
g23
I01
sg24
Nsg26
g34
sg28
g35
sg30
I00
sbag1
(g19
g3
Ntp2154
Rp2155
(dp2156
g23
I01
sg24
Nsg26
g34
sg28
g35
sg30
I00
sbag1
(g19
g3
Ntp2157
Rp2158
(dp2159
g23
I01
sg24
Nsg26
g34
sg28
g35
sg30
I00
sbag1
(g19
g3
Ntp2160
Rp2161
(dp2162
g23
I00
sg24
g25
sg26
g27
sg28
g29
sg30
I01
sbag1
(g19
g3
Ntp2163
Rp2164
(dp2165
g23
I01
sg24
Nsg26
g34
sg28
g35
sg30
I00
sbag1
(g19
g3
Ntp2166
Rp2167
(dp2168
g23
I00
sg24
g25
sg26
g27
sg28
g29
sg30
I01
sbag1
(g19
g3
Ntp2169
Rp2170
(dp2171
g23
I01
sg24
Nsg26
g34
sg28
g35
sg30
I00
sbag1
(g19
g3
Ntp2172
Rp2173
(dp2174
g23
I00
sg24
Nsg26
g66
sg28
g67
sg30
I00
sbaa(lp2175
g1
(g19
g3
Ntp2176
Rp2177
(dp2178
g23
I01
sg24
Nsg26
g34
sg28
g35
sg30
I00
sbag1
(g19
g3
Ntp2179
Rp2180
(dp2181
g23
I01
sg24
Nsg26
g34
sg28
g35
sg30
I00
sbag1
(g19
g3
Ntp2182
Rp2183
(dp2184
g23
I01
sg24
Nsg26
g34
sg28
g35
sg30
I00
sbag1
(g19
g3
Ntp2185
Rp2186
(dp2187
g23
I01
sg24
Nsg26
g34
sg28
g35
sg30
I00
sbag1
(g19
g3
Ntp2188
Rp2189
(dp2190
g23
I00
sg24
g25
sg26
g27
sg28
g29
sg30
I01
sbag1
(g19
g3
Ntp2191
Rp2192
(dp2193
g23
I01
sg24
Nsg26
g34
sg28
g35
sg30
I00
sbag1
(g19
g3
Ntp2194
Rp2195
(dp2196
g23
I01
sg24
Nsg26
g34
sg28
g35
sg30
I00
sbag1
(g19
g3
Ntp2197
Rp2198
(dp2199
g23
I01
sg24
Nsg26
g34
sg28
g35
sg30
I00
sbag1
(g19
g3
Ntp2200
Rp2201
(dp2202
g23
I01
sg24
Nsg26
g34
sg28
g35
sg30
I00
sbag1
(g19
g3
Ntp2203
Rp2204
(dp2205
g23
I01
sg24
Nsg26
g34
sg28
g35
sg30
I00
sbag1
(g19
g3
Ntp2206
Rp2207
(dp2208
g23
I01
sg24
Nsg26
g34
sg28
g35
sg30
I00
sbag1
(g19
g3
Ntp2209
Rp2210
(dp2211
g23
I00
sg24
Nsg26
g66
sg28
g67
sg30
I00
sbaa(lp2212
g1
(g19
g3
Ntp2213
Rp2214
(dp2215
g23
I00
sg24
g25
sg26
g27
sg28
g29
sg30
I01
sbag1
(g19
g3
Ntp2216
Rp2217
(dp2218
g23
I01
sg24
Nsg26
g34
sg28
g35
sg30
I00
sbag1
(g19
g3
Ntp2219
Rp2220
(dp2221
g23
I00
sg24
g25
sg26
g27
sg28
g29
sg30
I01
sbag1
(g19
g3
Ntp2222
Rp2223
(dp2224
g23
I01
sg24
Nsg26
g34
sg28
g35
sg30
I00
sbag1
(g19
g3
Ntp2225
Rp2226
(dp2227
g23
I01
sg24
Nsg26
g34
sg28
g35
sg30
I00
sbag1
(g19
g3
Ntp2228
Rp2229
(dp2230
g23
I01
sg24
Nsg26
g34
sg28
g35
sg30
I00
sbag1
(g19
g3
Ntp2231
Rp2232
(dp2233
g23
I01
sg24
Nsg26
g34
sg28
g35
sg30
I00
sbag1
(g19
g3
Ntp2234
Rp2235
(dp2236
g23
I01
sg24
Nsg26
g34
sg28
g35
sg30
I00
sbag1
(g19
g3
Ntp2237
Rp2238
(dp2239
g23
I00
sg24
g25
sg26
g27
sg28
g29
sg30
I01
sbag1
(g19
g3
Ntp2240
Rp2241
(dp2242
g23
I01
sg24
Nsg26
g34
sg28
g35
sg30
I00
sbag1
(g19
g3
Ntp2243
Rp2244
(dp2245
g23
I00
sg24
g25
sg26
g27
sg28
g29
sg30
I01
sbag1
(g19
g3
Ntp2246
Rp2247
(dp2248
g23
I00
sg24
Nsg26
g66
sg28
g67
sg30
I00
sbaa(lp2249
g1
(g19
g3
Ntp2250
Rp2251
(dp2252
g23
I00
sg24
Nsg26
g66
sg28
g67
sg30
I00
sbag1
(g19
g3
Ntp2253
Rp2254
(dp2255
g23
I00
sg24
Nsg26
g66
sg28
g67
sg30
I00
sbag1
(g19
g3
Ntp2256
Rp2257
(dp2258
g23
I00
sg24
Nsg26
g66
sg28
g67
sg30
I00
sbag1
(g19
g3
Ntp2259
Rp2260
(dp2261
g23
I00
sg24
Nsg26
g66
sg28
g67
sg30
I00
sbag1
(g19
g3
Ntp2262
Rp2263
(dp2264
g23
I00
sg24
Nsg26
g66
sg28
g67
sg30
I00
sbag1
(g19
g3
Ntp2265
Rp2266
(dp2267
g23
I00
sg24
Nsg26
g66
sg28
g67
sg30
I00
sbag1
(g19
g3
Ntp2268
Rp2269
(dp2270
g23
I00
sg24
Nsg26
g66
sg28
g67
sg30
I00
sbag1
(g19
g3
Ntp2271
Rp2272
(dp2273
g23
I00
sg24
Nsg26
g66
sg28
g67
sg30
I00
sbag1
(g19
g3
Ntp2274
Rp2275
(dp2276
g23
I00
sg24
Nsg26
g66
sg28
g67
sg30
I00
sbag1
(g19
g3
Ntp2277
Rp2278
(dp2279
g23
I00
sg24
Nsg26
g66
sg28
g67
sg30
I00
sbag1
(g19
g3
Ntp2280
Rp2281
(dp2282
g23
I00
sg24
Nsg26
g66
sg28
g67
sg30
I00
sbag1
(g19
g3
Ntp2283
Rp2284
(dp2285
g23
I00
sg24
Nsg26
g66
sg28
g67
sg30
I00
sbaasg475
(I-1
I-1
tp2286
sbs(I0
I-1
tp2287
g1
(g12
g3
Ntp2288
Rp2289
(dp2290
g16
(lp2291
(lp2292
g1
(g19
g3
Ntp2293
Rp2294
(dp2295
g23
I00
sg24
g25
sg26
g27
sg28
g29
sg30
I01
sbag1
(g19
g3
Ntp2296
Rp2297
(dp2298
g23
I01
sg24
Nsg26
g34
sg28
g35
sg30
I00
sbag1
(g19
g3
Ntp2299
Rp2300
(dp2301
g23
I01
sg24
Nsg26
g34
sg28
g35
sg30
I00
sbag1
(g19
g3
Ntp2302
Rp2303
(dp2304
g23
I00
sg24
g25
sg26
g27
sg28
g29
sg30
I01
sbag1
(g19
g3
Ntp2305
Rp2306
(dp2307
g23
I01
sg24
Nsg26
g34
sg28
g35
sg30
I00
sbag1
(g19
g3
Ntp2308
Rp2309
(dp2310
g23
I00
sg24
g25
sg26
g27
sg28
g29
sg30
I01
sbag1
(g19
g3
Ntp2311
Rp2312
(dp2313
g23
I01
sg24
Nsg26
g34
sg28
g35
sg30
I00
sbag1
(g19
g3
Ntp2314
Rp2315
(dp2316
g23
I01
sg24
Nsg26
g34
sg28
g35
sg30
I00
sbag1
(g19
g3
Ntp2317
Rp2318
(dp2319
g23
I00
sg24
g25
sg26
g27
sg28
g29
sg30
I01
sbag1
(g19
g3
Ntp2320
Rp2321
(dp2322
g23
I01
sg24
Nsg26
g34
sg28
g35
sg30
I00
sbag1
(g19
g3
Ntp2323
Rp2324
(dp2325
g23
I01
sg24
Nsg26
g34
sg28
g35
sg30
I00
sbag1
(g19
g3
Ntp2326
Rp2327
(dp2328
g23
I00
sg24
Nsg26
g66
sg28
g67
sg30
I00
sbaa(lp2329
g1
(g19
g3
Ntp2330
Rp2331
(dp2332
g23
I01
sg24
Nsg26
g34
sg28
g35
sg30
I00
sbag1
(g19
g3
Ntp2333
Rp2334
(dp2335
g23
I01
sg24
Nsg26
g34
sg28
g35
sg30
I00
sbag1
(g19
g3
Ntp2336
Rp2337
(dp2338
g23
I01
sg24
Nsg26
g34
sg28
g35
sg30
I00
sbag1
(g19
g3
Ntp2339
Rp2340
(dp2341
g23
I01
sg24
Nsg26
g34
sg28
g35
sg30
I00
sbag1
(g19
g3
Ntp2342
Rp2343
(dp2344
g23
I01
sg24
Nsg26
g34
sg28
g35
sg30
I00
sbag1
(g19
g3
Ntp2345
Rp2346
(dp2347
g23
I01
sg24
Nsg26
g34
sg28
g35
sg30
I00
sbag1
(g19
g3
Ntp2348
Rp2349
(dp2350
g23
I01
sg24
Nsg26
g34
sg28
g35
sg30
I00
sbag1
(g19
g3
Ntp2351
Rp2352
(dp2353
g23
I01
sg24
Nsg26
g34
sg28
g35
sg30
I00
sbag1
(g19
g3
Ntp2354
Rp2355
(dp2356
g23
I01
sg24
Nsg26
g34
sg28
g35
sg30
I00
sbag1
(g19
g3
Ntp2357
Rp2358
(dp2359
g23
I01
sg24
Nsg26
g34
sg28
g35
sg30
I00
sbag1
(g19
g3
Ntp2360
Rp2361
(dp2362
g23
I00
sg24
g25
sg26
g27
sg28
g29
sg30
I01
sbag1
(g19
g3
Ntp2363
Rp2364
(dp2365
g23
I00
sg24
Nsg26
g66
sg28
g67
sg30
I00
sbaa(lp2366
g1
(g19
g3
Ntp2367
Rp2368
(dp2369
g23
I01
sg24
Nsg26
g34
sg28
g35
sg30
I00
sbag1
(g19
g3
Ntp2370
Rp2371
(dp2372
g23
I01
sg24
Nsg26
g34
sg28
g35
sg30
I00
sbag1
(g19
g3
Ntp2373
Rp2374
(dp2375
g23
I01
sg24
Nsg26
g34
sg28
g35
sg30
I00
sbag1
(g19
g3
Ntp2376
Rp2377
(dp2378
g23
I00
sg24
g25
sg26
g27
sg28
g29
sg30
I01
sbag1
(g19
g3
Ntp2379
Rp2380
(dp2381
g23
I01
sg24
Nsg26
g34
sg28
g35
sg30
I00
sbag1
(g19
g3
Ntp2382
Rp2383
(dp2384
g23
I01
sg24
Nsg26
g34
sg28
g35
sg30
I00
sbag1
(g19
g3
Ntp2385
Rp2386
(dp2387
g23
I00
sg24
g25
sg26
g27
sg28
g29
sg30
I01
sbag1
(g19
g3
Ntp2388
Rp2389
(dp2390
g23
I01
sg24
Nsg26
g34
sg28
g35
sg30
I00
sbag1
(g19
g3
Ntp2391
Rp2392
(dp2393
g23
I01
sg24
Nsg26
g34
sg28
g35
sg30
I00
sbag1
(g19
g3
Ntp2394
Rp2395
(dp2396
g23
I01
sg24
Nsg26
g34
sg28
g35
sg30
I00
sbag1
(g19
g3
Ntp2397
Rp2398
(dp2399
g23
I01
sg24
Nsg26
g34
sg28
g35
sg30
I00
sbag1
(g19
g3
Ntp2400
Rp2401
(dp2402
g23
I00
sg24
Nsg26
g66
sg28
g67
sg30
I00
sbaa(lp2403
g1
(g19
g3
Ntp2404
Rp2405
(dp2406
g23
I00
sg24
g25
sg26
g27
sg28
g29
sg30
I01
sbag1
(g19
g3
Ntp2407
Rp2408
(dp2409
g23
I01
sg24
Nsg26
g34
sg28
g35
sg30
I00
sbag1
(g19
g3
Ntp2410
Rp2411
(dp2412
g23
I01
sg24
Nsg26
g34
sg28
g35
sg30
I00
sbag1
(g19
g3
Ntp2413
Rp2414
(dp2415
g23
I01
sg24
Nsg26
g34
sg28
g35
sg30
I00
sbag1
(g19
g3
Ntp2416
Rp2417
(dp2418
g23
I01
sg24
Nsg26
g34
sg28
g35
sg30
I00
sbag1
(g19
g3
Ntp2419
Rp2420
(dp2421
g23
I01
sg24
Nsg26
g34
sg28
g35
sg30
I00
sbag1
(g19
g3
Ntp2422
Rp2423
(dp2424
g23
I01
sg24
Nsg26
g34
sg28
g35
sg30
I00
sbag1
(g19
g3
Ntp2425
Rp2426
(dp2427
g23
I01
sg24
Nsg26
g34
sg28
g35
sg30
I00
sbag1
(g19
g3
Ntp2428
Rp2429
(dp2430
g23
I00
sg24
g25
sg26
g27
sg28
g29
sg30
I01
sbag1
(g19
g3
Ntp2431
Rp2432
(dp2433
g23
I01
sg24
Nsg26
g34
sg28
g35
sg30
I00
sbag1
(g19
g3
Ntp2434
Rp2435
(dp2436
g23
I01
sg24
Nsg26
g34
sg28
g35
sg30
I00
sbag1
(g19
g3
Ntp2437
Rp2438
(dp2439
g23
I00
sg24
Nsg26
g66
sg28
g67
sg30
I00
sbaa(lp2440
g1
(g19
g3
Ntp2441
Rp2442
(dp2443
g23
I01
sg24
Nsg26
g34
sg28
g35
sg30
I00
sbag1
(g19
g3
Ntp2444
Rp2445
(dp2446
g23
I01
sg24
Nsg26
g34
sg28
g35
sg30
I00
sbag1
(g19
g3
Ntp2447
Rp2448
(dp2449
g23
I01
sg24
Nsg26
g34
sg28
g35
sg30
I00
sbag1
(g19
g3
Ntp2450
Rp2451
(dp2452
g23
I01
sg24
Nsg26
g34
sg28
g35
sg30
I00
sbag1
(g19
g3
Ntp2453
Rp2454
(dp2455
g23
I00
sg24
g25
sg26
g27
sg28
g29
sg30
I01
sbag1
(g19
g3
Ntp2456
Rp2457
(dp2458
g23
I01
sg24
Nsg26
g34
sg28
g35
sg30
I00
sbag1
(g19
g3
Ntp2459
Rp2460
(dp2461
g23
I01
sg24
Nsg26
g34
sg28
g35
sg30
I00
sbag1
(g19
g3
Ntp2462
Rp2463
(dp2464
g23
I00
sg24
g25
sg26
g27
sg28
g29
sg30
I01
sbag1
(g19
g3
Ntp2465
Rp2466
(dp2467
g23
I01
sg24
Nsg26
g34
sg28
g35
sg30
I00
sbag1
(g19
g3
Ntp2468
Rp2469
(dp2470
g23
I01
sg24
Nsg26
g34
sg28
g35
sg30
I00
sbag1
(g19
g3
Ntp2471
Rp2472
(dp2473
g23
I01
sg24
Nsg26
g34
sg28
g35
sg30
I00
sbag1
(g19
g3
Ntp2474
Rp2475
(dp2476
g23
I00
sg24
Nsg26
g66
sg28
g67
sg30
I00
sbaa(lp2477
g1
(g19
g3
Ntp2478
Rp2479
(dp2480
g23
I01
sg24
Nsg26
g34
sg28
g35
sg30
I00
sbag1
(g19
g3
Ntp2481
Rp2482
(dp2483
g23
I01
sg24
Nsg26
g34
sg28
g35
sg30
I00
sbag1
(g19
g3
Ntp2484
Rp2485
(dp2486
g23
I01
sg24
Nsg26
g34
sg28
g35
sg30
I00
sbag1
(g19
g3
Ntp2487
Rp2488
(dp2489
g23
I01
sg24
Nsg26
g34
sg28
g35
sg30
I00
sbag1
(g19
g3
Ntp2490
Rp2491
(dp2492
g23
I01
sg24
Nsg26
g34
sg28
g35
sg30
I00
sbag1
(g19
g3
Ntp2493
Rp2494
(dp2495
g23
I01
sg24
Nsg26
g34
sg28
g35
sg30
I00
sbag1
(g19
g3
Ntp2496
Rp2497
(dp2498
g23
I01
sg24
Nsg26
g34
sg28
g35
sg30
I00
sbag1
(g19
g3
Ntp2499
Rp2500
(dp2501
g23
I00
sg24
g25
sg26
g27
sg28
g29
sg30
I01
sbag1
(g19
g3
Ntp2502
Rp2503
(dp2504
g23
I00
sg24
Nsg26
g993
sg28
g994
sg30
I00
sbag1
(g19
g3
Ntp2505
Rp2506
(dp2507
g23
I01
sg24
Nsg26
g34
sg28
g35
sg30
I00
sbag1
(g19
g3
Ntp2508
Rp2509
(dp2510
g23
I00
sg24
g25
sg26
g27
sg28
g29
sg30
I01
sbag1
(g19
g3
Ntp2511
Rp2512
(dp2513
g23
I00
sg24
Nsg26
g66
sg28
g67
sg30
I00
sbaa(lp2514
g1
(g19
g3
Ntp2515
Rp2516
(dp2517
g23
I01
sg24
Nsg26
g34
sg28
g35
sg30
I00
sbag1
(g19
g3
Ntp2518
Rp2519
(dp2520
g23
I01
sg24
Nsg26
g34
sg28
g35
sg30
I00
sbag1
(g19
g3
Ntp2521
Rp2522
(dp2523
g23
I01
sg24
Nsg26
g34
sg28
g35
sg30
I00
sbag1
(g19
g3
Ntp2524
Rp2525
(dp2526
g23
I01
sg24
Nsg26
g34
sg28
g35
sg30
I00
sbag1
(g19
g3
Ntp2527
Rp2528
(dp2529
g23
I00
sg24
g25
sg26
g27
sg28
g29
sg30
I01
sbag1
(g19
g3
Ntp2530
Rp2531
(dp2532
g23
I01
sg24
Nsg26
g34
sg28
g35
sg30
I00
sbag1
(g19
g3
Ntp2533
Rp2534
(dp2535
g23
I01
sg24
Nsg26
g34
sg28
g35
sg30
I00
sbag1
(g19
g3
Ntp2536
Rp2537
(dp2538
g23
I01
sg24
Nsg26
g34
sg28
g35
sg30
I00
sbag1
(g19
g3
Ntp2539
Rp2540
(dp2541
g23
I00
sg24
Nsg26
g993
sg28
g994
sg30
I00
sbag1
(g19
g3
Ntp2542
Rp2543
(dp2544
g23
I00
sg24
g25
sg26
g27
sg28
g29
sg30
I01
sbag1
(g19
g3
Ntp2545
Rp2546
(dp2547
g23
I01
sg24
Nsg26
g34
sg28
g35
sg30
I00
sbag1
(g19
g3
Ntp2548
Rp2549
(dp2550
g23
I00
sg24
Nsg26
g66
sg28
g67
sg30
I00
sbaa(lp2551
g1
(g19
g3
Ntp2552
Rp2553
(dp2554
g23
I00
sg24
g25
sg26
g27
sg28
g29
sg30
I01
sbag1
(g19
g3
Ntp2555
Rp2556
(dp2557
g23
I01
sg24
Nsg26
g34
sg28
g35
sg30
I00
sbag1
(g19
g3
Ntp2558
Rp2559
(dp2560
g23
I00
sg24
g25
sg26
g27
sg28
g29
sg30
I01
sbag1
(g19
g3
Ntp2561
Rp2562
(dp2563
g23
I01
sg24
Nsg26
g34
sg28
g35
sg30
I00
sbag1
(g19
g3
Ntp2564
Rp2565
(dp2566
g23
I01
sg24
Nsg26
g34
sg28
g35
sg30
I00
sbag1
(g19
g3
Ntp2567
Rp2568
(dp2569
g23
I01
sg24
Nsg26
g34
sg28
g35
sg30
I00
sbag1
(g19
g3
Ntp2570
Rp2571
(dp2572
g23
I01
sg24
Nsg26
g34
sg28
g35
sg30
I00
sbag1
(g19
g3
Ntp2573
Rp2574
(dp2575
g23
I01
sg24
Nsg26
g34
sg28
g35
sg30
I00
sbag1
(g19
g3
Ntp2576
Rp2577
(dp2578
g23
I00
sg24
g25
sg26
g27
sg28
g29
sg30
I01
sbag1
(g19
g3
Ntp2579
Rp2580
(dp2581
g23
I00
sg24
Nsg26
g993
sg28
g994
sg30
I00
sbag1
(g19
g3
Ntp2582
Rp2583
(dp2584
g23
I01
sg24
Nsg26
g34
sg28
g35
sg30
I00
sbag1
(g19
g3
Ntp2585
Rp2586
(dp2587
g23
I00
sg24
Nsg26
g66
sg28
g67
sg30
I00
sbaa(lp2588
g1
(g19
g3
Ntp2589
Rp2590
(dp2591
g23
I01
sg24
Nsg26
g34
sg28
g35
sg30
I00
sbag1
(g19
g3
Ntp2592
Rp2593
(dp2594
g23
I01
sg24
Nsg26
g34
sg28
g35
sg30
I00
sbag1
(g19
g3
Ntp2595
Rp2596
(dp2597
g23
I01
sg24
Nsg26
g34
sg28
g35
sg30
I00
sbag1
(g19
g3
Ntp2598
Rp2599
(dp2600
g23
I01
sg24
Nsg26
g34
sg28
g35
sg30
I00
sbag1
(g19
g3
Ntp2601
Rp2602
(dp2603
g23
I00
sg24
g25
sg26
g27
sg28
g29
sg30
I01
sbag1
(g19
g3
Ntp2604
Rp2605
(dp2606
g23
I01
sg24
Nsg26
g34
sg28
g35
sg30
I00
sbag1
(g19
g3
Ntp2607
Rp2608
(dp2609
g23
I00
sg24
g25
sg26
g27
sg28
g29
sg30
I01
sbag1
(g19
g3
Ntp2610
Rp2611
(dp2612
g23
I01
sg24
Nsg26
g34
sg28
g35
sg30
I00
sbag1
(g19
g3
Ntp2613
Rp2614
(dp2615
g23
I00
sg24
Nsg26
g993
sg28
g994
sg30
I00
sbag1
(g19
g3
Ntp2616
Rp2617
(dp2618
g23
I01
sg24
Nsg26
g34
sg28
g35
sg30
I00
sbag1
(g19
g3
Ntp2619
Rp2620
(dp2621
g23
I00
sg24
Nsg26
g993
sg28
g994
sg30
I00
sbag1
(g19
g3
Ntp2622
Rp2623
(dp2624
g23
I00
sg24
Nsg26
g66
sg28
g67
sg30
I00
sbaa(lp2625
g1
(g19
g3
Ntp2626
Rp2627
(dp2628
g23
I00
sg24
g25
sg26
g27
sg28
g29
sg30
I01
sbag1
(g19
g3
Ntp2629
Rp2630
(dp2631
g23
I01
sg24
Nsg26
g34
sg28
g35
sg30
I00
sbag1
(g19
g3
Ntp2632
Rp2633
(dp2634
g23
I01
sg24
Nsg26
g34
sg28
g35
sg30
I00
sbag1
(g19
g3
Ntp2635
Rp2636
(dp2637
g23
I01
sg24
Nsg26
g34
sg28
g35
sg30
I00
sbag1
(g19
g3
Ntp2638
Rp2639
(dp2640
g23
I01
sg24
Nsg26
g34
sg28
g35
sg30
I00
sbag1
(g19
g3
Ntp2641
Rp2642
(dp2643
g23
I01
sg24
Nsg26
g34
sg28
g35
sg30
I00
sbag1
(g19
g3
Ntp2644
Rp2645
(dp2646
g23
I01
sg24
Nsg26
g34
sg28
g35
sg30
I00
sbag1
(g19
g3
Ntp2647
Rp2648
(dp2649
g23
I01
sg24
Nsg26
g34
sg28
g35
sg30
I00
sbag1
(g19
g3
Ntp2650
Rp2651
(dp2652
g23
I01
sg24
Nsg26
g34
sg28
g35
sg30
I00
sbag1
(g19
g3
Ntp2653
Rp2654
(dp2655
g23
I00
sg24
g25
sg26
g27
sg28
g29
sg30
I01
sbag1
(g19
g3
Ntp2656
Rp2657
(dp2658
g23
I00
sg24
g25
sg26
g27
sg28
g29
sg30
I01
sbag1
(g19
g3
Ntp2659
Rp2660
(dp2661
g23
I00
sg24
Nsg26
g66
sg28
g67
sg30
I00
sbaa(lp2662
g1
(g19
g3
Ntp2663
Rp2664
(dp2665
g23
I01
sg24
Nsg26
g34
sg28
g35
sg30
I00
sbag1
(g19
g3
Ntp2666
Rp2667
(dp2668
g23
I01
sg24
Nsg26
g34
sg28
g35
sg30
I00
sbag1
(g19
g3
Ntp2669
Rp2670
(dp2671
g23
I00
sg24
g25
sg26
g27
sg28
g29
sg30
I01
sbag1
(g19
g3
Ntp2672
Rp2673
(dp2674
g23
I01
sg24
Nsg26
g34
sg28
g35
sg30
I00
sbag1
(g19
g3
Ntp2675
Rp2676
(dp2677
g23
I00
sg24
g25
sg26
g27
sg28
g29
sg30
I01
sbag1
(g19
g3
Ntp2678
Rp2679
(dp2680
g23
I01
sg24
Nsg26
g34
sg28
g35
sg30
I00
sbag1
(g19
g3
Ntp2681
Rp2682
(dp2683
g23
I01
sg24
Nsg26
g34
sg28
g35
sg30
I00
sbag1
(g19
g3
Ntp2684
Rp2685
(dp2686
g23
I00
sg24
g25
sg26
g27
sg28
g29
sg30
I01
sbag1
(g19
g3
Ntp2687
Rp2688
(dp2689
g23
I01
sg24
Nsg26
g34
sg28
g35
sg30
I00
sbag1
(g19
g3
Ntp2690
Rp2691
(dp2692
g23
I01
sg24
Nsg26
g34
sg28
g35
sg30
I00
sbag1
(g19
g3
Ntp2693
Rp2694
(dp2695
g23
I01
sg24
Nsg26
g34
sg28
g35
sg30
I00
sbag1
(g19
g3
Ntp2696
Rp2697
(dp2698
g23
I00
sg24
Nsg26
g66
sg28
g67
sg30
I00
sbaa(lp2699
g1
(g19
g3
Ntp2700
Rp2701
(dp2702
g23
I00
sg24
Nsg26
g66
sg28
g67
sg30
I00
sbag1
(g19
g3
Ntp2703
Rp2704
(dp2705
g23
I00
sg24
Nsg26
g66
sg28
g67
sg30
I00
sbag1
(g19
g3
Ntp2706
Rp2707
(dp2708
g23
I00
sg24
Nsg26
g66
sg28
g67
sg30
I00
sbag1
(g19
g3
Ntp2709
Rp2710
(dp2711
g23
I00
sg24
Nsg26
g66
sg28
g67
sg30
I00
sbag1
(g19
g3
Ntp2712
Rp2713
(dp2714
g23
I00
sg24
Nsg26
g66
sg28
g67
sg30
I00
sbag1
(g19
g3
Ntp2715
Rp2716
(dp2717
g23
I00
sg24
Nsg26
g66
sg28
g67
sg30
I00
sbag1
(g19
g3
Ntp2718
Rp2719
(dp2720
g23
I00
sg24
Nsg26
g66
sg28
g67
sg30
I00
sbag1
(g19
g3
Ntp2721
Rp2722
(dp2723
g23
I00
sg24
Nsg26
g66
sg28
g67
sg30
I00
sbag1
(g19
g3
Ntp2724
Rp2725
(dp2726
g23
I00
sg24
Nsg26
g66
sg28
g67
sg30
I00
sbag1
(g19
g3
Ntp2727
Rp2728
(dp2729
g23
I00
sg24
Nsg26
g66
sg28
g67
sg30
I00
sbag1
(g19
g3
Ntp2730
Rp2731
(dp2732
g23
I00
sg24
Nsg26
g66
sg28
g67
sg30
I00
sbag1
(g19
g3
Ntp2733
Rp2734
(dp2735
g23
I00
sg24
Nsg26
g66
sg28
g67
sg30
I00
sbaasg475
(I0
I-1
tp2736
sbs(I1
I0
tp2737
g1
(g12
g3
Ntp2738
Rp2739
(dp2740
g16
(lp2741
(lp2742
g1
(g19
g3
Ntp2743
Rp2744
(dp2745
g23
I00
sg24
g25
sg26
g27
sg28
g29
sg30
I01
sbag1
(g19
g3
Ntp2746
Rp2747
(dp2748
g23
I01
sg24
Nsg26
g34
sg28
g35
sg30
I00
sbag1
(g19
g3
Ntp2749
Rp2750
(dp2751
g23
I00
sg24
g25
sg26
g27
sg28
g29
sg30
I01
sbag1
(g19
g3
Ntp2752
Rp2753
(dp2754
g23
I01
sg24
Nsg26
g34
sg28
g35
sg30
I00
sbag1
(g19
g3
Ntp2755
Rp2756
(dp2757
g23
I00
sg24
g25
sg26
g27
sg28
g29
sg30
I01
sbag1
(g19
g3
Ntp2758
Rp2759
(dp2760
g23
I01
sg24
Nsg26
g34
sg28
g35
sg30
I00
sbag1
(g19
g3
Ntp2761
Rp2762
(dp2763
g23
I00
sg24
g25
sg26
g27
sg28
g29
sg30
I01
sbag1
(g19
g3
Ntp2764
Rp2765
(dp2766
g23
I01
sg24
Nsg26
g34
sg28
g35
sg30
I00
sbag1
(g19
g3
Ntp2767
Rp2768
(dp2769
g23
I01
sg24
Nsg26
g34
sg28
g35
sg30
I00
sbag1
(g19
g3
Ntp2770
Rp2771
(dp2772
g23
I00
sg24
g25
sg26
g27
sg28
g29
sg30
I01
sbag1
(g19
g3
Ntp2773
Rp2774
(dp2775
g23
I01
sg24
Nsg26
g34
sg28
g35
sg30
I00
sbag1
(g19
g3
Ntp2776
Rp2777
(dp2778
g23
I00
sg24
Nsg26
g66
sg28
g67
sg30
I00
sbaa(lp2779
g1
(g19
g3
Ntp2780
Rp2781
(dp2782
g23
I01
sg24
Nsg26
g34
sg28
g35
sg30
I00
sbag1
(g19
g3
Ntp2783
Rp2784
(dp2785
g23
I01
sg24
Nsg26
g34
sg28
g35
sg30
I00
sbag1
(g19
g3
Ntp2786
Rp2787
(dp2788
g23
I01
sg24
Nsg26
g34
sg28
g35
sg30
I00
sbag1
(g19
g3
Ntp2789
Rp2790
(dp2791
g23
I01
sg24
Nsg26
g34
sg28
g35
sg30
I00
sbag1
(g19
g3
Ntp2792
Rp2793
(dp2794
g23
I01
sg24
Nsg26
g34
sg28
g35
sg30
I00
sbag1
(g19
g3
Ntp2795
Rp2796
(dp2797
g23
I01
sg24
Nsg26
g34
sg28
g35
sg30
I00
sbag1
(g19
g3
Ntp2798
Rp2799
(dp2800
g23
I01
sg24
Nsg26
g34
sg28
g35
sg30
I00
sbag1
(g19
g3
Ntp2801
Rp2802
(dp2803
g23
I01
sg24
Nsg26
g34
sg28
g35
sg30
I00
sbag1
(g19
g3
Ntp2804
Rp2805
(dp2806
g23
I01
sg24
Nsg26
g34
sg28
g35
sg30
I00
sbag1
(g19
g3
Ntp2807
Rp2808
(dp2809
g23
I01
sg24
Nsg26
g34
sg28
g35
sg30
I00
sbag1
(g19
g3
Ntp2810
Rp2811
(dp2812
g23
I01
sg24
Nsg26
g34
sg28
g35
sg30
I00
sbag1
(g19
g3
Ntp2813
Rp2814
(dp2815
g23
I00
sg24
Nsg26
g66
sg28
g67
sg30
I00
sbaa(lp2816
g1
(g19
g3
Ntp2817
Rp2818
(dp2819
g23
I00
sg24
g25
sg26
g27
sg28
g29
sg30
I01
sbag1
(g19
g3
Ntp2820
Rp2821
(dp2822
g23
I01
sg24
Nsg26
g34
sg28
g35
sg30
I00
sbag1
(g19
g3
Ntp2823
Rp2824
(dp2825
g23
I00
sg24
g25
sg26
g27
sg28
g29
sg30
I01
sbag1
(g19
g3
Ntp2826
Rp2827
(dp2828
g23
I01
sg24
Nsg26
g34
sg28
g35
sg30
I00
sbag1
(g19
g3
Ntp2829
Rp2830
(dp2831
g23
I00
sg24
g25
sg26
g27
sg28
g29
sg30
I01
sbag1
(g19
g3
Ntp2832
Rp2833
(dp2834
g23
I01
sg24
Nsg26
g34
sg28
g35
sg30
I00
sbag1
(g19
g3
Ntp2835
Rp2836
(dp2837
g23
I00
sg24
g25
sg26
g27
sg28
g29
sg30
I01
sbag1
(g19
g3
Ntp2838
Rp2839
(dp2840
g23
I01
sg24
Nsg26
g34
sg28
g35
sg30
I00
sbag1
(g19
g3
Ntp2841
Rp2842
(dp2843
g23
I01
sg24
Nsg26
g34
sg28
g35
sg30
I00
sbag1
(g19
g3
Ntp2844
Rp2845
(dp2846
g23
I01
sg24
Nsg26
g34
sg28
g35
sg30
I00
sbag1
(g19
g3
Ntp2847
Rp2848
(dp2849
g23
I00
sg24
g25
sg26
g27
sg28
g29
sg30
I01
sbag1
(g19
g3
Ntp2850
Rp2851
(dp2852
g23
I00
sg24
Nsg26
g66
sg28
g67
sg30
I00
sbaa(lp2853
g1
(g19
g3
Ntp2854
Rp2855
(dp2856
g23
I01
sg24
Nsg26
g34
sg28
g35
sg30
I00
sbag1
(g19
g3
Ntp2857
Rp2858
(dp2859
g23
I01
sg24
Nsg26
g34
sg28
g35
sg30
I00
sbag1
(g19
g3
Ntp2860
Rp2861
(dp2862
g23
I01
sg24
Nsg26
g34
sg28
g35
sg30
I00
sbag1
(g19
g3
Ntp2863
Rp2864
(dp2865
g23
I01
sg24
Nsg26
g34
sg28
g35
sg30
I00
sbag1
(g19
g3
Ntp2866
Rp2867
(dp2868
g23
I01
sg24
Nsg26
g34
sg28
g35
sg30
I00
sbag1
(g19
g3
Ntp2869
Rp2870
(dp2871
g23
I01
sg24
Nsg26
g34
sg28
g35
sg30
I00
sbag1
(g19
g3
Ntp2872
Rp2873
(dp2874
g23
I01
sg24
Nsg26
g34
sg28
g35
sg30
I00
sbag1
(g19
g3
Ntp2875
Rp2876
(dp2877
g23
I01
sg24
Nsg26
g34
sg28
g35
sg30
I00
sbag1
(g19
g3
Ntp2878
Rp2879
(dp2880
g23
I00
sg24
g25
sg26
g27
sg28
g29
sg30
I01
sbag1
(g19
g3
Ntp2881
Rp2882
(dp2883
g23
I01
sg24
Nsg26
g34
sg28
g35
sg30
I00
sbag1
(g19
g3
Ntp2884
Rp2885
(dp2886
g23
I01
sg24
Nsg26
g34
sg28
g35
sg30
I00
sbag1
(g19
g3
Ntp2887
Rp2888
(dp2889
g23
I00
sg24
Nsg26
g66
sg28
g67
sg30
I00
sbaa(lp2890
g1
(g19
g3
Ntp2891
Rp2892
(dp2893
g23
I00
sg24
g25
sg26
g27
sg28
g29
sg30
I01
sbag1
(g19
g3
Ntp2894
Rp2895
(dp2896
g23
I01
sg24
Nsg26
g34
sg28
g35
sg30
I00
sbag1
(g19
g3
Ntp2897
Rp2898
(dp2899
g23
I00
sg24
g25
sg26
g27
sg28
g29
sg30
I01
sbag1
(g19
g3
Ntp2900
Rp2901
(dp2902
g23
I01
sg24
Nsg26
g34
sg28
g35
sg30
I00
sbag1
(g19
g3
Ntp2903
Rp2904
(dp2905
g23
I01
sg24
Nsg26
g34
sg28
g35
sg30
I00
sbag1
(g19
g3
Ntp2906
Rp2907
(dp2908
g23
I00
sg24
g25
sg26
g27
sg28
g29
sg30
I01
sbag1
(g19
g3
Ntp2909
Rp2910
(dp2911
g23
I01
sg24
Nsg26
g34
sg28
g35
sg30
I00
sbag1
(g19
g3
Ntp2912
Rp2913
(dp2914
g23
I01
sg24
Nsg26
g34
sg28
g35
sg30
I00
sbag1
(g19
g3
Ntp2915
Rp2916
(dp2917
g23
I01
sg24
Nsg26
g34
sg28
g35
sg30
I00
sbag1
(g19
g3
Ntp2918
Rp2919
(dp2920
g23
I01
sg24
Nsg26
g34
sg28
g35
sg30
I00
sbag1
(g19
g3
Ntp2921
Rp2922
(dp2923
g23
I01
sg24
Nsg26
g34
sg28
g35
sg30
I00
sbag1
(g19
g3
Ntp2924
Rp2925
(dp2926
g23
I00
sg24
Nsg26
g66
sg28
g67
sg30
I00
sbaa(lp2927
g1
(g19
g3
Ntp2928
Rp2929
(dp2930
g23
I01
sg24
Nsg26
g34
sg28
g35
sg30
I00
sbag1
(g19
g3
Ntp2931
Rp2932
(dp2933
g23
I01
sg24
Nsg26
g34
sg28
g35
sg30
I00
sbag1
(g19
g3
Ntp2934
Rp2935
(dp2936
g23
I01
sg24
Nsg26
g34
sg28
g35
sg30
I00
sbag1
(g19
g3
Ntp2937
Rp2938
(dp2939
g23
I01
sg24
Nsg26
g34
sg28
g35
sg30
I00
sbag1
(g19
g3
Ntp2940
Rp2941
(dp2942
g23
I01
sg24
Nsg26
g34
sg28
g35
sg30
I00
sbag1
(g19
g3
Ntp2943
Rp2944
(dp2945
g23
I01
sg24
Nsg26
g34
sg28
g35
sg30
I00
sbag1
(g19
g3
Ntp2946
Rp2947
(dp2948
g23
I00
sg24
g25
sg26
g27
sg28
g29
sg30
I01
sbag1
(g19
g3
Ntp2949
Rp2950
(dp2951
g23
I00
sg24
Nsg26
g993
sg28
g994
sg30
I00
sbag1
(g19
g3
Ntp2952
Rp2953
(dp2954
g23
I01
sg24
Nsg26
g34
sg28
g35
sg30
I00
sbag1
(g19
g3
Ntp2955
Rp2956
(dp2957
g23
I00
sg24
g25
sg26
g27
sg28
g29
sg30
I01
sbag1
(g19
g3
Ntp2958
Rp2959
(dp2960
g23
I01
sg24
Nsg26
g34
sg28
g35
sg30
I00
sbag1
(g19
g3
Ntp2961
Rp2962
(dp2963
g23
I00
sg24
Nsg26
g66
sg28
g67
sg30
I00
sbaa(lp2964
g1
(g19
g3
Ntp2965
Rp2966
(dp2967
g23
I00
sg24
g25
sg26
g27
sg28
g29
sg30
I01
sbag1
(g19
g3
Ntp2968
Rp2969
(dp2970
g23
I01
sg24
Nsg26
g34
sg28
g35
sg30
I00
sbag1
(g19
g3
Ntp2971
Rp2972
(dp2973
g23
I01
sg24
Nsg26
g34
sg28
g35
sg30
I00
sbag1
(g19
g3
Ntp2974
Rp2975
(dp2976
g23
I00
sg24
g25
sg26
g27
sg28
g29
sg30
I01
sbag1
(g19
g3
Ntp2977
Rp2978
(dp2979
g23
I01
sg24
Nsg26
g34
sg28
g35
sg30
I00
sbag1
(g19
g3
Ntp2980
Rp2981
(dp2982
g23
I01
sg24
Nsg26
g34
sg28
g35
sg30
I00
sbag1
(g19
g3
Ntp2983
Rp2984
(dp2985
g23
I01
sg24
Nsg26
g34
sg28
g35
sg30
I00
sbag1
(g19
g3
Ntp2986
Rp2987
(dp2988
g23
I01
sg24
Nsg26
g34
sg28
g35
sg30
I00
sbag1
(g19
g3
Ntp2989
Rp2990
(dp2991
g23
I00
sg24
g25
sg26
g27
sg28
g29
sg30
I01
sbag1
(g19
g3
Ntp2992
Rp2993
(dp2994
g23
I01
sg24
Nsg26
g34
sg28
g35
sg30
I00
sbag1
(g19
g3
Ntp2995
Rp2996
(dp2997
g23
I01
sg24
Nsg26
g34
sg28
g35
sg30
I00
sbag1
(g19
g3
Ntp2998
Rp2999
(dp3000
g23
I00
sg24
Nsg26
g66
sg28
g67
sg30
I00
sbaa(lp3001
g1
(g19
g3
Ntp3002
Rp3003
(dp3004
g23
I01
sg24
Nsg26
g34
sg28
g35
sg30
I00
sbag1
(g19
g3
Ntp3005
Rp3006
(dp3007
g23
I01
sg24
Nsg26
g34
sg28
g35
sg30
I00
sbag1
(g19
g3
Ntp3008
Rp3009
(dp3010
g23
I01
sg24
Nsg26
g34
sg28
g35
sg30
I00
sbag1
(g19
g3
Ntp3011
Rp3012
(dp3013
g23
I01
sg24
Nsg26
g34
sg28
g35
sg30
I00
sbag1
(g19
g3
Ntp3014
Rp3015
(dp3016
g23
I01
sg24
Nsg26
g34
sg28
g35
sg30
I00
sbag1
(g19
g3
Ntp3017
Rp3018
(dp3019
g23
I00
sg24
g25
sg26
g27
sg28
g29
sg30
I01
sbag1
(g19
g3
Ntp3020
Rp3021
(dp3022
g23
I01
sg24
Nsg26
g34
sg28
g35
sg30
I00
sbag1
(g19
g3
Ntp3023
Rp3024
(dp3025
g23
I01
sg24
Nsg26
g34
sg28
g35
sg30
I00
sbag1
(g19
g3
Ntp3026
Rp3027
(dp3028
g23
I01
sg24
Nsg26
g34
sg28
g35
sg30
I00
sbag1
(g19
g3
Ntp3029
Rp3030
(dp3031
g23
I01
sg24
Nsg26
g34
sg28
g35
sg30
I00
sbag1
(g19
g3
Ntp3032
Rp3033
(dp3034
g23
I01
sg24
Nsg26
g34
sg28
g35
sg30
I00
sbag1
(g19
g3
Ntp3035
Rp3036
(dp3037
g23
I00
sg24
Nsg26
g66
sg28
g67
sg30
I00
sbaa(lp3038
g1
(g19
g3
Ntp3039
Rp3040
(dp3041
g23
I01
sg24
Nsg26
g34
sg28
g35
sg30
I00
sbag1
(g19
g3
Ntp3042
Rp3043
(dp3044
g23
I01
sg24
Nsg26
g34
sg28
g35
sg30
I00
sbag1
(g19
g3
Ntp3045
Rp3046
(dp3047
g23
I01
sg24
Nsg26
g34
sg28
g35
sg30
I00
sbag1
(g19
g3
Ntp3048
Rp3049
(dp3050
g23
I01
sg24
Nsg26
g34
sg28
g35
sg30
I00
sbag1
(g19
g3
Ntp3051
Rp3052
(dp3053
g23
I01
sg24
Nsg26
g34
sg28
g35
sg30
I00
sbag1
(g19
g3
Ntp3054
Rp3055
(dp3056
g23
I01
sg24
Nsg26
g34
sg28
g35
sg30
I00
sbag1
(g19
g3
Ntp3057
Rp3058
(dp3059
g23
I01
sg24
Nsg26
g34
sg28
g35
sg30
I00
sbag1
(g19
g3
Ntp3060
Rp3061
(dp3062
g23
I00
sg24
g25
sg26
g27
sg28
g29
sg30
I01
sbag1
(g19
g3
Ntp3063
Rp3064
(dp3065
g23
I01
sg24
Nsg26
g34
sg28
g35
sg30
I00
sbag1
(g19
g3
Ntp3066
Rp3067
(dp3068
g23
I00
sg24
g25
sg26
g27
sg28
g29
sg30
I01
sbag1
(g19
g3
Ntp3069
Rp3070
(dp3071
g23
I01
sg24
Nsg26
g34
sg28
g35
sg30
I00
sbag1
(g19
g3
Ntp3072
Rp3073
(dp3074
g23
I00
sg24
Nsg26
g66
sg28
g67
sg30
I00
sbaa(lp3075
g1
(g19
g3
Ntp3076
Rp3077
(dp3078
g23
I01
sg24
Nsg26
g34
sg28
g35
sg30
I00
sbag1
(g19
g3
Ntp3079
Rp3080
(dp3081
g23
I01
sg24
Nsg26
g34
sg28
g35
sg30
I00
sbag1
(g19
g3
Ntp3082
Rp3083
(dp3084
g23
I01
sg24
Nsg26
g34
sg28
g35
sg30
I00
sbag1
(g19
g3
Ntp3085
Rp3086
(dp3087
g23
I01
sg24
Nsg26
g34
sg28
g35
sg30
I00
sbag1
(g19
g3
Ntp3088
Rp3089
(dp3090
g23
I01
sg24
Nsg26
g34
sg28
g35
sg30
I00
sbag1
(g19
g3
Ntp3091
Rp3092
(dp3093
g23
I00
sg24
g25
sg26
g27
sg28
g29
sg30
I01
sbag1
(g19
g3
Ntp3094
Rp3095
(dp3096
g23
I01
sg24
Nsg26
g34
sg28
g35
sg30
I00
sbag1
(g19
g3
Ntp3097
Rp3098
(dp3099
g23
I01
sg24
Nsg26
g34
sg28
g35
sg30
I00
sbag1
(g19
g3
Ntp3100
Rp3101
(dp3102
g23
I01
sg24
Nsg26
g34
sg28
g35
sg30
I00
sbag1
(g19
g3
Ntp3103
Rp3104
(dp3105
g23
I01
sg24
Nsg26
g34
sg28
g35
sg30
I00
sbag1
(g19
g3
Ntp3106
Rp3107
(dp3108
g23
I01
sg24
Nsg26
g34
sg28
g35
sg30
I00
sbag1
(g19
g3
Ntp3109
Rp3110
(dp3111
g23
I00
sg24
Nsg26
g66
sg28
g67
sg30
I00
sbaa(lp3112
g1
(g19
g3
Ntp3113
Rp3114
(dp3115
g23
I01
sg24
Nsg26
g34
sg28
g35
sg30
I00
sbag1
(g19
g3
Ntp3116
Rp3117
(dp3118
g23
I01
sg24
Nsg26
g34
sg28
g35
sg30
I00
sbag1
(g19
g3
Ntp3119
Rp3120
(dp3121
g23
I01
sg24
Nsg26
g34
sg28
g35
sg30
I00
sbag1
(g19
g3
Ntp3122
Rp3123
(dp3124
g23
I00
sg24
g25
sg26
g27
sg28
g29
sg30
I01
sbag1
(g19
g3
Ntp3125
Rp3126
(dp3127
g23
I01
sg24
Nsg26
g34
sg28
g35
sg30
I00
sbag1
(g19
g3
Ntp3128
Rp3129
(dp3130
g23
I01
sg24
Nsg26
g34
sg28
g35
sg30
I00
sbag1
(g19
g3
Ntp3131
Rp3132
(dp3133
g23
I01
sg24
Nsg26
g34
sg28
g35
sg30
I00
sbag1
(g19
g3
Ntp3134
Rp3135
(dp3136
g23
I01
sg24
Nsg26
g34
sg28
g35
sg30
I00
sbag1
(g19
g3
Ntp3137
Rp3138
(dp3139
g23
I01
sg24
Nsg26
g34
sg28
g35
sg30
I00
sbag1
(g19
g3
Ntp3140
Rp3141
(dp3142
g23
I01
sg24
Nsg26
g34
sg28
g35
sg30
I00
sbag1
(g19
g3
Ntp3143
Rp3144
(dp3145
g23
I00
sg24
g25
sg26
g27
sg28
g29
sg30
I01
sbag1
(g19
g3
Ntp3146
Rp3147
(dp3148
g23
I00
sg24
Nsg26
g66
sg28
g67
sg30
I00
sbaa(lp3149
g1
(g19
g3
Ntp3150
Rp3151
(dp3152
g23
I00
sg24
Nsg26
g66
sg28
g67
sg30
I00
sbag1
(g19
g3
Ntp3153
Rp3154
(dp3155
g23
I00
sg24
Nsg26
g66
sg28
g67
sg30
I00
sbag1
(g19
g3
Ntp3156
Rp3157
(dp3158
g23
I00
sg24
Nsg26
g66
sg28
g67
sg30
I00
sbag1
(g19
g3
Ntp3159
Rp3160
(dp3161
g23
I00
sg24
Nsg26
g66
sg28
g67
sg30
I00
sbag1
(g19
g3
Ntp3162
Rp3163
(dp3164
g23
I00
sg24
Nsg26
g66
sg28
g67
sg30
I00
sbag1
(g19
g3
Ntp3165
Rp3166
(dp3167
g23
I00
sg24
Nsg26
g66
sg28
g67
sg30
I00
sbag1
(g19
g3
Ntp3168
Rp3169
(dp3170
g23
I00
sg24
Nsg26
g66
sg28
g67
sg30
I00
sbag1
(g19
g3
Ntp3171
Rp3172
(dp3173
g23
I00
sg24
Nsg26
g66
sg28
g67
sg30
I00
sbag1
(g19
g3
Ntp3174
Rp3175
(dp3176
g23
I00
sg24
Nsg26
g66
sg28
g67
sg30
I00
sbag1
(g19
g3
Ntp3177
Rp3178
(dp3179
g23
I00
sg24
Nsg26
g66
sg28
g67
sg30
I00
sbag1
(g19
g3
Ntp3180
Rp3181
(dp3182
g23
I00
sg24
Nsg26
g66
sg28
g67
sg30
I00
sbag1
(g19
g3
Ntp3183
Rp3184
(dp3185
g23
I00
sg24
Nsg26
g66
sg28
g67
sg30
I00
sbaasg475
(I1
I0
tp3186
sbs(I1
I-1
tp3187
g1
(g12
g3
Ntp3188
Rp3189
(dp3190
g16
(lp3191
(lp3192
g1
(g19
g3
Ntp3193
Rp3194
(dp3195
g23
I01
sg24
Nsg26
g34
sg28
g35
sg30
I00
sbag1
(g19
g3
Ntp3196
Rp3197
(dp3198
g23
I01
sg24
Nsg26
g34
sg28
g35
sg30
I00
sbag1
(g19
g3
Ntp3199
Rp3200
(dp3201
g23
I01
sg24
Nsg26
g34
sg28
g35
sg30
I00
sbag1
(g19
g3
Ntp3202
Rp3203
(dp3204
g23
I00
sg24
g25
sg26
g27
sg28
g29
sg30
I01
sbag1
(g19
g3
Ntp3205
Rp3206
(dp3207
g23
I01
sg24
Nsg26
g34
sg28
g35
sg30
I00
sbag1
(g19
g3
Ntp3208
Rp3209
(dp3210
g23
I00
sg24
g25
sg26
g27
sg28
g29
sg30
I01
sbag1
(g19
g3
Ntp3211
Rp3212
(dp3213
g23
I01
sg24
Nsg26
g34
sg28
g35
sg30
I00
sbag1
(g19
g3
Ntp3214
Rp3215
(dp3216
g23
I00
sg24
g25
sg26
g27
sg28
g29
sg30
I01
sbag1
(g19
g3
Ntp3217
Rp3218
(dp3219
g23
I01
sg24
Nsg26
g34
sg28
g35
sg30
I00
sbag1
(g19
g3
Ntp3220
Rp3221
(dp3222
g23
I00
sg24
g25
sg26
g27
sg28
g29
sg30
I01
sbag1
(g19
g3
Ntp3223
Rp3224
(dp3225
g23
I01
sg24
Nsg26
g34
sg28
g35
sg30
I00
sbag1
(g19
g3
Ntp3226
Rp3227
(dp3228
g23
I00
sg24
Nsg26
g66
sg28
g67
sg30
I00
sbaa(lp3229
g1
(g19
g3
Ntp3230
Rp3231
(dp3232
g23
I01
sg24
Nsg26
g34
sg28
g35
sg30
I00
sbag1
(g19
g3
Ntp3233
Rp3234
(dp3235
g23
I00
sg24
g25
sg26
g27
sg28
g29
sg30
I01
sbag1
(g19
g3
Ntp3236
Rp3237
(dp3238
g23
I01
sg24
Nsg26
g34
sg28
g35
sg30
I00
sbag1
(g19
g3
Ntp3239
Rp3240
(dp3241
g23
I01
sg24
Nsg26
g34
sg28
g35
sg30
I00
sbag1
(g19
g3
Ntp3242
Rp3243
(dp3244
g23
I01
sg24
Nsg26
g34
sg28
g35
sg30
I00
sbag1
(g19
g3
Ntp3245
Rp3246
(dp3247
g23
I01
sg24
Nsg26
g34
sg28
g35
sg30
I00
sbag1
(g19
g3
Ntp3248
Rp3249
(dp3250
g23
I01
sg24
Nsg26
g34
sg28
g35
sg30
I00
sbag1
(g19
g3
Ntp3251
Rp3252
(dp3253
g23
I01
sg24
Nsg26
g34
sg28
g35
sg30
I00
sbag1
(g19
g3
Ntp3254
Rp3255
(dp3256
g23
I01
sg24
Nsg26
g34
sg28
g35
sg30
I00
sbag1
(g19
g3
Ntp3257
Rp3258
(dp3259
g23
I01
sg24
Nsg26
g34
sg28
g35
sg30
I00
sbag1
(g19
g3
Ntp3260
Rp3261
(dp3262
g23
I01
sg24
Nsg26
g34
sg28
g35
sg30
I00
sbag1
(g19
g3
Ntp3263
Rp3264
(dp3265
g23
I00
sg24
Nsg26
g66
sg28
g67
sg30
I00
sbaa(lp3266
g1
(g19
g3
Ntp3267
Rp3268
(dp3269
g23
I01
sg24
Nsg26
g34
sg28
g35
sg30
I00
sbag1
(g19
g3
Ntp3270
Rp3271
(dp3272
g23
I01
sg24
Nsg26
g34
sg28
g35
sg30
I00
sbag1
(g19
g3
Ntp3273
Rp3274
(dp3275
g23
I01
sg24
Nsg26
g34
sg28
g35
sg30
I00
sbag1
(g19
g3
Ntp3276
Rp3277
(dp3278
g23
I00
sg24
g25
sg26
g27
sg28
g29
sg30
I01
sbag1
(g19
g3
Ntp3279
Rp3280
(dp3281
g23
I01
sg24
Nsg26
g34
sg28
g35
sg30
I00
sbag1
(g19
g3
Ntp3282
Rp3283
(dp3284
g23
I00
sg24
g25
sg26
g27
sg28
g29
sg30
I01
sbag1
(g19
g3
Ntp3285
Rp3286
(dp3287
g23
I01
sg24
Nsg26
g34
sg28
g35
sg30
I00
sbag1
(g19
g3
Ntp3288
Rp3289
(dp3290
g23
I00
sg24
g25
sg26
g27
sg28
g29
sg30
I01
sbag1
(g19
g3
Ntp3291
Rp3292
(dp3293
g23
I01
sg24
Nsg26
g34
sg28
g35
sg30
I00
sbag1
(g19
g3
Ntp3294
Rp3295
(dp3296
g23
I00
sg24
Nsg26
g993
sg28
g994
sg30
I00
sbag1
(g19
g3
Ntp3297
Rp3298
(dp3299
g23
I01
sg24
Nsg26
g34
sg28
g35
sg30
I00
sbag1
(g19
g3
Ntp3300
Rp3301
(dp3302
g23
I00
sg24
Nsg26
g66
sg28
g67
sg30
I00
sbaa(lp3303
g1
(g19
g3
Ntp3304
Rp3305
(dp3306
g23
I01
sg24
Nsg26
g34
sg28
g35
sg30
I00
sbag1
(g19
g3
Ntp3307
Rp3308
(dp3309
g23
I00
sg24
g25
sg26
g27
sg28
g29
sg30
I01
sbag1
(g19
g3
Ntp3310
Rp3311
(dp3312
g23
I01
sg24
Nsg26
g34
sg28
g35
sg30
I00
sbag1
(g19
g3
Ntp3313
Rp3314
(dp3315
g23
I01
sg24
Nsg26
g34
sg28
g35
sg30
I00
sbag1
(g19
g3
Ntp3316
Rp3317
(dp3318
g23
I01
sg24
Nsg26
g34
sg28
g35
sg30
I00
sbag1
(g19
g3
Ntp3319
Rp3320
(dp3321
g23
I01
sg24
Nsg26
g34
sg28
g35
sg30
I00
sbag1
(g19
g3
Ntp3322
Rp3323
(dp3324
g23
I01
sg24
Nsg26
g34
sg28
g35
sg30
I00
sbag1
(g19
g3
Ntp3325
Rp3326
(dp3327
g23
I00
sg24
Nsg26
g993
sg28
g994
sg30
I00
sbag1
(g19
g3
Ntp3328
Rp3329
(dp3330
g23
I01
sg24
Nsg26
g34
sg28
g35
sg30
I00
sbag1
(g19
g3
Ntp3331
Rp3332
(dp3333
g23
I00
sg24
g25
sg26
g27
sg28
g29
sg30
I01
sbag1
(g19
g3
Ntp3334
Rp3335
(dp3336
g23
I01
sg24
Nsg26
g34
sg28
g35
sg30
I00
sbag1
(g19
g3
Ntp3337
Rp3338
(dp3339
g23
I00
sg24
Nsg26
g66
sg28
g67
sg30
I00
sbaa(lp3340
g1
(g19
g3
Ntp3341
Rp3342
(dp3343
g23
I01
sg24
Nsg26
g34
sg28
g35
sg30
I00
sbag1
(g19
g3
Ntp3344
Rp3345
(dp3346
g23
I01
sg24
Nsg26
g34
sg28
g35
sg30
I00
sbag1
(g19
g3
Ntp3347
Rp3348
(dp3349
g23
I01
sg24
Nsg26
g34
sg28
g35
sg30
I00
sbag1
(g19
g3
Ntp3350
Rp3351
(dp3352
g23
I01
sg24
Nsg26
g34
sg28
g35
sg30
I00
sbag1
(g19
g3
Ntp3353
Rp3354
(dp3355
g23
I01
sg24
Nsg26
g34
sg28
g35
sg30
I00
sbag1
(g19
g3
Ntp3356
Rp3357
(dp3358
g23
I01
sg24
Nsg26
g34
sg28
g35
sg30
I00
sbag1
(g19
g3
Ntp3359
Rp3360
(dp3361
g23
I01
sg24
Nsg26
g34
sg28
g35
sg30
I00
sbag1
(g19
g3
Ntp3362
Rp3363
(dp3364
g23
I00
sg24
g25
sg26
g27
sg28
g29
sg30
I01
sbag1
(g19
g3
Ntp3365
Rp3366
(dp3367
g23
I00
sg24
g25
sg26
g27
sg28
g29
sg30
I01
sbag1
(g19
g3
Ntp3368
Rp3369
(dp3370
g23
I01
sg24
Nsg26
g34
sg28
g35
sg30
I00
sbag1
(g19
g3
Ntp3371
Rp3372
(dp3373
g23
I01
sg24
Nsg26
g34
sg28
g35
sg30
I00
sbag1
(g19
g3
Ntp3374
Rp3375
(dp3376
g23
I00
sg24
Nsg26
g66
sg28
g67
sg30
I00
sbaa(lp3377
g1
(g19
g3
Ntp3378
Rp3379
(dp3380
g23
I01
sg24
Nsg26
g34
sg28
g35
sg30
I00
sbag1
(g19
g3
Ntp3381
Rp3382
(dp3383
g23
I00
sg24
g25
sg26
g27
sg28
g29
sg30
I01
sbag1
(g19
g3
Ntp3384
Rp3385
(dp3386
g23
I01
sg24
Nsg26
g34
sg28
g35
sg30
I00
sbag1
(g19
g3
Ntp3387
Rp3388
(dp3389
g23
I01
sg24
Nsg26
g34
sg28
g35
sg30
I00
sbag1
(g19
g3
Ntp3390
Rp3391
(dp3392
g23
I01
sg24
Nsg26
g34
sg28
g35
sg30
I00
sbag1
(g19
g3
Ntp3393
Rp3394
(dp3395
g23
I00
sg24
g25
sg26
g27
sg28
g29
sg30
I01
sbag1
(g19
g3
Ntp3396
Rp3397
(dp3398
g23
I01
sg24
Nsg26
g34
sg28
g35
sg30
I00
sbag1
(g19
g3
Ntp3399
Rp3400
(dp3401
g23
I01
sg24
Nsg26
g34
sg28
g35
sg30
I00
sbag1
(g19
g3
Ntp3402
Rp3403
(dp3404
g23
I01
sg24
Nsg26
g34
sg28
g35
sg30
I00
sbag1
(g19
g3
Ntp3405
Rp3406
(dp3407
g23
I01
sg24
Nsg26
g34
sg28
g35
sg30
I00
sbag1
(g19
g3
Ntp3408
Rp3409
(dp3410
g23
I01
sg24
Nsg26
g34
sg28
g35
sg30
I00
sbag1
(g19
g3
Ntp3411
Rp3412
(dp3413
g23
I00
sg24
Nsg26
g66
sg28
g67
sg30
I00
sbaa(lp3414
g1
(g19
g3
Ntp3415
Rp3416
(dp3417
g23
I01
sg24
Nsg26
g34
sg28
g35
sg30
I00
sbag1
(g19
g3
Ntp3418
Rp3419
(dp3420
g23
I01
sg24
Nsg26
g34
sg28
g35
sg30
I00
sbag1
(g19
g3
Ntp3421
Rp3422
(dp3423
g23
I01
sg24
Nsg26
g34
sg28
g35
sg30
I00
sbag1
(g19
g3
Ntp3424
Rp3425
(dp3426
g23
I00
sg24
g25
sg26
g27
sg28
g29
sg30
I01
sbag1
(g19
g3
Ntp3427
Rp3428
(dp3429
g23
I01
sg24
Nsg26
g34
sg28
g35
sg30
I00
sbag1
(g19
g3
Ntp3430
Rp3431
(dp3432
g23
I01
sg24
Nsg26
g34
sg28
g35
sg30
I00
sbag1
(g19
g3
Ntp3433
Rp3434
(dp3435
g23
I01
sg24
Nsg26
g34
sg28
g35
sg30
I00
sbag1
(g19
g3
Ntp3436
Rp3437
(dp3438
g23
I00
sg24
g25
sg26
g27
sg28
g29
sg30
I01
sbag1
(g19
g3
Ntp3439
Rp3440
(dp3441
g23
I01
sg24
Nsg26
g34
sg28
g35
sg30
I00
sbag1
(g19
g3
Ntp3442
Rp3443
(dp3444
g23
I00
sg24
g25
sg26
g27
sg28
g29
sg30
I01
sbag1
(g19
g3
Ntp3445
Rp3446
(dp3447
g23
I01
sg24
Nsg26
g34
sg28
g35
sg30
I00
sbag1
(g19
g3
Ntp3448
Rp3449
(dp3450
g23
I00
sg24
Nsg26
g66
sg28
g67
sg30
I00
sbaa(lp3451
g1
(g19
g3
Ntp3452
Rp3453
(dp3454
g23
I00
sg24
g25
sg26
g27
sg28
g29
sg30
I01
sbag1
(g19
g3
Ntp3455
Rp3456
(dp3457
g23
I01
sg24
Nsg26
g34
sg28
g35
sg30
I00
sbag1
(g19
g3
Ntp3458
Rp3459
(dp3460
g23
I01
sg24
Nsg26
g34
sg28
g35
sg30
I00
sbag1
(g19
g3
Ntp3461
Rp3462
(dp3463
g23
I01
sg24
Nsg26
g34
sg28
g35
sg30
I00
sbag1
(g19
g3
Ntp3464
Rp3465
(dp3466
g23
I01
sg24
Nsg26
g34
sg28
g35
sg30
I00
sbag1
(g19
g3
Ntp3467
Rp3468
(dp3469
g23
I00
sg24
g25
sg26
g27
sg28
g29
sg30
I01
sbag1
(g19
g3
Ntp3470
Rp3471
(dp3472
g23
I01
sg24
Nsg26
g34
sg28
g35
sg30
I00
sbag1
(g19
g3
Ntp3473
Rp3474
(dp3475
g23
I01
sg24
Nsg26
g34
sg28
g35
sg30
I00
sbag1
(g19
g3
Ntp3476
Rp3477
(dp3478
g23
I01
sg24
Nsg26
g34
sg28
g35
sg30
I00
sbag1
(g19
g3
Ntp3479
Rp3480
(dp3481
g23
I01
sg24
Nsg26
g34
sg28
g35
sg30
I00
sbag1
(g19
g3
Ntp3482
Rp3483
(dp3484
g23
I01
sg24
Nsg26
g34
sg28
g35
sg30
I00
sbag1
(g19
g3
Ntp3485
Rp3486
(dp3487
g23
I00
sg24
Nsg26
g66
sg28
g67
sg30
I00
sbaa(lp3488
g1
(g19
g3
Ntp3489
Rp3490
(dp3491
g23
I01
sg24
Nsg26
g34
sg28
g35
sg30
I00
sbag1
(g19
g3
Ntp3492
Rp3493
(dp3494
g23
I01
sg24
Nsg26
g34
sg28
g35
sg30
I00
sbag1
(g19
g3
Ntp3495
Rp3496
(dp3497
g23
I00
sg24
g25
sg26
g27
sg28
g29
sg30
I01
sbag1
(g19
g3
Ntp3498
Rp3499
(dp3500
g23
I01
sg24
Nsg26
g34
sg28
g35
sg30
I00
sbag1
(g19
g3
Ntp3501
Rp3502
(dp3503
g23
I01
sg24
Nsg26
g34
sg28
g35
sg30
I00
sbag1
(g19
g3
Ntp3504
Rp3505
(dp3506
g23
I01
sg24
Nsg26
g34
sg28
g35
sg30
I00
sbag1
(g19
g3
Ntp3507
Rp3508
(dp3509
g23
I01
sg24
Nsg26
g34
sg28
g35
sg30
I00
sbag1
(g19
g3
Ntp3510
Rp3511
(dp3512
g23
I00
sg24
g25
sg26
g27
sg28
g29
sg30
I01
sbag1
(g19
g3
Ntp3513
Rp3514
(dp3515
g23
I01
sg24
Nsg26
g34
sg28
g35
sg30
I00
sbag1
(g19
g3
Ntp3516
Rp3517
(dp3518
g23
I01
sg24
Nsg26
g34
sg28
g35
sg30
I00
sbag1
(g19
g3
Ntp3519
Rp3520
(dp3521
g23
I00
sg24
g25
sg26
g27
sg28
g29
sg30
I01
sbag1
(g19
g3
Ntp3522
Rp3523
(dp3524
g23
I00
sg24
Nsg26
g66
sg28
g67
sg30
I00
sbaa(lp3525
g1
(g19
g3
Ntp3526
Rp3527
(dp3528
g23
I01
sg24
Nsg26
g34
sg28
g35
sg30
I00
sbag1
(g19
g3
Ntp3529
Rp3530
(dp3531
g23
I01
sg24
Nsg26
g34
sg28
g35
sg30
I00
sbag1
(g19
g3
Ntp3532
Rp3533
(dp3534
g23
I01
sg24
Nsg26
g34
sg28
g35
sg30
I00
sbag1
(g19
g3
Ntp3535
Rp3536
(dp3537
g23
I01
sg24
Nsg26
g34
sg28
g35
sg30
I00
sbag1
(g19
g3
Ntp3538
Rp3539
(dp3540
g23
I01
sg24
Nsg26
g34
sg28
g35
sg30
I00
sbag1
(g19
g3
Ntp3541
Rp3542
(dp3543
g23
I00
sg24
g25
sg26
g27
sg28
g29
sg30
I01
sbag1
(g19
g3
Ntp3544
Rp3545
(dp3546
g23
I01
sg24
Nsg26
g34
sg28
g35
sg30
I00
sbag1
(g19
g3
Ntp3547
Rp3548
(dp3549
g23
I01
sg24
Nsg26
g34
sg28
g35
sg30
I00
sbag1
(g19
g3
Ntp3550
Rp3551
(dp3552
g23
I01
sg24
Nsg26
g34
sg28
g35
sg30
I00
sbag1
(g19
g3
Ntp3553
Rp3554
(dp3555
g23
I01
sg24
Nsg26
g34
sg28
g35
sg30
I00
sbag1
(g19
g3
Ntp3556
Rp3557
(dp3558
g23
I01
sg24
Nsg26
g34
sg28
g35
sg30
I00
sbag1
(g19
g3
Ntp3559
Rp3560
(dp3561
g23
I00
sg24
Nsg26
g66
sg28
g67
sg30
I00
sbaa(lp3562
g1
(g19
g3
Ntp3563
Rp3564
(dp3565
g23
I01
sg24
Nsg26
g34
sg28
g35
sg30
I00
sbag1
(g19
g3
Ntp3566
Rp3567
(dp3568
g23
I00
sg24
g25
sg26
g27
sg28
g29
sg30
I01
sbag1
(g19
g3
Ntp3569
Rp3570
(dp3571
g23
I01
sg24
Nsg26
g34
sg28
g35
sg30
I00
sbag1
(g19
g3
Ntp3572
Rp3573
(dp3574
g23
I01
sg24
Nsg26
g34
sg28
g35
sg30
I00
sbag1
(g19
g3
Ntp3575
Rp3576
(dp3577
g23
I01
sg24
Nsg26
g34
sg28
g35
sg30
I00
sbag1
(g19
g3
Ntp3578
Rp3579
(dp3580
g23
I01
sg24
Nsg26
g34
sg28
g35
sg30
I00
sbag1
(g19
g3
Ntp3581
Rp3582
(dp3583
g23
I01
sg24
Nsg26
g34
sg28
g35
sg30
I00
sbag1
(g19
g3
Ntp3584
Rp3585
(dp3586
g23
I01
sg24
Nsg26
g34
sg28
g35
sg30
I00
sbag1
(g19
g3
Ntp3587
Rp3588
(dp3589
g23
I00
sg24
g25
sg26
g27
sg28
g29
sg30
I01
sbag1
(g19
g3
Ntp3590
Rp3591
(dp3592
g23
I01
sg24
Nsg26
g34
sg28
g35
sg30
I00
sbag1
(g19
g3
Ntp3593
Rp3594
(dp3595
g23
I01
sg24
Nsg26
g34
sg28
g35
sg30
I00
sbag1
(g19
g3
Ntp3596
Rp3597
(dp3598
g23
I00
sg24
Nsg26
g66
sg28
g67
sg30
I00
sbaa(lp3599
g1
(g19
g3
Ntp3600
Rp3601
(dp3602
g23
I00
sg24
Nsg26
g66
sg28
g67
sg30
I00
sbag1
(g19
g3
Ntp3603
Rp3604
(dp3605
g23
I00
sg24
Nsg26
g66
sg28
g67
sg30
I00
sbag1
(g19
g3
Ntp3606
Rp3607
(dp3608
g23
I00
sg24
Nsg26
g66
sg28
g67
sg30
I00
sbag1
(g19
g3
Ntp3609
Rp3610
(dp3611
g23
I00
sg24
Nsg26
g66
sg28
g67
sg30
I00
sbag1
(g19
g3
Ntp3612
Rp3613
(dp3614
g23
I00
sg24
Nsg26
g66
sg28
g67
sg30
I00
sbag1
(g19
g3
Ntp3615
Rp3616
(dp3617
g23
I00
sg24
Nsg26
g66
sg28
g67
sg30
I00
sbag1
(g19
g3
Ntp3618
Rp3619
(dp3620
g23
I00
sg24
Nsg26
g66
sg28
g67
sg30
I00
sbag1
(g19
g3
Ntp3621
Rp3622
(dp3623
g23
I00
sg24
Nsg26
g66
sg28
g67
sg30
I00
sbag1
(g19
g3
Ntp3624
Rp3625
(dp3626
g23
I00
sg24
Nsg26
g66
sg28
g67
sg30
I00
sbag1
(g19
g3
Ntp3627
Rp3628
(dp3629
g23
I00
sg24
Nsg26
g66
sg28
g67
sg30
I00
sbag1
(g19
g3
Ntp3630
Rp3631
(dp3632
g23
I00
sg24
Nsg26
g66
sg28
g67
sg30
I00
sbag1
(g19
g3
Ntp3633
Rp3634
(dp3635
g23
I00
sg24
Nsg26
g66
sg28
g67
sg30
I00
sbaasg475
(I1
I-1
tp3636
sbs(I1
I1
tp3637
g1
(g12
g3
Ntp3638
Rp3639
(dp3640
g16
(lp3641
(lp3642
g1
(g19
g3
Ntp3643
Rp3644
(dp3645
g23
I01
sg24
Nsg26
g34
sg28
g35
sg30
I00
sbag1
(g19
g3
Ntp3646
Rp3647
(dp3648
g23
I01
sg24
Nsg26
g34
sg28
g35
sg30
I00
sbag1
(g19
g3
Ntp3649
Rp3650
(dp3651
g23
I01
sg24
Nsg26
g34
sg28
g35
sg30
I00
sbag1
(g19
g3
Ntp3652
Rp3653
(dp3654
g23
I00
sg24
g25
sg26
g27
sg28
g29
sg30
I01
sbag1
(g19
g3
Ntp3655
Rp3656
(dp3657
g23
I01
sg24
Nsg26
g34
sg28
g35
sg30
I00
sbag1
(g19
g3
Ntp3658
Rp3659
(dp3660
g23
I01
sg24
Nsg26
g34
sg28
g35
sg30
I00
sbag1
(g19
g3
Ntp3661
Rp3662
(dp3663
g23
I00
sg24
g25
sg26
g27
sg28
g29
sg30
I01
sbag1
(g19
g3
Ntp3664
Rp3665
(dp3666
g23
I01
sg24
Nsg26
g34
sg28
g35
sg30
I00
sbag1
(g19
g3
Ntp3667
Rp3668
(dp3669
g23
I01
sg24
Nsg26
g34
sg28
g35
sg30
I00
sbag1
(g19
g3
Ntp3670
Rp3671
(dp3672
g23
I01
sg24
Nsg26
g34
sg28
g35
sg30
I00
sbag1
(g19
g3
Ntp3673
Rp3674
(dp3675
g23
I01
sg24
Nsg26
g34
sg28
g35
sg30
I00
sbag1
(g19
g3
Ntp3676
Rp3677
(dp3678
g23
I00
sg24
Nsg26
g66
sg28
g67
sg30
I00
sbaa(lp3679
g1
(g19
g3
Ntp3680
Rp3681
(dp3682
g23
I00
sg24
g25
sg26
g27
sg28
g29
sg30
I01
sbag1
(g19
g3
Ntp3683
Rp3684
(dp3685
g23
I01
sg24
Nsg26
g34
sg28
g35
sg30
I00
sbag1
(g19
g3
Ntp3686
Rp3687
(dp3688
g23
I01
sg24
Nsg26
g34
sg28
g35
sg30
I00
sbag1
(g19
g3
Ntp3689
Rp3690
(dp3691
g23
I01
sg24
Nsg26
g34
sg28
g35
sg30
I00
sbag1
(g19
g3
Ntp3692
Rp3693
(dp3694
g23
I01
sg24
Nsg26
g34
sg28
g35
sg30
I00
sbag1
(g19
g3
Ntp3695
Rp3696
(dp3697
g23
I00
sg24
Nsg26
g993
sg28
g994
sg30
I00
sbag1
(g19
g3
Ntp3698
Rp3699
(dp3700
g23
I00
sg24
g25
sg26
g27
sg28
g29
sg30
I01
sbag1
(g19
g3
Ntp3701
Rp3702
(dp3703
g23
I01
sg24
Nsg26
g34
sg28
g35
sg30
I00
sbag1
(g19
g3
Ntp3704
Rp3705
(dp3706
g23
I00
sg24
g25
sg26
g27
sg28
g29
sg30
I01
sbag1
(g19
g3
Ntp3707
Rp3708
(dp3709
g23
I01
sg24
Nsg26
g34
sg28
g35
sg30
I00
sbag1
(g19
g3
Ntp3710
Rp3711
(dp3712
g23
I01
sg24
Nsg26
g34
sg28
g35
sg30
I00
sbag1
(g19
g3
Ntp3713
Rp3714
(dp3715
g23
I00
sg24
Nsg26
g66
sg28
g67
sg30
I00
sbaa(lp3716
g1
(g19
g3
Ntp3717
Rp3718
(dp3719
g23
I01
sg24
Nsg26
g34
sg28
g35
sg30
I00
sbag1
(g19
g3
Ntp3720
Rp3721
(dp3722
g23
I01
sg24
Nsg26
g34
sg28
g35
sg30
I00
sbag1
(g19
g3
Ntp3723
Rp3724
(dp3725
g23
I01
sg24
Nsg26
g34
sg28
g35
sg30
I00
sbag1
(g19
g3
Ntp3726
Rp3727
(dp3728
g23
I01
sg24
Nsg26
g34
sg28
g35
sg30
I00
sbag1
(g19
g3
Ntp3729
Rp3730
(dp3731
g23
I01
sg24
Nsg26
g34
sg28
g35
sg30
I00
sbag1
(g19
g3
Ntp3732
Rp3733
(dp3734
g23
I01
sg24
Nsg26
g34
sg28
g35
sg30
I00
sbag1
(g19
g3
Ntp3735
Rp3736
(dp3737
g23
I01
sg24
Nsg26
g34
sg28
g35
sg30
I00
sbag1
(g19
g3
Ntp3738
Rp3739
(dp3740
g23
I01
sg24
Nsg26
g34
sg28
g35
sg30
I00
sbag1
(g19
g3
Ntp3741
Rp3742
(dp3743
g23
I01
sg24
Nsg26
g34
sg28
g35
sg30
I00
sbag1
(g19
g3
Ntp3744
Rp3745
(dp3746
g23
I01
sg24
Nsg26
g34
sg28
g35
sg30
I00
sbag1
(g19
g3
Ntp3747
Rp3748
(dp3749
g23
I01
sg24
Nsg26
g34
sg28
g35
sg30
I00
sbag1
(g19
g3
Ntp3750
Rp3751
(dp3752
g23
I00
sg24
Nsg26
g66
sg28
g67
sg30
I00
sbaa(lp3753
g1
(g19
g3
Ntp3754
Rp3755
(dp3756
g23
I00
sg24
g25
sg26
g27
sg28
g29
sg30
I01
sbag1
(g19
g3
Ntp3757
Rp3758
(dp3759
g23
I01
sg24
Nsg26
g34
sg28
g35
sg30
I00
sbag1
(g19
g3
Ntp3760
Rp3761
(dp3762
g23
I01
sg24
Nsg26
g34
sg28
g35
sg30
I00
sbag1
(g19
g3
Ntp3763
Rp3764
(dp3765
g23
I00
sg24
g25
sg26
g27
sg28
g29
sg30
I01
sbag1
(g19
g3
Ntp3766
Rp3767
(dp3768
g23
I01
sg24
Nsg26
g34
sg28
g35
sg30
I00
sbag1
(g19
g3
Ntp3769
Rp3770
(dp3771
g23
I01
sg24
Nsg26
g34
sg28
g35
sg30
I00
sbag1
(g19
g3
Ntp3772
Rp3773
(dp3774
g23
I01
sg24
Nsg26
g34
sg28
g35
sg30
I00
sbag1
(g19
g3
Ntp3775
Rp3776
(dp3777
g23
I00
sg24
g25
sg26
g27
sg28
g29
sg30
I01
sbag1
(g19
g3
Ntp3778
Rp3779
(dp3780
g23
I01
sg24
Nsg26
g34
sg28
g35
sg30
I00
sbag1
(g19
g3
Ntp3781
Rp3782
(dp3783
g23
I01
sg24
Nsg26
g34
sg28
g35
sg30
I00
sbag1
(g19
g3
Ntp3784
Rp3785
(dp3786
g23
I01
sg24
Nsg26
g34
sg28
g35
sg30
I00
sbag1
(g19
g3
Ntp3787
Rp3788
(dp3789
g23
I00
sg24
Nsg26
g66
sg28
g67
sg30
I00
sbaa(lp3790
g1
(g19
g3
Ntp3791
Rp3792
(dp3793
g23
I01
sg24
Nsg26
g34
sg28
g35
sg30
I00
sbag1
(g19
g3
Ntp3794
Rp3795
(dp3796
g23
I01
sg24
Nsg26
g34
sg28
g35
sg30
I00
sbag1
(g19
g3
Ntp3797
Rp3798
(dp3799
g23
I01
sg24
Nsg26
g34
sg28
g35
sg30
I00
sbag1
(g19
g3
Ntp3800
Rp3801
(dp3802
g23
I01
sg24
Nsg26
g34
sg28
g35
sg30
I00
sbag1
(g19
g3
Ntp3803
Rp3804
(dp3805
g23
I01
sg24
Nsg26
g34
sg28
g35
sg30
I00
sbag1
(g19
g3
Ntp3806
Rp3807
(dp3808
g23
I00
sg24
g25
sg26
g27
sg28
g29
sg30
I01
sbag1
(g19
g3
Ntp3809
Rp3810
(dp3811
g23
I01
sg24
Nsg26
g34
sg28
g35
sg30
I00
sbag1
(g19
g3
Ntp3812
Rp3813
(dp3814
g23
I01
sg24
Nsg26
g34
sg28
g35
sg30
I00
sbag1
(g19
g3
Ntp3815
Rp3816
(dp3817
g23
I01
sg24
Nsg26
g34
sg28
g35
sg30
I00
sbag1
(g19
g3
Ntp3818
Rp3819
(dp3820
g23
I01
sg24
Nsg26
g34
sg28
g35
sg30
I00
sbag1
(g19
g3
Ntp3821
Rp3822
(dp3823
g23
I01
sg24
Nsg26
g34
sg28
g35
sg30
I00
sbag1
(g19
g3
Ntp3824
Rp3825
(dp3826
g23
I00
sg24
Nsg26
g66
sg28
g67
sg30
I00
sbaa(lp3827
g1
(g19
g3
Ntp3828
Rp3829
(dp3830
g23
I01
sg24
Nsg26
g34
sg28
g35
sg30
I00
sbag1
(g19
g3
Ntp3831
Rp3832
(dp3833
g23
I00
sg24
g25
sg26
g27
sg28
g29
sg30
I01
sbag1
(g19
g3
Ntp3834
Rp3835
(dp3836
g23
I01
sg24
Nsg26
g34
sg28
g35
sg30
I00
sbag1
(g19
g3
Ntp3837
Rp3838
(dp3839
g23
I01
sg24
Nsg26
g34
sg28
g35
sg30
I00
sbag1
(g19
g3
Ntp3840
Rp3841
(dp3842
g23
I01
sg24
Nsg26
g34
sg28
g35
sg30
I00
sbag1
(g19
g3
Ntp3843
Rp3844
(dp3845
g23
I01
sg24
Nsg26
g34
sg28
g35
sg30
I00
sbag1
(g19
g3
Ntp3846
Rp3847
(dp3848
g23
I01
sg24
Nsg26
g34
sg28
g35
sg30
I00
sbag1
(g19
g3
Ntp3849
Rp3850
(dp3851
g23
I00
sg24
g25
sg26
g27
sg28
g29
sg30
I01
sbag1
(g19
g3
Ntp3852
Rp3853
(dp3854
g23
I01
sg24
Nsg26
g34
sg28
g35
sg30
I00
sbag1
(g19
g3
Ntp3855
Rp3856
(dp3857
g23
I01
sg24
Nsg26
g34
sg28
g35
sg30
I00
sbag1
(g19
g3
Ntp3858
Rp3859
(dp3860
g23
I00
sg24
g25
sg26
g27
sg28
g29
sg30
I01
sbag1
(g19
g3
Ntp3861
Rp3862
(dp3863
g23
I00
sg24
Nsg26
g66
sg28
g67
sg30
I00
sbaa(lp3864
g1
(g19
g3
Ntp3865
Rp3866
(dp3867
g23
I01
sg24
Nsg26
g34
sg28
g35
sg30
I00
sbag1
(g19
g3
Ntp3868
Rp3869
(dp3870
g23
I01
sg24
Nsg26
g34
sg28
g35
sg30
I00
sbag1
(g19
g3
Ntp3871
Rp3872
(dp3873
g23
I01
sg24
Nsg26
g34
sg28
g35
sg30
I00
sbag1
(g19
g3
Ntp3874
Rp3875
(dp3876
g23
I01
sg24
Nsg26
g34
sg28
g35
sg30
I00
sbag1
(g19
g3
Ntp3877
Rp3878
(dp3879
g23
I00
sg24
g25
sg26
g27
sg28
g29
sg30
I01
sbag1
(g19
g3
Ntp3880
Rp3881
(dp3882
g23
I01
sg24
Nsg26
g34
sg28
g35
sg30
I00
sbag1
(g19
g3
Ntp3883
Rp3884
(dp3885
g23
I01
sg24
Nsg26
g34
sg28
g35
sg30
I00
sbag1
(g19
g3
Ntp3886
Rp3887
(dp3888
g23
I01
sg24
Nsg26
g34
sg28
g35
sg30
I00
sbag1
(g19
g3
Ntp3889
Rp3890
(dp3891
g23
I01
sg24
Nsg26
g34
sg28
g35
sg30
I00
sbag1
(g19
g3
Ntp3892
Rp3893
(dp3894
g23
I01
sg24
Nsg26
g34
sg28
g35
sg30
I00
sbag1
(g19
g3
Ntp3895
Rp3896
(dp3897
g23
I01
sg24
Nsg26
g34
sg28
g35
sg30
I00
sbag1
(g19
g3
Ntp3898
Rp3899
(dp3900
g23
I00
sg24
Nsg26
g66
sg28
g67
sg30
I00
sbaa(lp3901
g1
(g19
g3
Ntp3902
Rp3903
(dp3904
g23
I00
sg24
g25
sg26
g27
sg28
g29
sg30
I01
sbag1
(g19
g3
Ntp3905
Rp3906
(dp3907
g23
I01
sg24
Nsg26
g34
sg28
g35
sg30
I00
sbag1
(g19
g3
Ntp3908
Rp3909
(dp3910
g23
I01
sg24
Nsg26
g34
sg28
g35
sg30
I00
sbag1
(g19
g3
Ntp3911
Rp3912
(dp3913
g23
I01
sg24
Nsg26
g34
sg28
g35
sg30
I00
sbag1
(g19
g3
Ntp3914
Rp3915
(dp3916
g23
I01
sg24
Nsg26
g34
sg28
g35
sg30
I00
sbag1
(g19
g3
Ntp3917
Rp3918
(dp3919
g23
I01
sg24
Nsg26
g34
sg28
g35
sg30
I00
sbag1
(g19
g3
Ntp3920
Rp3921
(dp3922
g23
I00
sg24
g25
sg26
g27
sg28
g29
sg30
I01
sbag1
(g19
g3
Ntp3923
Rp3924
(dp3925
g23
I01
sg24
Nsg26
g34
sg28
g35
sg30
I00
sbag1
(g19
g3
Ntp3926
Rp3927
(dp3928
g23
I00
sg24
g25
sg26
g27
sg28
g29
sg30
I01
sbag1
(g19
g3
Ntp3929
Rp3930
(dp3931
g23
I01
sg24
Nsg26
g34
sg28
g35
sg30
I00
sbag1
(g19
g3
Ntp3932
Rp3933
(dp3934
g23
I01
sg24
Nsg26
g34
sg28
g35
sg30
I00
sbag1
(g19
g3
Ntp3935
Rp3936
(dp3937
g23
I00
sg24
Nsg26
g66
sg28
g67
sg30
I00
sbaa(lp3938
g1
(g19
g3
Ntp3939
Rp3940
(dp3941
g23
I01
sg24
Nsg26
g34
sg28
g35
sg30
I00
sbag1
(g19
g3
Ntp3942
Rp3943
(dp3944
g23
I01
sg24
Nsg26
g34
sg28
g35
sg30
I00
sbag1
(g19
g3
Ntp3945
Rp3946
(dp3947
g23
I01
sg24
Nsg26
g34
sg28
g35
sg30
I00
sbag1
(g19
g3
Ntp3948
Rp3949
(dp3950
g23
I00
sg24
g25
sg26
g27
sg28
g29
sg30
I01
sbag1
(g19
g3
Ntp3951
Rp3952
(dp3953
g23
I01
sg24
Nsg26
g34
sg28
g35
sg30
I00
sbag1
(g19
g3
Ntp3954
Rp3955
(dp3956
g23
I01
sg24
Nsg26
g34
sg28
g35
sg30
I00
sbag1
(g19
g3
Ntp3957
Rp3958
(dp3959
g23
I01
sg24
Nsg26
g34
sg28
g35
sg30
I00
sbag1
(g19
g3
Ntp3960
Rp3961
(dp3962
g23
I01
sg24
Nsg26
g34
sg28
g35
sg30
I00
sbag1
(g19
g3
Ntp3963
Rp3964
(dp3965
g23
I01
sg24
Nsg26
g34
sg28
g35
sg30
I00
sbag1
(g19
g3
Ntp3966
Rp3967
(dp3968
g23
I01
sg24
Nsg26
g34
sg28
g35
sg30
I00
sbag1
(g19
g3
Ntp3969
Rp3970
(dp3971
g23
I00
sg24
g25
sg26
g27
sg28
g29
sg30
I01
sbag1
(g19
g3
Ntp3972
Rp3973
(dp3974
g23
I00
sg24
Nsg26
g66
sg28
g67
sg30
I00
sbaa(lp3975
g1
(g19
g3
Ntp3976
Rp3977
(dp3978
g23
I01
sg24
Nsg26
g34
sg28
g35
sg30
I00
sbag1
(g19
g3
Ntp3979
Rp3980
(dp3981
g23
I00
sg24
g25
sg26
g27
sg28
g29
sg30
I01
sbag1
(g19
g3
Ntp3982
Rp3983
(dp3984
g23
I01
sg24
Nsg26
g34
sg28
g35
sg30
I00
sbag1
(g19
g3
Ntp3985
Rp3986
(dp3987
g23
I01
sg24
Nsg26
g34
sg28
g35
sg30
I00
sbag1
(g19
g3
Ntp3988
Rp3989
(dp3990
g23
I01
sg24
Nsg26
g34
sg28
g35
sg30
I00
sbag1
(g19
g3
Ntp3991
Rp3992
(dp3993
g23
I00
sg24
g25
sg26
g27
sg28
g29
sg30
I01
sbag1
(g19
g3
Ntp3994
Rp3995
(dp3996
g23
I01
sg24
Nsg26
g34
sg28
g35
sg30
I00
sbag1
(g19
g3
Ntp3997
Rp3998
(dp3999
g23
I01
sg24
Nsg26
g34
sg28
g35
sg30
I00
sbag1
(g19
g3
Ntp4000
Rp4001
(dp4002
g23
I00
sg24
g25
sg26
g27
sg28
g29
sg30
I01
sbag1
(g19
g3
Ntp4003
Rp4004
(dp4005
g23
I01
sg24
Nsg26
g34
sg28
g35
sg30
I00
sbag1
(g19
g3
Ntp4006
Rp4007
(dp4008
g23
I01
sg24
Nsg26
g34
sg28
g35
sg30
I00
sbag1
(g19
g3
Ntp4009
Rp4010
(dp4011
g23
I00
sg24
Nsg26
g66
sg28
g67
sg30
I00
sbaa(lp4012
g1
(g19
g3
Ntp4013
Rp4014
(dp4015
g23
I01
sg24
Nsg26
g34
sg28
g35
sg30
I00
sbag1
(g19
g3
Ntp4016
Rp4017
(dp4018
g23
I01
sg24
Nsg26
g34
sg28
g35
sg30
I00
sbag1
(g19
g3
Ntp4019
Rp4020
(dp4021
g23
I01
sg24
Nsg26
g34
sg28
g35
sg30
I00
sbag1
(g19
g3
Ntp4022
Rp4023
(dp4024
g23
I01
sg24
Nsg26
g34
sg28
g35
sg30
I00
sbag1
(g19
g3
Ntp4025
Rp4026
(dp4027
g23
I01
sg24
Nsg26
g34
sg28
g35
sg30
I00
sbag1
(g19
g3
Ntp4028
Rp4029
(dp4030
g23
I01
sg24
Nsg26
g34
sg28
g35
sg30
I00
sbag1
(g19
g3
Ntp4031
Rp4032
(dp4033
g23
I01
sg24
Nsg26
g34
sg28
g35
sg30
I00
sbag1
(g19
g3
Ntp4034
Rp4035
(dp4036
g23
I01
sg24
Nsg26
g34
sg28
g35
sg30
I00
sbag1
(g19
g3
Ntp4037
Rp4038
(dp4039
g23
I01
sg24
Nsg26
g34
sg28
g35
sg30
I00
sbag1
(g19
g3
Ntp4040
Rp4041
(dp4042
g23
I01
sg24
Nsg26
g34
sg28
g35
sg30
I00
sbag1
(g19
g3
Ntp4043
Rp4044
(dp4045
g23
I01
sg24
Nsg26
g34
sg28
g35
sg30
I00
sbag1
(g19
g3
Ntp4046
Rp4047
(dp4048
g23
I00
sg24
Nsg26
g66
sg28
g67
sg30
I00
sbaa(lp4049
g1
(g19
g3
Ntp4050
Rp4051
(dp4052
g23
I00
sg24
Nsg26
g66
sg28
g67
sg30
I00
sbag1
(g19
g3
Ntp4053
Rp4054
(dp4055
g23
I00
sg24
Nsg26
g66
sg28
g67
sg30
I00
sbag1
(g19
g3
Ntp4056
Rp4057
(dp4058
g23
I00
sg24
Nsg26
g66
sg28
g67
sg30
I00
sbag1
(g19
g3
Ntp4059
Rp4060
(dp4061
g23
I00
sg24
Nsg26
g66
sg28
g67
sg30
I00
sbag1
(g19
g3
Ntp4062
Rp4063
(dp4064
g23
I00
sg24
Nsg26
g66
sg28
g67
sg30
I00
sbag1
(g19
g3
Ntp4065
Rp4066
(dp4067
g23
I00
sg24
Nsg26
g66
sg28
g67
sg30
I00
sbag1
(g19
g3
Ntp4068
Rp4069
(dp4070
g23
I00
sg24
Nsg26
g66
sg28
g67
sg30
I00
sbag1
(g19
g3
Ntp4071
Rp4072
(dp4073
g23
I00
sg24
Nsg26
g66
sg28
g67
sg30
I00
sbag1
(g19
g3
Ntp4074
Rp4075
(dp4076
g23
I00
sg24
Nsg26
g66
sg28
g67
sg30
I00
sbag1
(g19
g3
Ntp4077
Rp4078
(dp4079
g23
I00
sg24
Nsg26
g66
sg28
g67
sg30
I00
sbag1
(g19
g3
Ntp4080
Rp4081
(dp4082
g23
I00
sg24
Nsg26
g66
sg28
g67
sg30
I00
sbag1
(g19
g3
Ntp4083
Rp4084
(dp4085
g23
I00
sg24
Nsg26
g66
sg28
g67
sg30
I00
sbaasg475
(I1
I1
tp4086
sbssS'chunk_height'
p4087
I12
sS'chunk_list'
p4088
(lp4089
(I-1
I-1
tp4090
a(I-1
I0
tp4091
a(I-1
I1
tp4092
a(I0
I-1
tp4093
a(I0
I0
tp4094
a(I0
I1
tp4095
a(I1
I-1
tp4096
a(I1
I0
tp4097
a(I1
I1
tp4098
asS'chunk_width'
p4099
I12
sba(lp4100
(lp4101
(I0
I0
tp4102
aI6
aI2
aaI3
a(dp4103
g25
I9
saI5
aa.