(lp0
ccopy_reg
_reconstructor
p1
(cWorld_Module
World
p2
c__builtin__
object
p3
Ntp4
Rp5
(dp6
S'center_chunk'
p7
(lp8
I0
aI0
asS'loaded_world'
p9
(dp10
(I0
I1
tp11
g1
(cWorld_Module
Chunk
p12
g3
Ntp13
Rp14
(dp15
S'chunk'
p16
(lp17
(lp18
g1
(cBlock_Module
Block
p19
g3
Ntp20
Rp21
(dp22
S'walkable'
p23
I01
sS'drop'
p24
cBlock_Module
Grass
p25
sS'graphic'
p26
S'grass.png'
p27
sS'name'
p28
S'grass'
p29
sS'destructible'
p30
I01
sbag1
(g19
g3
Ntp31
Rp32
(dp33
g23
I00
sg24
cBlock_Module
Water
p34
sg26
S'water.png'
p35
sg28
S'water'
p36
sg30
I01
sbag1
(g19
g3
Ntp37
Rp38
(dp39
g23
I01
sg24
g25
sg26
g27
sg28
g29
sg30
I01
sbag1
(g19
g3
Ntp40
Rp41
(dp42
g23
I01
sg24
g25
sg26
g27
sg28
g29
sg30
I01
sbag1
(g19
g3
Ntp43
Rp44
(dp45
g23
I00
sg24
cBlock_Module
Wood
p46
sg26
S'tree.png'
p47
sg28
S'tree'
p48
sg30
I01
sbag1
(g19
g3
Ntp49
Rp50
(dp51
g23
I00
sg24
g46
sg26
g47
sg28
g48
sg30
I01
sbag1
(g19
g3
Ntp52
Rp53
(dp54
g23
I00
sg24
g46
sg26
g47
sg28
g48
sg30
I01
sbag1
(g19
g3
Ntp55
Rp56
(dp57
g23
I00
sg24
g46
sg26
g47
sg28
g48
sg30
I01
sbag1
(g19
g3
Ntp58
Rp59
(dp60
g23
I01
sg24
g25
sg26
g27
sg28
g29
sg30
I01
sbag1
(g19
g3
Ntp61
Rp62
(dp63
g23
I01
sg24
g25
sg26
g27
sg28
g29
sg30
I01
sbag1
(g19
g3
Ntp64
Rp65
(dp66
g23
I00
sg24
g46
sg26
g47
sg28
g48
sg30
I01
sbag1
(g19
g3
Ntp67
Rp68
(dp69
g23
I00
sg24
g34
sg26
g35
sg28
g36
sg30
I01
sbaa(lp70
g1
(g19
g3
Ntp71
Rp72
(dp73
g23
I00
sg24
g34
sg26
g35
sg28
g36
sg30
I01
sbag1
(g19
g3
Ntp74
Rp75
(dp76
g23
I00
sg24
g34
sg26
g35
sg28
g36
sg30
I01
sbag1
(g19
g3
Ntp77
Rp78
(dp79
g23
I00
sg24
g46
sg26
g47
sg28
g48
sg30
I01
sbag1
(g19
g3
Ntp80
Rp81
(dp82
g23
I01
sg24
g25
sg26
g27
sg28
g29
sg30
I01
sbag1
(g19
g3
Ntp83
Rp84
(dp85
g23
I00
sg24
g46
sg26
g47
sg28
g48
sg30
I01
sbag1
(g19
g3
Ntp86
Rp87
(dp88
g23
I01
sg24
g25
sg26
g27
sg28
g29
sg30
I01
sbag1
(g19
g3
Ntp89
Rp90
(dp91
g23
I01
sg24
g25
sg26
g27
sg28
g29
sg30
I01
sbag1
(g19
g3
Ntp92
Rp93
(dp94
g23
I01
sg24
g25
sg26
g27
sg28
g29
sg30
I01
sbag1
(g19
g3
Ntp95
Rp96
(dp97
g23
I01
sg24
g25
sg26
g27
sg28
g29
sg30
I01
sbag1
(g19
g3
Ntp98
Rp99
(dp100
g23
I00
sg24
g34
sg26
g35
sg28
g36
sg30
I01
sbag1
(g19
g3
Ntp101
Rp102
(dp103
g23
I00
sg24
g34
sg26
g35
sg28
g36
sg30
I01
sbag1
(g19
g3
Ntp104
Rp105
(dp106
g23
I00
sg24
g34
sg26
g35
sg28
g36
sg30
I01
sbaa(lp107
g1
(g19
g3
Ntp108
Rp109
(dp110
g23
I01
sg24
g25
sg26
g27
sg28
g29
sg30
I01
sbag1
(g19
g3
Ntp111
Rp112
(dp113
g23
I01
sg24
g25
sg26
g27
sg28
g29
sg30
I01
sbag1
(g19
g3
Ntp114
Rp115
(dp116
g23
I01
sg24
g25
sg26
g27
sg28
g29
sg30
I01
sbag1
(g19
g3
Ntp117
Rp118
(dp119
g23
I01
sg24
g25
sg26
g27
sg28
g29
sg30
I01
sbag1
(g19
g3
Ntp120
Rp121
(dp122
g23
I01
sg24
g25
sg26
g27
sg28
g29
sg30
I01
sbag1
(g19
g3
Ntp123
Rp124
(dp125
g23
I01
sg24
g25
sg26
g27
sg28
g29
sg30
I01
sbag1
(g19
g3
Ntp126
Rp127
(dp128
g23
I01
sg24
g25
sg26
g27
sg28
g29
sg30
I01
sbag1
(g19
g3
Ntp129
Rp130
(dp131
g23
I00
sg24
g46
sg26
g47
sg28
g48
sg30
I01
sbag1
(g19
g3
Ntp132
Rp133
(dp134
g23
I01
sg24
g25
sg26
g27
sg28
g29
sg30
I01
sbag1
(g19
g3
Ntp135
Rp136
(dp137
g23
I00
sg24
g34
sg26
g35
sg28
g36
sg30
I01
sbag1
(g19
g3
Ntp138
Rp139
(dp140
g23
I00
sg24
g34
sg26
g35
sg28
g36
sg30
I01
sbag1
(g19
g3
Ntp141
Rp142
(dp143
g23
I00
sg24
g34
sg26
g35
sg28
g36
sg30
I01
sbaa(lp144
g1
(g19
g3
Ntp145
Rp146
(dp147
g23
I01
sg24
g25
sg26
g27
sg28
g29
sg30
I01
sbag1
(g19
g3
Ntp148
Rp149
(dp150
g23
I01
sg24
g25
sg26
g27
sg28
g29
sg30
I01
sbag1
(g19
g3
Ntp151
Rp152
(dp153
g23
I01
sg24
g25
sg26
g27
sg28
g29
sg30
I01
sbag1
(g19
g3
Ntp154
Rp155
(dp156
g23
I00
sg24
g46
sg26
g47
sg28
g48
sg30
I01
sbag1
(g19
g3
Ntp157
Rp158
(dp159
g23
I01
sg24
g25
sg26
g27
sg28
g29
sg30
I01
sbag1
(g19
g3
Ntp160
Rp161
(dp162
g23
I01
sg24
g25
sg26
g27
sg28
g29
sg30
I01
sbag1
(g19
g3
Ntp163
Rp164
(dp165
g23
I00
sg24
g46
sg26
g47
sg28
g48
sg30
I01
sbag1
(g19
g3
Ntp166
Rp167
(dp168
g23
I01
sg24
g25
sg26
g27
sg28
g29
sg30
I01
sbag1
(g19
g3
Ntp169
Rp170
(dp171
g23
I01
sg24
g25
sg26
g27
sg28
g29
sg30
I01
sbag1
(g19
g3
Ntp172
Rp173
(dp174
g23
I00
sg24
g46
sg26
g47
sg28
g48
sg30
I01
sbag1
(g19
g3
Ntp175
Rp176
(dp177
g23
I01
sg24
g25
sg26
g27
sg28
g29
sg30
I01
sbag1
(g19
g3
Ntp178
Rp179
(dp180
g23
I00
sg24
g34
sg26
g35
sg28
g36
sg30
I01
sbaa(lp181
g1
(g19
g3
Ntp182
Rp183
(dp184
g23
I01
sg24
g25
sg26
g27
sg28
g29
sg30
I01
sbag1
(g19
g3
Ntp185
Rp186
(dp187
g23
I01
sg24
g25
sg26
g27
sg28
g29
sg30
I01
sbag1
(g19
g3
Ntp188
Rp189
(dp190
g23
I00
sg24
g46
sg26
g47
sg28
g48
sg30
I01
sbag1
(g19
g3
Ntp191
Rp192
(dp193
g23
I00
sg24
g34
sg26
g35
sg28
g36
sg30
I01
sbag1
(g19
g3
Ntp194
Rp195
(dp196
g23
I00
sg24
g34
sg26
g35
sg28
g36
sg30
I01
sbag1
(g19
g3
Ntp197
Rp198
(dp199
g23
I00
sg24
g34
sg26
g35
sg28
g36
sg30
I01
sbag1
(g19
g3
Ntp200
Rp201
(dp202
g23
I01
sg24
g25
sg26
g27
sg28
g29
sg30
I01
sbag1
(g19
g3
Ntp203
Rp204
(dp205
g23
I01
sg24
g25
sg26
g27
sg28
g29
sg30
I01
sbag1
(g19
g3
Ntp206
Rp207
(dp208
g23
I01
sg24
g25
sg26
g27
sg28
g29
sg30
I01
sbag1
(g19
g3
Ntp209
Rp210
(dp211
g23
I00
sg24
g46
sg26
g47
sg28
g48
sg30
I01
sbag1
(g19
g3
Ntp212
Rp213
(dp214
g23
I00
sg24
g34
sg26
g35
sg28
g36
sg30
I01
sbag1
(g19
g3
Ntp215
Rp216
(dp217
g23
I00
sg24
g34
sg26
g35
sg28
g36
sg30
I01
sbaa(lp218
g1
(g19
g3
Ntp219
Rp220
(dp221
g23
I00
sg24
g46
sg26
g47
sg28
g48
sg30
I01
sbag1
(g19
g3
Ntp222
Rp223
(dp224
g23
I01
sg24
g25
sg26
g27
sg28
g29
sg30
I01
sbag1
(g19
g3
Ntp225
Rp226
(dp227
g23
I01
sg24
g25
sg26
g27
sg28
g29
sg30
I01
sbag1
(g19
g3
Ntp228
Rp229
(dp230
g23
I01
sg24
g25
sg26
g27
sg28
g29
sg30
I01
sbag1
(g19
g3
Ntp231
Rp232
(dp233
g23
I00
sg24
g34
sg26
g35
sg28
g36
sg30
I01
sbag1
(g19
g3
Ntp234
Rp235
(dp236
g23
I01
sg24
g25
sg26
g27
sg28
g29
sg30
I01
sbag1
(g19
g3
Ntp237
Rp238
(dp239
g23
I01
sg24
g25
sg26
g27
sg28
g29
sg30
I01
sbag1
(g19
g3
Ntp240
Rp241
(dp242
g23
I00
sg24
g46
sg26
g47
sg28
g48
sg30
I01
sbag1
(g19
g3
Ntp243
Rp244
(dp245
g23
I01
sg24
g25
sg26
g27
sg28
g29
sg30
I01
sbag1
(g19
g3
Ntp246
Rp247
(dp248
g23
I00
sg24
g34
sg26
g35
sg28
g36
sg30
I01
sbag1
(g19
g3
Ntp249
Rp250
(dp251
g23
I00
sg24
g34
sg26
g35
sg28
g36
sg30
I01
sbag1
(g19
g3
Ntp252
Rp253
(dp254
g23
I00
sg24
g34
sg26
g35
sg28
g36
sg30
I01
sbaa(lp255
g1
(g19
g3
Ntp256
Rp257
(dp258
g23
I00
sg24
g34
sg26
g35
sg28
g36
sg30
I01
sbag1
(g19
g3
Ntp259
Rp260
(dp261
g23
I00
sg24
g34
sg26
g35
sg28
g36
sg30
I01
sbag1
(g19
g3
Ntp262
Rp263
(dp264
g23
I01
sg24
g25
sg26
g27
sg28
g29
sg30
I01
sbag1
(g19
g3
Ntp265
Rp266
(dp267
g23
I00
sg24
g34
sg26
g35
sg28
g36
sg30
I01
sbag1
(g19
g3
Ntp268
Rp269
(dp270
g23
I01
sg24
g25
sg26
g27
sg28
g29
sg30
I01
sbag1
(g19
g3
Ntp271
Rp272
(dp273
g23
I01
sg24
g25
sg26
g27
sg28
g29
sg30
I01
sbag1
(g19
g3
Ntp274
Rp275
(dp276
g23
I01
sg24
g25
sg26
g27
sg28
g29
sg30
I01
sbag1
(g19
g3
Ntp277
Rp278
(dp279
g23
I00
sg24
g46
sg26
g47
sg28
g48
sg30
I01
sbag1
(g19
g3
Ntp280
Rp281
(dp282
g23
I01
sg24
g25
sg26
g27
sg28
g29
sg30
I01
sbag1
(g19
g3
Ntp283
Rp284
(dp285
g23
I01
sg24
g25
sg26
g27
sg28
g29
sg30
I01
sbag1
(g19
g3
Ntp286
Rp287
(dp288
g23
I01
sg24
g25
sg26
g27
sg28
g29
sg30
I01
sbag1
(g19
g3
Ntp289
Rp290
(dp291
g23
I00
sg24
g34
sg26
g35
sg28
g36
sg30
I01
sbaa(lp292
g1
(g19
g3
Ntp293
Rp294
(dp295
g23
I01
sg24
g25
sg26
g27
sg28
g29
sg30
I01
sbag1
(g19
g3
Ntp296
Rp297
(dp298
g23
I00
sg24
g46
sg26
g47
sg28
g48
sg30
I01
sbag1
(g19
g3
Ntp299
Rp300
(dp301
g23
I01
sg24
g25
sg26
g27
sg28
g29
sg30
I01
sbag1
(g19
g3
Ntp302
Rp303
(dp304
g23
I00
sg24
g46
sg26
g47
sg28
g48
sg30
I01
sbag1
(g19
g3
Ntp305
Rp306
(dp307
g23
I01
sg24
g25
sg26
g27
sg28
g29
sg30
I01
sbag1
(g19
g3
Ntp308
Rp309
(dp310
g23
I01
sg24
g25
sg26
g27
sg28
g29
sg30
I01
sbag1
(g19
g3
Ntp311
Rp312
(dp313
g23
I01
sg24
g25
sg26
g27
sg28
g29
sg30
I01
sbag1
(g19
g3
Ntp314
Rp315
(dp316
g23
I00
sg24
g46
sg26
g47
sg28
g48
sg30
I01
sbag1
(g19
g3
Ntp317
Rp318
(dp319
g23
I00
sg24
g46
sg26
g47
sg28
g48
sg30
I01
sbag1
(g19
g3
Ntp320
Rp321
(dp322
g23
I01
sg24
g25
sg26
g27
sg28
g29
sg30
I01
sbag1
(g19
g3
Ntp323
Rp324
(dp325
g23
I01
sg24
g25
sg26
g27
sg28
g29
sg30
I01
sbag1
(g19
g3
Ntp326
Rp327
(dp328
g23
I00
sg24
g34
sg26
g35
sg28
g36
sg30
I01
sbaa(lp329
g1
(g19
g3
Ntp330
Rp331
(dp332
g23
I00
sg24
g34
sg26
g35
sg28
g36
sg30
I01
sbag1
(g19
g3
Ntp333
Rp334
(dp335
g23
I00
sg24
g34
sg26
g35
sg28
g36
sg30
I01
sbag1
(g19
g3
Ntp336
Rp337
(dp338
g23
I01
sg24
g25
sg26
g27
sg28
g29
sg30
I01
sbag1
(g19
g3
Ntp339
Rp340
(dp341
g23
I00
sg24
g34
sg26
g35
sg28
g36
sg30
I01
sbag1
(g19
g3
Ntp342
Rp343
(dp344
g23
I00
sg24
g34
sg26
g35
sg28
g36
sg30
I01
sbag1
(g19
g3
Ntp345
Rp346
(dp347
g23
I01
sg24
g25
sg26
g27
sg28
g29
sg30
I01
sbag1
(g19
g3
Ntp348
Rp349
(dp350
g23
I01
sg24
g25
sg26
g27
sg28
g29
sg30
I01
sbag1
(g19
g3
Ntp351
Rp352
(dp353
g23
I01
sg24
g25
sg26
g27
sg28
g29
sg30
I01
sbag1
(g19
g3
Ntp354
Rp355
(dp356
g23
I00
sg24
g34
sg26
g35
sg28
g36
sg30
I01
sbag1
(g19
g3
Ntp357
Rp358
(dp359
g23
I00
sg24
g34
sg26
g35
sg28
g36
sg30
I01
sbag1
(g19
g3
Ntp360
Rp361
(dp362
g23
I00
sg24
g34
sg26
g35
sg28
g36
sg30
I01
sbag1
(g19
g3
Ntp363
Rp364
(dp365
g23
I00
sg24
g34
sg26
g35
sg28
g36
sg30
I01
sbaa(lp366
g1
(g19
g3
Ntp367
Rp368
(dp369
g23
I00
sg24
g46
sg26
g47
sg28
g48
sg30
I01
sbag1
(g19
g3
Ntp370
Rp371
(dp372
g23
I00
sg24
g34
sg26
g35
sg28
g36
sg30
I01
sbag1
(g19
g3
Ntp373
Rp374
(dp375
g23
I00
sg24
g34
sg26
g35
sg28
g36
sg30
I01
sbag1
(g19
g3
Ntp376
Rp377
(dp378
g23
I00
sg24
g46
sg26
g47
sg28
g48
sg30
I01
sbag1
(g19
g3
Ntp379
Rp380
(dp381
g23
I01
sg24
g25
sg26
g27
sg28
g29
sg30
I01
sbag1
(g19
g3
Ntp382
Rp383
(dp384
g23
I00
sg24
g46
sg26
g47
sg28
g48
sg30
I01
sbag1
(g19
g3
Ntp385
Rp386
(dp387
g23
I00
sg24
g46
sg26
g47
sg28
g48
sg30
I01
sbag1
(g19
g3
Ntp388
Rp389
(dp390
g23
I01
sg24
g25
sg26
g27
sg28
g29
sg30
I01
sbag1
(g19
g3
Ntp391
Rp392
(dp393
g23
I01
sg24
g25
sg26
g27
sg28
g29
sg30
I01
sbag1
(g19
g3
Ntp394
Rp395
(dp396
g23
I00
sg24
g34
sg26
g35
sg28
g36
sg30
I01
sbag1
(g19
g3
Ntp397
Rp398
(dp399
g23
I01
sg24
g25
sg26
g27
sg28
g29
sg30
I01
sbag1
(g19
g3
Ntp400
Rp401
(dp402
g23
I00
sg24
g34
sg26
g35
sg28
g36
sg30
I01
sbaa(lp403
g1
(g19
g3
Ntp404
Rp405
(dp406
g23
I00
sg24
g34
sg26
g35
sg28
g36
sg30
I01
sbag1
(g19
g3
Ntp407
Rp408
(dp409
g23
I01
sg24
g25
sg26
g27
sg28
g29
sg30
I01
sbag1
(g19
g3
Ntp410
Rp411
(dp412
g23
I01
sg24
g25
sg26
g27
sg28
g29
sg30
I01
sbag1
(g19
g3
Ntp413
Rp414
(dp415
g23
I00
sg24
g34
sg26
g35
sg28
g36
sg30
I01
sbag1
(g19
g3
Ntp416
Rp417
(dp418
g23
I01
sg24
g25
sg26
g27
sg28
g29
sg30
I01
sbag1
(g19
g3
Ntp419
Rp420
(dp421
g23
I00
sg24
g34
sg26
g35
sg28
g36
sg30
I01
sbag1
(g19
g3
Ntp422
Rp423
(dp424
g23
I00
sg24
g34
sg26
g35
sg28
g36
sg30
I01
sbag1
(g19
g3
Ntp425
Rp426
(dp427
g23
I00
sg24
g34
sg26
g35
sg28
g36
sg30
I01
sbag1
(g19
g3
Ntp428
Rp429
(dp430
g23
I00
sg24
g46
sg26
g47
sg28
g48
sg30
I01
sbag1
(g19
g3
Ntp431
Rp432
(dp433
g23
I00
sg24
g46
sg26
g47
sg28
g48
sg30
I01
sbag1
(g19
g3
Ntp434
Rp435
(dp436
g23
I01
sg24
g25
sg26
g27
sg28
g29
sg30
I01
sbag1
(g19
g3
Ntp437
Rp438
(dp439
g23
I00
sg24
g34
sg26
g35
sg28
g36
sg30
I01
sbaa(lp440
g1
(g19
g3
Ntp441
Rp442
(dp443
g23
I00
sg24
g34
sg26
g35
sg28
g36
sg30
I01
sbag1
(g19
g3
Ntp444
Rp445
(dp446
g23
I00
sg24
g34
sg26
g35
sg28
g36
sg30
I01
sbag1
(g19
g3
Ntp447
Rp448
(dp449
g23
I00
sg24
g34
sg26
g35
sg28
g36
sg30
I01
sbag1
(g19
g3
Ntp450
Rp451
(dp452
g23
I00
sg24
g34
sg26
g35
sg28
g36
sg30
I01
sbag1
(g19
g3
Ntp453
Rp454
(dp455
g23
I00
sg24
g34
sg26
g35
sg28
g36
sg30
I01
sbag1
(g19
g3
Ntp456
Rp457
(dp458
g23
I00
sg24
g34
sg26
g35
sg28
g36
sg30
I01
sbag1
(g19
g3
Ntp459
Rp460
(dp461
g23
I00
sg24
g34
sg26
g35
sg28
g36
sg30
I01
sbag1
(g19
g3
Ntp462
Rp463
(dp464
g23
I00
sg24
g34
sg26
g35
sg28
g36
sg30
I01
sbag1
(g19
g3
Ntp465
Rp466
(dp467
g23
I00
sg24
g34
sg26
g35
sg28
g36
sg30
I01
sbag1
(g19
g3
Ntp468
Rp469
(dp470
g23
I00
sg24
g34
sg26
g35
sg28
g36
sg30
I01
sbag1
(g19
g3
Ntp471
Rp472
(dp473
g23
I00
sg24
g34
sg26
g35
sg28
g36
sg30
I01
sbag1
(g19
g3
Ntp474
Rp475
(dp476
g23
I00
sg24
g34
sg26
g35
sg28
g36
sg30
I01
sbaasS'location'
p477
(I0
I1
tp478
sbs(I-1
I1
tp479
g1
(g12
g3
Ntp480
Rp481
(dp482
g16
(lp483
(lp484
g1
(g19
g3
Ntp485
Rp486
(dp487
g23
I01
sg24
g25
sg26
g27
sg28
g29
sg30
I01
sbag1
(g19
g3
Ntp488
Rp489
(dp490
g23
I01
sg24
g25
sg26
g27
sg28
g29
sg30
I01
sbag1
(g19
g3
Ntp491
Rp492
(dp493
g23
I01
sg24
g25
sg26
g27
sg28
g29
sg30
I01
sbag1
(g19
g3
Ntp494
Rp495
(dp496
g23
I00
sg24
g46
sg26
g47
sg28
g48
sg30
I01
sbag1
(g19
g3
Ntp497
Rp498
(dp499
g23
I00
sg24
g34
sg26
g35
sg28
g36
sg30
I01
sbag1
(g19
g3
Ntp500
Rp501
(dp502
g23
I01
sg24
g25
sg26
g27
sg28
g29
sg30
I01
sbag1
(g19
g3
Ntp503
Rp504
(dp505
g23
I00
sg24
g34
sg26
g35
sg28
g36
sg30
I01
sbag1
(g19
g3
Ntp506
Rp507
(dp508
g23
I00
sg24
g34
sg26
g35
sg28
g36
sg30
I01
sbag1
(g19
g3
Ntp509
Rp510
(dp511
g23
I01
sg24
g25
sg26
g27
sg28
g29
sg30
I01
sbag1
(g19
g3
Ntp512
Rp513
(dp514
g23
I00
sg24
g46
sg26
g47
sg28
g48
sg30
I01
sbag1
(g19
g3
Ntp515
Rp516
(dp517
g23
I01
sg24
g25
sg26
g27
sg28
g29
sg30
I01
sbag1
(g19
g3
Ntp518
Rp519
(dp520
g23
I00
sg24
g34
sg26
g35
sg28
g36
sg30
I01
sbaa(lp521
g1
(g19
g3
Ntp522
Rp523
(dp524
g23
I00
sg24
g46
sg26
g47
sg28
g48
sg30
I01
sbag1
(g19
g3
Ntp525
Rp526
(dp527
g23
I00
sg24
g34
sg26
g35
sg28
g36
sg30
I01
sbag1
(g19
g3
Ntp528
Rp529
(dp530
g23
I00
sg24
g34
sg26
g35
sg28
g36
sg30
I01
sbag1
(g19
g3
Ntp531
Rp532
(dp533
g23
I01
sg24
g25
sg26
g27
sg28
g29
sg30
I01
sbag1
(g19
g3
Ntp534
Rp535
(dp536
g23
I00
sg24
g34
sg26
g35
sg28
g36
sg30
I01
sbag1
(g19
g3
Ntp537
Rp538
(dp539
g23
I01
sg24
g25
sg26
g27
sg28
g29
sg30
I01
sbag1
(g19
g3
Ntp540
Rp541
(dp542
g23
I01
sg24
g25
sg26
g27
sg28
g29
sg30
I01
sbag1
(g19
g3
Ntp543
Rp544
(dp545
g23
I01
sg24
g25
sg26
g27
sg28
g29
sg30
I01
sbag1
(g19
g3
Ntp546
Rp547
(dp548
g23
I00
sg24
g34
sg26
g35
sg28
g36
sg30
I01
sbag1
(g19
g3
Ntp549
Rp550
(dp551
g23
I01
sg24
g25
sg26
g27
sg28
g29
sg30
I01
sbag1
(g19
g3
Ntp552
Rp553
(dp554
g23
I00
sg24
g34
sg26
g35
sg28
g36
sg30
I01
sbag1
(g19
g3
Ntp555
Rp556
(dp557
g23
I00
sg24
g34
sg26
g35
sg28
g36
sg30
I01
sbaa(lp558
g1
(g19
g3
Ntp559
Rp560
(dp561
g23
I01
sg24
g25
sg26
g27
sg28
g29
sg30
I01
sbag1
(g19
g3
Ntp562
Rp563
(dp564
g23
I01
sg24
g25
sg26
g27
sg28
g29
sg30
I01
sbag1
(g19
g3
Ntp565
Rp566
(dp567
g23
I01
sg24
g25
sg26
g27
sg28
g29
sg30
I01
sbag1
(g19
g3
Ntp568
Rp569
(dp570
g23
I01
sg24
g25
sg26
g27
sg28
g29
sg30
I01
sbag1
(g19
g3
Ntp571
Rp572
(dp573
g23
I01
sg24
g25
sg26
g27
sg28
g29
sg30
I01
sbag1
(g19
g3
Ntp574
Rp575
(dp576
g23
I01
sg24
g25
sg26
g27
sg28
g29
sg30
I01
sbag1
(g19
g3
Ntp577
Rp578
(dp579
g23
I01
sg24
g25
sg26
g27
sg28
g29
sg30
I01
sbag1
(g19
g3
Ntp580
Rp581
(dp582
g23
I01
sg24
g25
sg26
g27
sg28
g29
sg30
I01
sbag1
(g19
g3
Ntp583
Rp584
(dp585
g23
I01
sg24
g25
sg26
g27
sg28
g29
sg30
I01
sbag1
(g19
g3
Ntp586
Rp587
(dp588
g23
I00
sg24
g46
sg26
g47
sg28
g48
sg30
I01
sbag1
(g19
g3
Ntp589
Rp590
(dp591
g23
I01
sg24
g25
sg26
g27
sg28
g29
sg30
I01
sbag1
(g19
g3
Ntp592
Rp593
(dp594
g23
I00
sg24
g34
sg26
g35
sg28
g36
sg30
I01
sbaa(lp595
g1
(g19
g3
Ntp596
Rp597
(dp598
g23
I01
sg24
g25
sg26
g27
sg28
g29
sg30
I01
sbag1
(g19
g3
Ntp599
Rp600
(dp601
g23
I01
sg24
g25
sg26
g27
sg28
g29
sg30
I01
sbag1
(g19
g3
Ntp602
Rp603
(dp604
g23
I01
sg24
g25
sg26
g27
sg28
g29
sg30
I01
sbag1
(g19
g3
Ntp605
Rp606
(dp607
g23
I00
sg24
g34
sg26
g35
sg28
g36
sg30
I01
sbag1
(g19
g3
Ntp608
Rp609
(dp610
g23
I00
sg24
g34
sg26
g35
sg28
g36
sg30
I01
sbag1
(g19
g3
Ntp611
Rp612
(dp613
g23
I01
sg24
g25
sg26
g27
sg28
g29
sg30
I01
sbag1
(g19
g3
Ntp614
Rp615
(dp616
g23
I01
sg24
g25
sg26
g27
sg28
g29
sg30
I01
sbag1
(g19
g3
Ntp617
Rp618
(dp619
g23
I00
sg24
g46
sg26
g47
sg28
g48
sg30
I01
sbag1
(g19
g3
Ntp620
Rp621
(dp622
g23
I00
sg24
g34
sg26
g35
sg28
g36
sg30
I01
sbag1
(g19
g3
Ntp623
Rp624
(dp625
g23
I00
sg24
g46
sg26
g47
sg28
g48
sg30
I01
sbag1
(g19
g3
Ntp626
Rp627
(dp628
g23
I01
sg24
g25
sg26
g27
sg28
g29
sg30
I01
sbag1
(g19
g3
Ntp629
Rp630
(dp631
g23
I00
sg24
g34
sg26
g35
sg28
g36
sg30
I01
sbaa(lp632
g1
(g19
g3
Ntp633
Rp634
(dp635
g23
I01
sg24
g25
sg26
g27
sg28
g29
sg30
I01
sbag1
(g19
g3
Ntp636
Rp637
(dp638
g23
I01
sg24
g25
sg26
g27
sg28
g29
sg30
I01
sbag1
(g19
g3
Ntp639
Rp640
(dp641
g23
I01
sg24
g25
sg26
g27
sg28
g29
sg30
I01
sbag1
(g19
g3
Ntp642
Rp643
(dp644
g23
I01
sg24
g25
sg26
g27
sg28
g29
sg30
I01
sbag1
(g19
g3
Ntp645
Rp646
(dp647
g23
I01
sg24
g25
sg26
g27
sg28
g29
sg30
I01
sbag1
(g19
g3
Ntp648
Rp649
(dp650
g23
I00
sg24
g46
sg26
g47
sg28
g48
sg30
I01
sbag1
(g19
g3
Ntp651
Rp652
(dp653
g23
I01
sg24
g25
sg26
g27
sg28
g29
sg30
I01
sbag1
(g19
g3
Ntp654
Rp655
(dp656
g23
I01
sg24
g25
sg26
g27
sg28
g29
sg30
I01
sbag1
(g19
g3
Ntp657
Rp658
(dp659
g23
I01
sg24
g25
sg26
g27
sg28
g29
sg30
I01
sbag1
(g19
g3
Ntp660
Rp661
(dp662
g23
I00
sg24
g34
sg26
g35
sg28
g36
sg30
I01
sbag1
(g19
g3
Ntp663
Rp664
(dp665
g23
I01
sg24
g25
sg26
g27
sg28
g29
sg30
I01
sbag1
(g19
g3
Ntp666
Rp667
(dp668
g23
I00
sg24
g34
sg26
g35
sg28
g36
sg30
I01
sbaa(lp669
g1
(g19
g3
Ntp670
Rp671
(dp672
g23
I01
sg24
g25
sg26
g27
sg28
g29
sg30
I01
sbag1
(g19
g3
Ntp673
Rp674
(dp675
g23
I00
sg24
g46
sg26
g47
sg28
g48
sg30
I01
sbag1
(g19
g3
Ntp676
Rp677
(dp678
g23
I01
sg24
g25
sg26
g27
sg28
g29
sg30
I01
sbag1
(g19
g3
Ntp679
Rp680
(dp681
g23
I01
sg24
g25
sg26
g27
sg28
g29
sg30
I01
sbag1
(g19
g3
Ntp682
Rp683
(dp684
g23
I00
sg24
g34
sg26
g35
sg28
g36
sg30
I01
sbag1
(g19
g3
Ntp685
Rp686
(dp687
g23
I01
sg24
g25
sg26
g27
sg28
g29
sg30
I01
sbag1
(g19
g3
Ntp688
Rp689
(dp690
g23
I01
sg24
g25
sg26
g27
sg28
g29
sg30
I01
sbag1
(g19
g3
Ntp691
Rp692
(dp693
g23
I00
sg24
g46
sg26
g47
sg28
g48
sg30
I01
sbag1
(g19
g3
Ntp694
Rp695
(dp696
g23
I00
sg24
g46
sg26
g47
sg28
g48
sg30
I01
sbag1
(g19
g3
Ntp697
Rp698
(dp699
g23
I00
sg24
g46
sg26
g47
sg28
g48
sg30
I01
sbag1
(g19
g3
Ntp700
Rp701
(dp702
g23
I01
sg24
g25
sg26
g27
sg28
g29
sg30
I01
sbag1
(g19
g3
Ntp703
Rp704
(dp705
g23
I00
sg24
g34
sg26
g35
sg28
g36
sg30
I01
sbaa(lp706
g1
(g19
g3
Ntp707
Rp708
(dp709
g23
I01
sg24
g25
sg26
g27
sg28
g29
sg30
I01
sbag1
(g19
g3
Ntp710
Rp711
(dp712
g23
I00
sg24
g34
sg26
g35
sg28
g36
sg30
I01
sbag1
(g19
g3
Ntp713
Rp714
(dp715
g23
I00
sg24
g34
sg26
g35
sg28
g36
sg30
I01
sbag1
(g19
g3
Ntp716
Rp717
(dp718
g23
I01
sg24
g25
sg26
g27
sg28
g29
sg30
I01
sbag1
(g19
g3
Ntp719
Rp720
(dp721
g23
I00
sg24
g34
sg26
g35
sg28
g36
sg30
I01
sbag1
(g19
g3
Ntp722
Rp723
(dp724
g23
I00
sg24
g34
sg26
g35
sg28
g36
sg30
I01
sbag1
(g19
g3
Ntp725
Rp726
(dp727
g23
I00
sg24
g34
sg26
g35
sg28
g36
sg30
I01
sbag1
(g19
g3
Ntp728
Rp729
(dp730
g23
I01
sg24
g25
sg26
g27
sg28
g29
sg30
I01
sbag1
(g19
g3
Ntp731
Rp732
(dp733
g23
I00
sg24
g34
sg26
g35
sg28
g36
sg30
I01
sbag1
(g19
g3
Ntp734
Rp735
(dp736
g23
I00
sg24
g46
sg26
g47
sg28
g48
sg30
I01
sbag1
(g19
g3
Ntp737
Rp738
(dp739
g23
I01
sg24
g25
sg26
g27
sg28
g29
sg30
I01
sbag1
(g19
g3
Ntp740
Rp741
(dp742
g23
I00
sg24
g34
sg26
g35
sg28
g36
sg30
I01
sbaa(lp743
g1
(g19
g3
Ntp744
Rp745
(dp746
g23
I01
sg24
g25
sg26
g27
sg28
g29
sg30
I01
sbag1
(g19
g3
Ntp747
Rp748
(dp749
g23
I01
sg24
g25
sg26
g27
sg28
g29
sg30
I01
sbag1
(g19
g3
Ntp750
Rp751
(dp752
g23
I00
sg24
g46
sg26
g47
sg28
g48
sg30
I01
sbag1
(g19
g3
Ntp753
Rp754
(dp755
g23
I00
sg24
g46
sg26
g47
sg28
g48
sg30
I01
sbag1
(g19
g3
Ntp756
Rp757
(dp758
g23
I00
sg24
g46
sg26
g47
sg28
g48
sg30
I01
sbag1
(g19
g3
Ntp759
Rp760
(dp761
g23
I00
sg24
g34
sg26
g35
sg28
g36
sg30
I01
sbag1
(g19
g3
Ntp762
Rp763
(dp764
g23
I01
sg24
g25
sg26
g27
sg28
g29
sg30
I01
sbag1
(g19
g3
Ntp765
Rp766
(dp767
g23
I00
sg24
g46
sg26
g47
sg28
g48
sg30
I01
sbag1
(g19
g3
Ntp768
Rp769
(dp770
g23
I01
sg24
g25
sg26
g27
sg28
g29
sg30
I01
sbag1
(g19
g3
Ntp771
Rp772
(dp773
g23
I00
sg24
g34
sg26
g35
sg28
g36
sg30
I01
sbag1
(g19
g3
Ntp774
Rp775
(dp776
g23
I00
sg24
g34
sg26
g35
sg28
g36
sg30
I01
sbag1
(g19
g3
Ntp777
Rp778
(dp779
g23
I00
sg24
g34
sg26
g35
sg28
g36
sg30
I01
sbaa(lp780
g1
(g19
g3
Ntp781
Rp782
(dp783
g23
I01
sg24
g25
sg26
g27
sg28
g29
sg30
I01
sbag1
(g19
g3
Ntp784
Rp785
(dp786
g23
I00
sg24
g34
sg26
g35
sg28
g36
sg30
I01
sbag1
(g19
g3
Ntp787
Rp788
(dp789
g23
I00
sg24
g46
sg26
g47
sg28
g48
sg30
I01
sbag1
(g19
g3
Ntp790
Rp791
(dp792
g23
I00
sg24
g34
sg26
g35
sg28
g36
sg30
I01
sbag1
(g19
g3
Ntp793
Rp794
(dp795
g23
I01
sg24
g25
sg26
g27
sg28
g29
sg30
I01
sbag1
(g19
g3
Ntp796
Rp797
(dp798
g23
I00
sg24
g34
sg26
g35
sg28
g36
sg30
I01
sbag1
(g19
g3
Ntp799
Rp800
(dp801
g23
I01
sg24
g25
sg26
g27
sg28
g29
sg30
I01
sbag1
(g19
g3
Ntp802
Rp803
(dp804
g23
I00
sg24
g46
sg26
g47
sg28
g48
sg30
I01
sbag1
(g19
g3
Ntp805
Rp806
(dp807
g23
I01
sg24
g25
sg26
g27
sg28
g29
sg30
I01
sbag1
(g19
g3
Ntp808
Rp809
(dp810
g23
I01
sg24
g25
sg26
g27
sg28
g29
sg30
I01
sbag1
(g19
g3
Ntp811
Rp812
(dp813
g23
I01
sg24
g25
sg26
g27
sg28
g29
sg30
I01
sbag1
(g19
g3
Ntp814
Rp815
(dp816
g23
I00
sg24
g34
sg26
g35
sg28
g36
sg30
I01
sbaa(lp817
g1
(g19
g3
Ntp818
Rp819
(dp820
g23
I01
sg24
g25
sg26
g27
sg28
g29
sg30
I01
sbag1
(g19
g3
Ntp821
Rp822
(dp823
g23
I00
sg24
g46
sg26
g47
sg28
g48
sg30
I01
sbag1
(g19
g3
Ntp824
Rp825
(dp826
g23
I01
sg24
g25
sg26
g27
sg28
g29
sg30
I01
sbag1
(g19
g3
Ntp827
Rp828
(dp829
g23
I00
sg24
g34
sg26
g35
sg28
g36
sg30
I01
sbag1
(g19
g3
Ntp830
Rp831
(dp832
g23
I01
sg24
g25
sg26
g27
sg28
g29
sg30
I01
sbag1
(g19
g3
Ntp833
Rp834
(dp835
g23
I00
sg24
g46
sg26
g47
sg28
g48
sg30
I01
sbag1
(g19
g3
Ntp836
Rp837
(dp838
g23
I00
sg24
g34
sg26
g35
sg28
g36
sg30
I01
sbag1
(g19
g3
Ntp839
Rp840
(dp841
g23
I01
sg24
g25
sg26
g27
sg28
g29
sg30
I01
sbag1
(g19
g3
Ntp842
Rp843
(dp844
g23
I00
sg24
g46
sg26
g47
sg28
g48
sg30
I01
sbag1
(g19
g3
Ntp845
Rp846
(dp847
g23
I00
sg24
g46
sg26
g47
sg28
g48
sg30
I01
sbag1
(g19
g3
Ntp848
Rp849
(dp850
g23
I01
sg24
g25
sg26
g27
sg28
g29
sg30
I01
sbag1
(g19
g3
Ntp851
Rp852
(dp853
g23
I00
sg24
g34
sg26
g35
sg28
g36
sg30
I01
sbaa(lp854
g1
(g19
g3
Ntp855
Rp856
(dp857
g23
I01
sg24
g25
sg26
g27
sg28
g29
sg30
I01
sbag1
(g19
g3
Ntp858
Rp859
(dp860
g23
I01
sg24
g25
sg26
g27
sg28
g29
sg30
I01
sbag1
(g19
g3
Ntp861
Rp862
(dp863
g23
I00
sg24
g46
sg26
g47
sg28
g48
sg30
I01
sbag1
(g19
g3
Ntp864
Rp865
(dp866
g23
I01
sg24
g25
sg26
g27
sg28
g29
sg30
I01
sbag1
(g19
g3
Ntp867
Rp868
(dp869
g23
I01
sg24
g25
sg26
g27
sg28
g29
sg30
I01
sbag1
(g19
g3
Ntp870
Rp871
(dp872
g23
I01
sg24
g25
sg26
g27
sg28
g29
sg30
I01
sbag1
(g19
g3
Ntp873
Rp874
(dp875
g23
I01
sg24
g25
sg26
g27
sg28
g29
sg30
I01
sbag1
(g19
g3
Ntp876
Rp877
(dp878
g23
I01
sg24
g25
sg26
g27
sg28
g29
sg30
I01
sbag1
(g19
g3
Ntp879
Rp880
(dp881
g23
I00
sg24
g34
sg26
g35
sg28
g36
sg30
I01
sbag1
(g19
g3
Ntp882
Rp883
(dp884
g23
I00
sg24
g34
sg26
g35
sg28
g36
sg30
I01
sbag1
(g19
g3
Ntp885
Rp886
(dp887
g23
I01
sg24
g25
sg26
g27
sg28
g29
sg30
I01
sbag1
(g19
g3
Ntp888
Rp889
(dp890
g23
I00
sg24
g34
sg26
g35
sg28
g36
sg30
I01
sbaa(lp891
g1
(g19
g3
Ntp892
Rp893
(dp894
g23
I00
sg24
g34
sg26
g35
sg28
g36
sg30
I01
sbag1
(g19
g3
Ntp895
Rp896
(dp897
g23
I00
sg24
g34
sg26
g35
sg28
g36
sg30
I01
sbag1
(g19
g3
Ntp898
Rp899
(dp900
g23
I00
sg24
g34
sg26
g35
sg28
g36
sg30
I01
sbag1
(g19
g3
Ntp901
Rp902
(dp903
g23
I00
sg24
g34
sg26
g35
sg28
g36
sg30
I01
sbag1
(g19
g3
Ntp904
Rp905
(dp906
g23
I00
sg24
g34
sg26
g35
sg28
g36
sg30
I01
sbag1
(g19
g3
Ntp907
Rp908
(dp909
g23
I00
sg24
g34
sg26
g35
sg28
g36
sg30
I01
sbag1
(g19
g3
Ntp910
Rp911
(dp912
g23
I00
sg24
g34
sg26
g35
sg28
g36
sg30
I01
sbag1
(g19
g3
Ntp913
Rp914
(dp915
g23
I00
sg24
g34
sg26
g35
sg28
g36
sg30
I01
sbag1
(g19
g3
Ntp916
Rp917
(dp918
g23
I00
sg24
g34
sg26
g35
sg28
g36
sg30
I01
sbag1
(g19
g3
Ntp919
Rp920
(dp921
g23
I00
sg24
g34
sg26
g35
sg28
g36
sg30
I01
sbag1
(g19
g3
Ntp922
Rp923
(dp924
g23
I00
sg24
g34
sg26
g35
sg28
g36
sg30
I01
sbag1
(g19
g3
Ntp925
Rp926
(dp927
g23
I00
sg24
g34
sg26
g35
sg28
g36
sg30
I01
sbaasg477
(I-1
I1
tp928
sbs(I0
I0
tp929
g1
(g12
g3
Ntp930
Rp931
(dp932
g16
(lp933
(lp934
g1
(g19
g3
Ntp935
Rp936
(dp937
g23
I01
sg24
g25
sg26
g27
sg28
g29
sg30
I01
sbag1
(g19
g3
Ntp938
Rp939
(dp940
g23
I01
sg24
g25
sg26
g27
sg28
g29
sg30
I01
sbag1
(g19
g3
Ntp941
Rp942
(dp943
g23
I00
sg24
g34
sg26
g35
sg28
g36
sg30
I01
sbag1
(g19
g3
Ntp944
Rp945
(dp946
g23
I00
sg24
g34
sg26
g35
sg28
g36
sg30
I01
sbag1
(g19
g3
Ntp947
Rp948
(dp949
g23
I01
sg24
g25
sg26
g27
sg28
g29
sg30
I01
sbag1
(g19
g3
Ntp950
Rp951
(dp952
g23
I01
sg24
g25
sg26
g27
sg28
g29
sg30
I01
sbag1
(g19
g3
Ntp953
Rp954
(dp955
g23
I01
sg24
g25
sg26
g27
sg28
g29
sg30
I01
sbag1
(g19
g3
Ntp956
Rp957
(dp958
g23
I00
sg24
g46
sg26
g47
sg28
g48
sg30
I01
sbag1
(g19
g3
Ntp959
Rp960
(dp961
g23
I01
sg24
g25
sg26
g27
sg28
g29
sg30
I01
sbag1
(g19
g3
Ntp962
Rp963
(dp964
g23
I01
sg24
g25
sg26
g27
sg28
g29
sg30
I01
sbag1
(g19
g3
Ntp965
Rp966
(dp967
g23
I01
sg24
g25
sg26
g27
sg28
g29
sg30
I01
sbag1
(g19
g3
Ntp968
Rp969
(dp970
g23
I00
sg24
g34
sg26
g35
sg28
g36
sg30
I01
sbaa(lp971
g1
(g19
g3
Ntp972
Rp973
(dp974
g23
I01
sg24
g25
sg26
g27
sg28
g29
sg30
I01
sbag1
(g19
g3
Ntp975
Rp976
(dp977
g23
I01
sg24
g25
sg26
g27
sg28
g29
sg30
I01
sbag1
(g19
g3
Ntp978
Rp979
(dp980
g23
I01
sg24
g25
sg26
g27
sg28
g29
sg30
I01
sbag1
(g19
g3
Ntp981
Rp982
(dp983
g23
I01
sg24
Nsg26
S'dirt.png'
p984
sg28
S'dirt'
p985
sg30
I00
sbag1
(g19
g3
Ntp986
Rp987
(dp988
g23
I01
sg24
Nsg26
g984
sg28
g985
sg30
I00
sbag1
(g19
g3
Ntp989
Rp990
(dp991
g23
I01
sg24
Nsg26
g984
sg28
g985
sg30
I00
sbag1
(g19
g3
Ntp992
Rp993
(dp994
g23
I01
sg24
Nsg26
g984
sg28
g985
sg30
I00
sbag1
(g19
g3
Ntp995
Rp996
(dp997
g23
I00
sg24
g34
sg26
g35
sg28
g36
sg30
I01
sbag1
(g19
g3
Ntp998
Rp999
(dp1000
g23
I00
sg24
g34
sg26
g35
sg28
g36
sg30
I01
sbag1
(g19
g3
Ntp1001
Rp1002
(dp1003
g23
I01
sg24
g25
sg26
g27
sg28
g29
sg30
I01
sbag1
(g19
g3
Ntp1004
Rp1005
(dp1006
g23
I01
sg24
g25
sg26
g27
sg28
g29
sg30
I01
sbag1
(g19
g3
Ntp1007
Rp1008
(dp1009
g23
I00
sg24
g34
sg26
g35
sg28
g36
sg30
I01
sbaa(lp1010
g1
(g19
g3
Ntp1011
Rp1012
(dp1013
g23
I00
sg24
g34
sg26
g35
sg28
g36
sg30
I01
sbag1
(g19
g3
Ntp1014
Rp1015
(dp1016
g23
I01
sg24
Nsg26
g984
sg28
g985
sg30
I00
sbag1
(g19
g3
Ntp1017
Rp1018
(dp1019
g23
I01
sg24
Nsg26
g984
sg28
g985
sg30
I00
sbag1
(g19
g3
Ntp1020
Rp1021
(dp1022
g23
I01
sg24
Nsg26
g984
sg28
g985
sg30
I00
sbag1
(g19
g3
Ntp1023
Rp1024
(dp1025
g23
I01
sg24
Nsg26
g984
sg28
g985
sg30
I00
sbag1
(g19
g3
Ntp1026
Rp1027
(dp1028
g23
I01
sg24
Nsg26
g984
sg28
g985
sg30
I00
sbag1
(g19
g3
Ntp1029
Rp1030
(dp1031
g23
I01
sg24
Nsg26
g984
sg28
g985
sg30
I00
sbag1
(g19
g3
Ntp1032
Rp1033
(dp1034
g23
I00
sg24
g34
sg26
g35
sg28
g36
sg30
I01
sbag1
(g19
g3
Ntp1035
Rp1036
(dp1037
g23
I01
sg24
g25
sg26
g27
sg28
g29
sg30
I01
sbag1
(g19
g3
Ntp1038
Rp1039
(dp1040
g23
I01
sg24
g25
sg26
g27
sg28
g29
sg30
I01
sbag1
(g19
g3
Ntp1041
Rp1042
(dp1043
g23
I01
sg24
g25
sg26
g27
sg28
g29
sg30
I01
sbag1
(g19
g3
Ntp1044
Rp1045
(dp1046
g23
I00
sg24
g34
sg26
g35
sg28
g36
sg30
I01
sbaa(lp1047
g1
(g19
g3
Ntp1048
Rp1049
(dp1050
g23
I00
sg24
g34
sg26
g35
sg28
g36
sg30
I01
sbag1
(g19
g3
Ntp1051
Rp1052
(dp1053
g23
I01
sg24
g25
sg26
g27
sg28
g29
sg30
I01
sbag1
(g19
g3
Ntp1054
Rp1055
(dp1056
g23
I01
sg24
g25
sg26
g27
sg28
g29
sg30
I01
sbag1
(g19
g3
Ntp1057
Rp1058
(dp1059
g23
I01
sg24
Nsg26
g984
sg28
g985
sg30
I00
sbag1
(g19
g3
Ntp1060
Rp1061
(dp1062
g23
I01
sg24
Nsg26
g984
sg28
g985
sg30
I00
sbag1
(g19
g3
Ntp1063
Rp1064
(dp1065
g23
I01
sg24
Nsg26
g984
sg28
g985
sg30
I00
sbag1
(g19
g3
Ntp1066
Rp1067
(dp1068
g23
I01
sg24
g25
sg26
g27
sg28
g29
sg30
I01
sbag1
(g19
g3
Ntp1069
Rp1070
(dp1071
g23
I01
sg24
g25
sg26
g27
sg28
g29
sg30
I01
sbag1
(g19
g3
Ntp1072
Rp1073
(dp1074
g23
I01
sg24
g25
sg26
g27
sg28
g29
sg30
I01
sbag1
(g19
g3
Ntp1075
Rp1076
(dp1077
g23
I01
sg24
Nsg26
g984
sg28
g985
sg30
I00
sbag1
(g19
g3
Ntp1078
Rp1079
(dp1080
g23
I00
sg24
g34
sg26
g35
sg28
g36
sg30
I01
sbag1
(g19
g3
Ntp1081
Rp1082
(dp1083
g23
I00
sg24
g34
sg26
g35
sg28
g36
sg30
I01
sbaa(lp1084
g1
(g19
g3
Ntp1085
Rp1086
(dp1087
g23
I00
sg24
g34
sg26
g35
sg28
g36
sg30
I01
sbag1
(g19
g3
Ntp1088
Rp1089
(dp1090
g23
I00
sg24
g34
sg26
g35
sg28
g36
sg30
I01
sbag1
(g19
g3
Ntp1091
Rp1092
(dp1093
g23
I00
sg24
g34
sg26
g35
sg28
g36
sg30
I01
sbag1
(g19
g3
Ntp1094
Rp1095
(dp1096
g23
I00
sg24
g46
sg26
S'wood.png'
p1097
sg28
S'wood'
p1098
sg30
I01
sbag1
(g19
g3
Ntp1099
Rp1100
(dp1101
g23
I00
sg24
g46
sg26
g1097
sg28
g1098
sg30
I01
sbag1
(g19
g3
Ntp1102
Rp1103
(dp1104
g23
I00
sg24
g46
sg26
g1097
sg28
g1098
sg30
I01
sbag1
(g19
g3
Ntp1105
Rp1106
(dp1107
g23
I01
sg24
g25
sg26
g27
sg28
g29
sg30
I01
sbag1
(g19
g3
Ntp1108
Rp1109
(dp1110
g23
I01
sg24
g25
sg26
g27
sg28
g29
sg30
I01
sbag1
(g19
g3
Ntp1111
Rp1112
(dp1113
g23
I01
sg24
Nsg26
g984
sg28
g985
sg30
I00
sbag1
(g19
g3
Ntp1114
Rp1115
(dp1116
g23
I01
sg24
g25
sg26
g27
sg28
g29
sg30
I01
sbag1
(g19
g3
Ntp1117
Rp1118
(dp1119
g23
I00
sg24
g34
sg26
g35
sg28
g36
sg30
I01
sbag1
(g19
g3
Ntp1120
Rp1121
(dp1122
g23
I00
sg24
g34
sg26
g35
sg28
g36
sg30
I01
sbaa(lp1123
g1
(g19
g3
Ntp1124
Rp1125
(dp1126
g23
I00
sg24
g34
sg26
g35
sg28
g36
sg30
I01
sbag1
(g19
g3
Ntp1127
Rp1128
(dp1129
g23
I01
sg24
g25
sg26
g27
sg28
g29
sg30
I01
sbag1
(g19
g3
Ntp1130
Rp1131
(dp1132
g23
I01
sg24
g25
sg26
g27
sg28
g29
sg30
I01
sbag1
(g19
g3
Ntp1133
Rp1134
(dp1135
g23
I01
sg24
g25
sg26
g27
sg28
g29
sg30
I01
sbag1
(g19
g3
Ntp1136
Rp1137
(dp1138
g23
I00
sg24
g46
sg26
g1097
sg28
g1098
sg30
I01
sbag1
(g19
g3
Ntp1139
Rp1140
(dp1141
g23
I01
sg24
g25
sg26
g27
sg28
g29
sg30
I01
sbag1
(g19
g3
Ntp1142
Rp1143
(dp1144
g23
I01
sg24
Nsg26
g984
sg28
g985
sg30
I00
sbag1
(g19
g3
Ntp1145
Rp1146
(dp1147
g23
I01
sg24
g25
sg26
g27
sg28
g29
sg30
I01
sbag1
(g19
g3
Ntp1148
Rp1149
(dp1150
g23
I01
sg24
g25
sg26
g27
sg28
g29
sg30
I01
sbag1
(g19
g3
Ntp1151
Rp1152
(dp1153
g23
I01
sg24
g25
sg26
g27
sg28
g29
sg30
I01
sbag1
(g19
g3
Ntp1154
Rp1155
(dp1156
g23
I01
sg24
g25
sg26
g27
sg28
g29
sg30
I01
sbag1
(g19
g3
Ntp1157
Rp1158
(dp1159
g23
I00
sg24
g34
sg26
g35
sg28
g36
sg30
I01
sbaa(lp1160
g1
(g19
g3
Ntp1161
Rp1162
(dp1163
g23
I01
sg24
g25
sg26
g27
sg28
g29
sg30
I01
sbag1
(g19
g3
Ntp1164
Rp1165
(dp1166
g23
I01
sg24
g25
sg26
g27
sg28
g29
sg30
I01
sbag1
(g19
g3
Ntp1167
Rp1168
(dp1169
g23
I01
sg24
g25
sg26
g27
sg28
g29
sg30
I01
sbag1
(g19
g3
Ntp1170
Rp1171
(dp1172
g23
I00
sg24
g46
sg26
g1097
sg28
g1098
sg30
I01
sbag1
(g19
g3
Ntp1173
Rp1174
(dp1175
g23
I00
sg24
g46
sg26
g1097
sg28
g1098
sg30
I01
sbag1
(g19
g3
Ntp1176
Rp1177
(dp1178
g23
I00
sg24
g46
sg26
g1097
sg28
g1098
sg30
I01
sbag1
(g19
g3
Ntp1179
Rp1180
(dp1181
g23
I01
sg24
g25
sg26
g27
sg28
g29
sg30
I01
sbag1
(g19
g3
Ntp1182
Rp1183
(dp1184
g23
I01
sg24
g25
sg26
g27
sg28
g29
sg30
I01
sbag1
(g19
g3
Ntp1185
Rp1186
(dp1187
g23
I01
sg24
g25
sg26
g27
sg28
g29
sg30
I01
sbag1
(g19
g3
Ntp1188
Rp1189
(dp1190
g23
I01
sg24
g25
sg26
g27
sg28
g29
sg30
I01
sbag1
(g19
g3
Ntp1191
Rp1192
(dp1193
g23
I01
sg24
Nsg26
g984
sg28
g985
sg30
I00
sbag1
(g19
g3
Ntp1194
Rp1195
(dp1196
g23
I00
sg24
g34
sg26
g35
sg28
g36
sg30
I01
sbaa(lp1197
g1
(g19
g3
Ntp1198
Rp1199
(dp1200
g23
I01
sg24
g25
sg26
g27
sg28
g29
sg30
I01
sbag1
(g19
g3
Ntp1201
Rp1202
(dp1203
g23
I01
sg24
g25
sg26
g27
sg28
g29
sg30
I01
sbag1
(g19
g3
Ntp1204
Rp1205
(dp1206
g23
I01
sg24
g25
sg26
g27
sg28
g29
sg30
I01
sbag1
(g19
g3
Ntp1207
Rp1208
(dp1209
g23
I01
sg24
g25
sg26
g27
sg28
g29
sg30
I01
sbag1
(g19
g3
Ntp1210
Rp1211
(dp1212
g23
I01
sg24
g25
sg26
g27
sg28
g29
sg30
I01
sbag1
(g19
g3
Ntp1213
Rp1214
(dp1215
g23
I01
sg24
g25
sg26
g27
sg28
g29
sg30
I01
sbag1
(g19
g3
Ntp1216
Rp1217
(dp1218
g23
I01
sg24
g25
sg26
g27
sg28
g29
sg30
I01
sbag1
(g19
g3
Ntp1219
Rp1220
(dp1221
g23
I01
sg24
g25
sg26
g27
sg28
g29
sg30
I01
sbag1
(g19
g3
Ntp1222
Rp1223
(dp1224
g23
I00
sg24
g34
sg26
g35
sg28
g36
sg30
I01
sbag1
(g19
g3
Ntp1225
Rp1226
(dp1227
g23
I01
sg24
g25
sg26
g27
sg28
g29
sg30
I01
sbag1
(g19
g3
Ntp1228
Rp1229
(dp1230
g23
I00
sg24
g34
sg26
g35
sg28
g36
sg30
I01
sbag1
(g19
g3
Ntp1231
Rp1232
(dp1233
g23
I00
sg24
g34
sg26
g35
sg28
g36
sg30
I01
sbaa(lp1234
g1
(g19
g3
Ntp1235
Rp1236
(dp1237
g23
I01
sg24
g25
sg26
g27
sg28
g29
sg30
I01
sbag1
(g19
g3
Ntp1238
Rp1239
(dp1240
g23
I01
sg24
g25
sg26
g27
sg28
g29
sg30
I01
sbag1
(g19
g3
Ntp1241
Rp1242
(dp1243
g23
I00
sg24
g46
sg26
g1097
sg28
g1098
sg30
I01
sbag1
(g19
g3
Ntp1244
Rp1245
(dp1246
g23
I01
sg24
g25
sg26
g27
sg28
g29
sg30
I01
sbag1
(g19
g3
Ntp1247
Rp1248
(dp1249
g23
I00
sg24
g46
sg26
g1097
sg28
g1098
sg30
I01
sbag1
(g19
g3
Ntp1250
Rp1251
(dp1252
g23
I00
sg24
g46
sg26
g1097
sg28
g1098
sg30
I01
sbag1
(g19
g3
Ntp1253
Rp1254
(dp1255
g23
I01
sg24
g25
sg26
g27
sg28
g29
sg30
I01
sbag1
(g19
g3
Ntp1256
Rp1257
(dp1258
g23
I01
sg24
Nsg26
g984
sg28
g985
sg30
I00
sbag1
(g19
g3
Ntp1259
Rp1260
(dp1261
g23
I01
sg24
g25
sg26
g27
sg28
g29
sg30
I01
sbag1
(g19
g3
Ntp1262
Rp1263
(dp1264
g23
I01
sg24
Nsg26
g984
sg28
g985
sg30
I00
sbag1
(g19
g3
Ntp1265
Rp1266
(dp1267
g23
I01
sg24
g25
sg26
g27
sg28
g29
sg30
I01
sbag1
(g19
g3
Ntp1268
Rp1269
(dp1270
g23
I00
sg24
g34
sg26
g35
sg28
g36
sg30
I01
sbaa(lp1271
g1
(g19
g3
Ntp1272
Rp1273
(dp1274
g23
I01
sg24
g25
sg26
g27
sg28
g29
sg30
I01
sbag1
(g19
g3
Ntp1275
Rp1276
(dp1277
g23
I01
sg24
g25
sg26
g27
sg28
g29
sg30
I01
sbag1
(g19
g3
Ntp1278
Rp1279
(dp1280
g23
I01
sg24
g25
sg26
g27
sg28
g29
sg30
I01
sbag1
(g19
g3
Ntp1281
Rp1282
(dp1283
g23
I01
sg24
g25
sg26
g27
sg28
g29
sg30
I01
sbag1
(g19
g3
Ntp1284
Rp1285
(dp1286
g23
I01
sg24
Nsg26
g984
sg28
g985
sg30
I00
sbag1
(g19
g3
Ntp1287
Rp1288
(dp1289
g23
I01
sg24
g25
sg26
g27
sg28
g29
sg30
I01
sbag1
(g19
g3
Ntp1290
Rp1291
(dp1292
g23
I01
sg24
Nsg26
g984
sg28
g985
sg30
I00
sbag1
(g19
g3
Ntp1293
Rp1294
(dp1295
g23
I01
sg24
g25
sg26
g27
sg28
g29
sg30
I01
sbag1
(g19
g3
Ntp1296
Rp1297
(dp1298
g23
I01
sg24
g25
sg26
g27
sg28
g29
sg30
I01
sbag1
(g19
g3
Ntp1299
Rp1300
(dp1301
g23
I01
sg24
g25
sg26
g27
sg28
g29
sg30
I01
sbag1
(g19
g3
Ntp1302
Rp1303
(dp1304
g23
I01
sg24
Nsg26
g984
sg28
g985
sg30
I00
sbag1
(g19
g3
Ntp1305
Rp1306
(dp1307
g23
I00
sg24
g34
sg26
g35
sg28
g36
sg30
I01
sbaa(lp1308
g1
(g19
g3
Ntp1309
Rp1310
(dp1311
g23
I01
sg24
g25
sg26
g27
sg28
g29
sg30
I01
sbag1
(g19
g3
Ntp1312
Rp1313
(dp1314
g23
I01
sg24
Nsg26
g984
sg28
g985
sg30
I00
sbag1
(g19
g3
Ntp1315
Rp1316
(dp1317
g23
I01
sg24
g25
sg26
g27
sg28
g29
sg30
I01
sbag1
(g19
g3
Ntp1318
Rp1319
(dp1320
g23
I01
sg24
Nsg26
g984
sg28
g985
sg30
I00
sbag1
(g19
g3
Ntp1321
Rp1322
(dp1323
g23
I01
sg24
g25
sg26
g27
sg28
g29
sg30
I01
sbag1
(g19
g3
Ntp1324
Rp1325
(dp1326
g23
I01
sg24
g25
sg26
g27
sg28
g29
sg30
I01
sbag1
(g19
g3
Ntp1327
Rp1328
(dp1329
g23
I01
sg24
g25
sg26
g27
sg28
g29
sg30
I01
sbag1
(g19
g3
Ntp1330
Rp1331
(dp1332
g23
I01
sg24
g25
sg26
g27
sg28
g29
sg30
I01
sbag1
(g19
g3
Ntp1333
Rp1334
(dp1335
g23
I01
sg24
Nsg26
g984
sg28
g985
sg30
I00
sbag1
(g19
g3
Ntp1336
Rp1337
(dp1338
g23
I01
sg24
Nsg26
g984
sg28
g985
sg30
I00
sbag1
(g19
g3
Ntp1339
Rp1340
(dp1341
g23
I01
sg24
g25
sg26
g27
sg28
g29
sg30
I01
sbag1
(g19
g3
Ntp1342
Rp1343
(dp1344
g23
I00
sg24
g34
sg26
g35
sg28
g36
sg30
I01
sbaa(lp1345
g1
(g19
g3
Ntp1346
Rp1347
(dp1348
g23
I00
sg24
g34
sg26
g35
sg28
g36
sg30
I01
sbag1
(g19
g3
Ntp1349
Rp1350
(dp1351
g23
I00
sg24
g34
sg26
g35
sg28
g36
sg30
I01
sbag1
(g19
g3
Ntp1352
Rp1353
(dp1354
g23
I00
sg24
g34
sg26
g35
sg28
g36
sg30
I01
sbag1
(g19
g3
Ntp1355
Rp1356
(dp1357
g23
I00
sg24
g34
sg26
g35
sg28
g36
sg30
I01
sbag1
(g19
g3
Ntp1358
Rp1359
(dp1360
g23
I00
sg24
g34
sg26
g35
sg28
g36
sg30
I01
sbag1
(g19
g3
Ntp1361
Rp1362
(dp1363
g23
I00
sg24
g34
sg26
g35
sg28
g36
sg30
I01
sbag1
(g19
g3
Ntp1364
Rp1365
(dp1366
g23
I00
sg24
g34
sg26
g35
sg28
g36
sg30
I01
sbag1
(g19
g3
Ntp1367
Rp1368
(dp1369
g23
I00
sg24
g34
sg26
g35
sg28
g36
sg30
I01
sbag1
(g19
g3
Ntp1370
Rp1371
(dp1372
g23
I00
sg24
g34
sg26
g35
sg28
g36
sg30
I01
sbag1
(g19
g3
Ntp1373
Rp1374
(dp1375
g23
I00
sg24
g34
sg26
g35
sg28
g36
sg30
I01
sbag1
(g19
g3
Ntp1376
Rp1377
(dp1378
g23
I00
sg24
g34
sg26
g35
sg28
g36
sg30
I01
sbag1
(g19
g3
Ntp1379
Rp1380
(dp1381
g23
I00
sg24
g34
sg26
g35
sg28
g36
sg30
I01
sbaasg477
(I0
I0
tp1382
sbs(I-1
I0
tp1383
g1
(g12
g3
Ntp1384
Rp1385
(dp1386
g16
(lp1387
(lp1388
g1
(g19
g3
Ntp1389
Rp1390
(dp1391
g23
I00
sg24
g34
sg26
g35
sg28
g36
sg30
I01
sbag1
(g19
g3
Ntp1392
Rp1393
(dp1394
g23
I01
sg24
g25
sg26
g27
sg28
g29
sg30
I01
sbag1
(g19
g3
Ntp1395
Rp1396
(dp1397
g23
I00
sg24
g46
sg26
g47
sg28
g48
sg30
I01
sbag1
(g19
g3
Ntp1398
Rp1399
(dp1400
g23
I01
sg24
g25
sg26
g27
sg28
g29
sg30
I01
sbag1
(g19
g3
Ntp1401
Rp1402
(dp1403
g23
I00
sg24
g46
sg26
g47
sg28
g48
sg30
I01
sbag1
(g19
g3
Ntp1404
Rp1405
(dp1406
g23
I01
sg24
g25
sg26
g27
sg28
g29
sg30
I01
sbag1
(g19
g3
Ntp1407
Rp1408
(dp1409
g23
I01
sg24
g25
sg26
g27
sg28
g29
sg30
I01
sbag1
(g19
g3
Ntp1410
Rp1411
(dp1412
g23
I01
sg24
g25
sg26
g27
sg28
g29
sg30
I01
sbag1
(g19
g3
Ntp1413
Rp1414
(dp1415
g23
I01
sg24
g25
sg26
g27
sg28
g29
sg30
I01
sbag1
(g19
g3
Ntp1416
Rp1417
(dp1418
g23
I00
sg24
g34
sg26
g35
sg28
g36
sg30
I01
sbag1
(g19
g3
Ntp1419
Rp1420
(dp1421
g23
I01
sg24
g25
sg26
g27
sg28
g29
sg30
I01
sbag1
(g19
g3
Ntp1422
Rp1423
(dp1424
g23
I00
sg24
g34
sg26
g35
sg28
g36
sg30
I01
sbaa(lp1425
g1
(g19
g3
Ntp1426
Rp1427
(dp1428
g23
I00
sg24
g46
sg26
g47
sg28
g48
sg30
I01
sbag1
(g19
g3
Ntp1429
Rp1430
(dp1431
g23
I01
sg24
g25
sg26
g27
sg28
g29
sg30
I01
sbag1
(g19
g3
Ntp1432
Rp1433
(dp1434
g23
I00
sg24
g46
sg26
g47
sg28
g48
sg30
I01
sbag1
(g19
g3
Ntp1435
Rp1436
(dp1437
g23
I01
sg24
g25
sg26
g27
sg28
g29
sg30
I01
sbag1
(g19
g3
Ntp1438
Rp1439
(dp1440
g23
I01
sg24
g25
sg26
g27
sg28
g29
sg30
I01
sbag1
(g19
g3
Ntp1441
Rp1442
(dp1443
g23
I00
sg24
g46
sg26
g47
sg28
g48
sg30
I01
sbag1
(g19
g3
Ntp1444
Rp1445
(dp1446
g23
I00
sg24
g34
sg26
g35
sg28
g36
sg30
I01
sbag1
(g19
g3
Ntp1447
Rp1448
(dp1449
g23
I00
sg24
g34
sg26
g35
sg28
g36
sg30
I01
sbag1
(g19
g3
Ntp1450
Rp1451
(dp1452
g23
I01
sg24
g25
sg26
g27
sg28
g29
sg30
I01
sbag1
(g19
g3
Ntp1453
Rp1454
(dp1455
g23
I01
sg24
g25
sg26
g27
sg28
g29
sg30
I01
sbag1
(g19
g3
Ntp1456
Rp1457
(dp1458
g23
I00
sg24
g34
sg26
g35
sg28
g36
sg30
I01
sbag1
(g19
g3
Ntp1459
Rp1460
(dp1461
g23
I00
sg24
g34
sg26
g35
sg28
g36
sg30
I01
sbaa(lp1462
g1
(g19
g3
Ntp1463
Rp1464
(dp1465
g23
I00
sg24
g46
sg26
g47
sg28
g48
sg30
I01
sbag1
(g19
g3
Ntp1466
Rp1467
(dp1468
g23
I00
sg24
g46
sg26
g47
sg28
g48
sg30
I01
sbag1
(g19
g3
Ntp1469
Rp1470
(dp1471
g23
I01
sg24
g25
sg26
g27
sg28
g29
sg30
I01
sbag1
(g19
g3
Ntp1472
Rp1473
(dp1474
g23
I00
sg24
g46
sg26
g47
sg28
g48
sg30
I01
sbag1
(g19
g3
Ntp1475
Rp1476
(dp1477
g23
I01
sg24
g25
sg26
g27
sg28
g29
sg30
I01
sbag1
(g19
g3
Ntp1478
Rp1479
(dp1480
g23
I01
sg24
g25
sg26
g27
sg28
g29
sg30
I01
sbag1
(g19
g3
Ntp1481
Rp1482
(dp1483
g23
I01
sg24
g25
sg26
g27
sg28
g29
sg30
I01
sbag1
(g19
g3
Ntp1484
Rp1485
(dp1486
g23
I01
sg24
g25
sg26
g27
sg28
g29
sg30
I01
sbag1
(g19
g3
Ntp1487
Rp1488
(dp1489
g23
I00
sg24
g34
sg26
g35
sg28
g36
sg30
I01
sbag1
(g19
g3
Ntp1490
Rp1491
(dp1492
g23
I01
sg24
g25
sg26
g27
sg28
g29
sg30
I01
sbag1
(g19
g3
Ntp1493
Rp1494
(dp1495
g23
I01
sg24
g25
sg26
g27
sg28
g29
sg30
I01
sbag1
(g19
g3
Ntp1496
Rp1497
(dp1498
g23
I00
sg24
g34
sg26
g35
sg28
g36
sg30
I01
sbaa(lp1499
g1
(g19
g3
Ntp1500
Rp1501
(dp1502
g23
I00
sg24
g34
sg26
g35
sg28
g36
sg30
I01
sbag1
(g19
g3
Ntp1503
Rp1504
(dp1505
g23
I01
sg24
g25
sg26
g27
sg28
g29
sg30
I01
sbag1
(g19
g3
Ntp1506
Rp1507
(dp1508
g23
I01
sg24
g25
sg26
g27
sg28
g29
sg30
I01
sbag1
(g19
g3
Ntp1509
Rp1510
(dp1511
g23
I00
sg24
g34
sg26
g35
sg28
g36
sg30
I01
sbag1
(g19
g3
Ntp1512
Rp1513
(dp1514
g23
I01
sg24
g25
sg26
g27
sg28
g29
sg30
I01
sbag1
(g19
g3
Ntp1515
Rp1516
(dp1517
g23
I01
sg24
g25
sg26
g27
sg28
g29
sg30
I01
sbag1
(g19
g3
Ntp1518
Rp1519
(dp1520
g23
I00
sg24
g46
sg26
g47
sg28
g48
sg30
I01
sbag1
(g19
g3
Ntp1521
Rp1522
(dp1523
g23
I01
sg24
g25
sg26
g27
sg28
g29
sg30
I01
sbag1
(g19
g3
Ntp1524
Rp1525
(dp1526
g23
I01
sg24
g25
sg26
g27
sg28
g29
sg30
I01
sbag1
(g19
g3
Ntp1527
Rp1528
(dp1529
g23
I00
sg24
g46
sg26
g47
sg28
g48
sg30
I01
sbag1
(g19
g3
Ntp1530
Rp1531
(dp1532
g23
I01
sg24
g25
sg26
g27
sg28
g29
sg30
I01
sbag1
(g19
g3
Ntp1533
Rp1534
(dp1535
g23
I00
sg24
g34
sg26
g35
sg28
g36
sg30
I01
sbaa(lp1536
g1
(g19
g3
Ntp1537
Rp1538
(dp1539
g23
I01
sg24
g25
sg26
g27
sg28
g29
sg30
I01
sbag1
(g19
g3
Ntp1540
Rp1541
(dp1542
g23
I00
sg24
g34
sg26
g35
sg28
g36
sg30
I01
sbag1
(g19
g3
Ntp1543
Rp1544
(dp1545
g23
I01
sg24
g25
sg26
g27
sg28
g29
sg30
I01
sbag1
(g19
g3
Ntp1546
Rp1547
(dp1548
g23
I01
sg24
g25
sg26
g27
sg28
g29
sg30
I01
sbag1
(g19
g3
Ntp1549
Rp1550
(dp1551
g23
I00
sg24
g34
sg26
g35
sg28
g36
sg30
I01
sbag1
(g19
g3
Ntp1552
Rp1553
(dp1554
g23
I01
sg24
g25
sg26
g27
sg28
g29
sg30
I01
sbag1
(g19
g3
Ntp1555
Rp1556
(dp1557
g23
I00
sg24
g46
sg26
g47
sg28
g48
sg30
I01
sbag1
(g19
g3
Ntp1558
Rp1559
(dp1560
g23
I00
sg24
g34
sg26
g35
sg28
g36
sg30
I01
sbag1
(g19
g3
Ntp1561
Rp1562
(dp1563
g23
I01
sg24
g25
sg26
g27
sg28
g29
sg30
I01
sbag1
(g19
g3
Ntp1564
Rp1565
(dp1566
g23
I01
sg24
g25
sg26
g27
sg28
g29
sg30
I01
sbag1
(g19
g3
Ntp1567
Rp1568
(dp1569
g23
I01
sg24
g25
sg26
g27
sg28
g29
sg30
I01
sbag1
(g19
g3
Ntp1570
Rp1571
(dp1572
g23
I00
sg24
g34
sg26
g35
sg28
g36
sg30
I01
sbaa(lp1573
g1
(g19
g3
Ntp1574
Rp1575
(dp1576
g23
I01
sg24
g25
sg26
g27
sg28
g29
sg30
I01
sbag1
(g19
g3
Ntp1577
Rp1578
(dp1579
g23
I00
sg24
g34
sg26
g35
sg28
g36
sg30
I01
sbag1
(g19
g3
Ntp1580
Rp1581
(dp1582
g23
I01
sg24
g25
sg26
g27
sg28
g29
sg30
I01
sbag1
(g19
g3
Ntp1583
Rp1584
(dp1585
g23
I01
sg24
g25
sg26
g27
sg28
g29
sg30
I01
sbag1
(g19
g3
Ntp1586
Rp1587
(dp1588
g23
I01
sg24
g25
sg26
g27
sg28
g29
sg30
I01
sbag1
(g19
g3
Ntp1589
Rp1590
(dp1591
g23
I01
sg24
g25
sg26
g27
sg28
g29
sg30
I01
sbag1
(g19
g3
Ntp1592
Rp1593
(dp1594
g23
I01
sg24
g25
sg26
g27
sg28
g29
sg30
I01
sbag1
(g19
g3
Ntp1595
Rp1596
(dp1597
g23
I00
sg24
g34
sg26
g35
sg28
g36
sg30
I01
sbag1
(g19
g3
Ntp1598
Rp1599
(dp1600
g23
I01
sg24
g25
sg26
g27
sg28
g29
sg30
I01
sbag1
(g19
g3
Ntp1601
Rp1602
(dp1603
g23
I01
sg24
g25
sg26
g27
sg28
g29
sg30
I01
sbag1
(g19
g3
Ntp1604
Rp1605
(dp1606
g23
I01
sg24
g25
sg26
g27
sg28
g29
sg30
I01
sbag1
(g19
g3
Ntp1607
Rp1608
(dp1609
g23
I00
sg24
g34
sg26
g35
sg28
g36
sg30
I01
sbaa(lp1610
g1
(g19
g3
Ntp1611
Rp1612
(dp1613
g23
I01
sg24
g25
sg26
g27
sg28
g29
sg30
I01
sbag1
(g19
g3
Ntp1614
Rp1615
(dp1616
g23
I00
sg24
g34
sg26
g35
sg28
g36
sg30
I01
sbag1
(g19
g3
Ntp1617
Rp1618
(dp1619
g23
I01
sg24
g25
sg26
g27
sg28
g29
sg30
I01
sbag1
(g19
g3
Ntp1620
Rp1621
(dp1622
g23
I00
sg24
g34
sg26
g35
sg28
g36
sg30
I01
sbag1
(g19
g3
Ntp1623
Rp1624
(dp1625
g23
I01
sg24
g25
sg26
g27
sg28
g29
sg30
I01
sbag1
(g19
g3
Ntp1626
Rp1627
(dp1628
g23
I01
sg24
g25
sg26
g27
sg28
g29
sg30
I01
sbag1
(g19
g3
Ntp1629
Rp1630
(dp1631
g23
I01
sg24
g25
sg26
g27
sg28
g29
sg30
I01
sbag1
(g19
g3
Ntp1632
Rp1633
(dp1634
g23
I00
sg24
g46
sg26
g47
sg28
g48
sg30
I01
sbag1
(g19
g3
Ntp1635
Rp1636
(dp1637
g23
I00
sg24
g34
sg26
g35
sg28
g36
sg30
I01
sbag1
(g19
g3
Ntp1638
Rp1639
(dp1640
g23
I01
sg24
g25
sg26
g27
sg28
g29
sg30
I01
sbag1
(g19
g3
Ntp1641
Rp1642
(dp1643
g23
I01
sg24
g25
sg26
g27
sg28
g29
sg30
I01
sbag1
(g19
g3
Ntp1644
Rp1645
(dp1646
g23
I00
sg24
g34
sg26
g35
sg28
g36
sg30
I01
sbaa(lp1647
g1
(g19
g3
Ntp1648
Rp1649
(dp1650
g23
I00
sg24
g34
sg26
g35
sg28
g36
sg30
I01
sbag1
(g19
g3
Ntp1651
Rp1652
(dp1653
g23
I01
sg24
g25
sg26
g27
sg28
g29
sg30
I01
sbag1
(g19
g3
Ntp1654
Rp1655
(dp1656
g23
I01
sg24
g25
sg26
g27
sg28
g29
sg30
I01
sbag1
(g19
g3
Ntp1657
Rp1658
(dp1659
g23
I01
sg24
g25
sg26
g27
sg28
g29
sg30
I01
sbag1
(g19
g3
Ntp1660
Rp1661
(dp1662
g23
I01
sg24
g25
sg26
g27
sg28
g29
sg30
I01
sbag1
(g19
g3
Ntp1663
Rp1664
(dp1665
g23
I01
sg24
g25
sg26
g27
sg28
g29
sg30
I01
sbag1
(g19
g3
Ntp1666
Rp1667
(dp1668
g23
I01
sg24
g25
sg26
g27
sg28
g29
sg30
I01
sbag1
(g19
g3
Ntp1669
Rp1670
(dp1671
g23
I01
sg24
g25
sg26
g27
sg28
g29
sg30
I01
sbag1
(g19
g3
Ntp1672
Rp1673
(dp1674
g23
I00
sg24
g46
sg26
g47
sg28
g48
sg30
I01
sbag1
(g19
g3
Ntp1675
Rp1676
(dp1677
g23
I00
sg24
g34
sg26
g35
sg28
g36
sg30
I01
sbag1
(g19
g3
Ntp1678
Rp1679
(dp1680
g23
I01
sg24
g25
sg26
g27
sg28
g29
sg30
I01
sbag1
(g19
g3
Ntp1681
Rp1682
(dp1683
g23
I00
sg24
g34
sg26
g35
sg28
g36
sg30
I01
sbaa(lp1684
g1
(g19
g3
Ntp1685
Rp1686
(dp1687
g23
I01
sg24
g25
sg26
g27
sg28
g29
sg30
I01
sbag1
(g19
g3
Ntp1688
Rp1689
(dp1690
g23
I00
sg24
g34
sg26
g35
sg28
g36
sg30
I01
sbag1
(g19
g3
Ntp1691
Rp1692
(dp1693
g23
I01
sg24
g25
sg26
g27
sg28
g29
sg30
I01
sbag1
(g19
g3
Ntp1694
Rp1695
(dp1696
g23
I01
sg24
g25
sg26
g27
sg28
g29
sg30
I01
sbag1
(g19
g3
Ntp1697
Rp1698
(dp1699
g23
I01
sg24
g25
sg26
g27
sg28
g29
sg30
I01
sbag1
(g19
g3
Ntp1700
Rp1701
(dp1702
g23
I00
sg24
g46
sg26
g47
sg28
g48
sg30
I01
sbag1
(g19
g3
Ntp1703
Rp1704
(dp1705
g23
I01
sg24
g25
sg26
g27
sg28
g29
sg30
I01
sbag1
(g19
g3
Ntp1706
Rp1707
(dp1708
g23
I01
sg24
g25
sg26
g27
sg28
g29
sg30
I01
sbag1
(g19
g3
Ntp1709
Rp1710
(dp1711
g23
I01
sg24
g25
sg26
g27
sg28
g29
sg30
I01
sbag1
(g19
g3
Ntp1712
Rp1713
(dp1714
g23
I00
sg24
g34
sg26
g35
sg28
g36
sg30
I01
sbag1
(g19
g3
Ntp1715
Rp1716
(dp1717
g23
I01
sg24
g25
sg26
g27
sg28
g29
sg30
I01
sbag1
(g19
g3
Ntp1718
Rp1719
(dp1720
g23
I00
sg24
g34
sg26
g35
sg28
g36
sg30
I01
sbaa(lp1721
g1
(g19
g3
Ntp1722
Rp1723
(dp1724
g23
I01
sg24
g25
sg26
g27
sg28
g29
sg30
I01
sbag1
(g19
g3
Ntp1725
Rp1726
(dp1727
g23
I01
sg24
g25
sg26
g27
sg28
g29
sg30
I01
sbag1
(g19
g3
Ntp1728
Rp1729
(dp1730
g23
I00
sg24
g46
sg26
g47
sg28
g48
sg30
I01
sbag1
(g19
g3
Ntp1731
Rp1732
(dp1733
g23
I00
sg24
g46
sg26
g47
sg28
g48
sg30
I01
sbag1
(g19
g3
Ntp1734
Rp1735
(dp1736
g23
I01
sg24
g25
sg26
g27
sg28
g29
sg30
I01
sbag1
(g19
g3
Ntp1737
Rp1738
(dp1739
g23
I00
sg24
g34
sg26
g35
sg28
g36
sg30
I01
sbag1
(g19
g3
Ntp1740
Rp1741
(dp1742
g23
I00
sg24
g34
sg26
g35
sg28
g36
sg30
I01
sbag1
(g19
g3
Ntp1743
Rp1744
(dp1745
g23
I01
sg24
g25
sg26
g27
sg28
g29
sg30
I01
sbag1
(g19
g3
Ntp1746
Rp1747
(dp1748
g23
I01
sg24
g25
sg26
g27
sg28
g29
sg30
I01
sbag1
(g19
g3
Ntp1749
Rp1750
(dp1751
g23
I01
sg24
g25
sg26
g27
sg28
g29
sg30
I01
sbag1
(g19
g3
Ntp1752
Rp1753
(dp1754
g23
I00
sg24
g34
sg26
g35
sg28
g36
sg30
I01
sbag1
(g19
g3
Ntp1755
Rp1756
(dp1757
g23
I00
sg24
g34
sg26
g35
sg28
g36
sg30
I01
sbaa(lp1758
g1
(g19
g3
Ntp1759
Rp1760
(dp1761
g23
I00
sg24
g46
sg26
g47
sg28
g48
sg30
I01
sbag1
(g19
g3
Ntp1762
Rp1763
(dp1764
g23
I00
sg24
g34
sg26
g35
sg28
g36
sg30
I01
sbag1
(g19
g3
Ntp1765
Rp1766
(dp1767
g23
I01
sg24
g25
sg26
g27
sg28
g29
sg30
I01
sbag1
(g19
g3
Ntp1768
Rp1769
(dp1770
g23
I00
sg24
g34
sg26
g35
sg28
g36
sg30
I01
sbag1
(g19
g3
Ntp1771
Rp1772
(dp1773
g23
I01
sg24
g25
sg26
g27
sg28
g29
sg30
I01
sbag1
(g19
g3
Ntp1774
Rp1775
(dp1776
g23
I00
sg24
g46
sg26
g47
sg28
g48
sg30
I01
sbag1
(g19
g3
Ntp1777
Rp1778
(dp1779
g23
I01
sg24
g25
sg26
g27
sg28
g29
sg30
I01
sbag1
(g19
g3
Ntp1780
Rp1781
(dp1782
g23
I00
sg24
g46
sg26
g47
sg28
g48
sg30
I01
sbag1
(g19
g3
Ntp1783
Rp1784
(dp1785
g23
I01
sg24
g25
sg26
g27
sg28
g29
sg30
I01
sbag1
(g19
g3
Ntp1786
Rp1787
(dp1788
g23
I01
sg24
g25
sg26
g27
sg28
g29
sg30
I01
sbag1
(g19
g3
Ntp1789
Rp1790
(dp1791
g23
I01
sg24
g25
sg26
g27
sg28
g29
sg30
I01
sbag1
(g19
g3
Ntp1792
Rp1793
(dp1794
g23
I00
sg24
g34
sg26
g35
sg28
g36
sg30
I01
sbaa(lp1795
g1
(g19
g3
Ntp1796
Rp1797
(dp1798
g23
I00
sg24
g34
sg26
g35
sg28
g36
sg30
I01
sbag1
(g19
g3
Ntp1799
Rp1800
(dp1801
g23
I00
sg24
g34
sg26
g35
sg28
g36
sg30
I01
sbag1
(g19
g3
Ntp1802
Rp1803
(dp1804
g23
I00
sg24
g34
sg26
g35
sg28
g36
sg30
I01
sbag1
(g19
g3
Ntp1805
Rp1806
(dp1807
g23
I00
sg24
g34
sg26
g35
sg28
g36
sg30
I01
sbag1
(g19
g3
Ntp1808
Rp1809
(dp1810
g23
I00
sg24
g34
sg26
g35
sg28
g36
sg30
I01
sbag1
(g19
g3
Ntp1811
Rp1812
(dp1813
g23
I00
sg24
g34
sg26
g35
sg28
g36
sg30
I01
sbag1
(g19
g3
Ntp1814
Rp1815
(dp1816
g23
I00
sg24
g34
sg26
g35
sg28
g36
sg30
I01
sbag1
(g19
g3
Ntp1817
Rp1818
(dp1819
g23
I00
sg24
g34
sg26
g35
sg28
g36
sg30
I01
sbag1
(g19
g3
Ntp1820
Rp1821
(dp1822
g23
I00
sg24
g34
sg26
g35
sg28
g36
sg30
I01
sbag1
(g19
g3
Ntp1823
Rp1824
(dp1825
g23
I00
sg24
g34
sg26
g35
sg28
g36
sg30
I01
sbag1
(g19
g3
Ntp1826
Rp1827
(dp1828
g23
I00
sg24
g34
sg26
g35
sg28
g36
sg30
I01
sbag1
(g19
g3
Ntp1829
Rp1830
(dp1831
g23
I00
sg24
g34
sg26
g35
sg28
g36
sg30
I01
sbaasg477
(I-1
I0
tp1832
sbs(I-1
I-1
tp1833
g1
(g12
g3
Ntp1834
Rp1835
(dp1836
g16
(lp1837
(lp1838
g1
(g19
g3
Ntp1839
Rp1840
(dp1841
g23
I01
sg24
g25
sg26
g27
sg28
g29
sg30
I01
sbag1
(g19
g3
Ntp1842
Rp1843
(dp1844
g23
I00
sg24
g46
sg26
g47
sg28
g48
sg30
I01
sbag1
(g19
g3
Ntp1845
Rp1846
(dp1847
g23
I01
sg24
g25
sg26
g27
sg28
g29
sg30
I01
sbag1
(g19
g3
Ntp1848
Rp1849
(dp1850
g23
I00
sg24
g34
sg26
g35
sg28
g36
sg30
I01
sbag1
(g19
g3
Ntp1851
Rp1852
(dp1853
g23
I00
sg24
g46
sg26
g47
sg28
g48
sg30
I01
sbag1
(g19
g3
Ntp1854
Rp1855
(dp1856
g23
I01
sg24
g25
sg26
g27
sg28
g29
sg30
I01
sbag1
(g19
g3
Ntp1857
Rp1858
(dp1859
g23
I01
sg24
g25
sg26
g27
sg28
g29
sg30
I01
sbag1
(g19
g3
Ntp1860
Rp1861
(dp1862
g23
I01
sg24
g25
sg26
g27
sg28
g29
sg30
I01
sbag1
(g19
g3
Ntp1863
Rp1864
(dp1865
g23
I01
sg24
g25
sg26
g27
sg28
g29
sg30
I01
sbag1
(g19
g3
Ntp1866
Rp1867
(dp1868
g23
I01
sg24
g25
sg26
g27
sg28
g29
sg30
I01
sbag1
(g19
g3
Ntp1869
Rp1870
(dp1871
g23
I00
sg24
g34
sg26
g35
sg28
g36
sg30
I01
sbag1
(g19
g3
Ntp1872
Rp1873
(dp1874
g23
I00
sg24
g34
sg26
g35
sg28
g36
sg30
I01
sbaa(lp1875
g1
(g19
g3
Ntp1876
Rp1877
(dp1878
g23
I00
sg24
g46
sg26
g47
sg28
g48
sg30
I01
sbag1
(g19
g3
Ntp1879
Rp1880
(dp1881
g23
I00
sg24
g34
sg26
g35
sg28
g36
sg30
I01
sbag1
(g19
g3
Ntp1882
Rp1883
(dp1884
g23
I01
sg24
g25
sg26
g27
sg28
g29
sg30
I01
sbag1
(g19
g3
Ntp1885
Rp1886
(dp1887
g23
I01
sg24
g25
sg26
g27
sg28
g29
sg30
I01
sbag1
(g19
g3
Ntp1888
Rp1889
(dp1890
g23
I00
sg24
g34
sg26
g35
sg28
g36
sg30
I01
sbag1
(g19
g3
Ntp1891
Rp1892
(dp1893
g23
I00
sg24
g46
sg26
g47
sg28
g48
sg30
I01
sbag1
(g19
g3
Ntp1894
Rp1895
(dp1896
g23
I01
sg24
g25
sg26
g27
sg28
g29
sg30
I01
sbag1
(g19
g3
Ntp1897
Rp1898
(dp1899
g23
I00
sg24
g46
sg26
g47
sg28
g48
sg30
I01
sbag1
(g19
g3
Ntp1900
Rp1901
(dp1902
g23
I01
sg24
g25
sg26
g27
sg28
g29
sg30
I01
sbag1
(g19
g3
Ntp1903
Rp1904
(dp1905
g23
I00
sg24
g46
sg26
g47
sg28
g48
sg30
I01
sbag1
(g19
g3
Ntp1906
Rp1907
(dp1908
g23
I00
sg24
g46
sg26
g47
sg28
g48
sg30
I01
sbag1
(g19
g3
Ntp1909
Rp1910
(dp1911
g23
I00
sg24
g34
sg26
g35
sg28
g36
sg30
I01
sbaa(lp1912
g1
(g19
g3
Ntp1913
Rp1914
(dp1915
g23
I00
sg24
g34
sg26
g35
sg28
g36
sg30
I01
sbag1
(g19
g3
Ntp1916
Rp1917
(dp1918
g23
I01
sg24
g25
sg26
g27
sg28
g29
sg30
I01
sbag1
(g19
g3
Ntp1919
Rp1920
(dp1921
g23
I01
sg24
g25
sg26
g27
sg28
g29
sg30
I01
sbag1
(g19
g3
Ntp1922
Rp1923
(dp1924
g23
I00
sg24
g46
sg26
g47
sg28
g48
sg30
I01
sbag1
(g19
g3
Ntp1925
Rp1926
(dp1927
g23
I01
sg24
g25
sg26
g27
sg28
g29
sg30
I01
sbag1
(g19
g3
Ntp1928
Rp1929
(dp1930
g23
I00
sg24
g34
sg26
g35
sg28
g36
sg30
I01
sbag1
(g19
g3
Ntp1931
Rp1932
(dp1933
g23
I01
sg24
g25
sg26
g27
sg28
g29
sg30
I01
sbag1
(g19
g3
Ntp1934
Rp1935
(dp1936
g23
I01
sg24
g25
sg26
g27
sg28
g29
sg30
I01
sbag1
(g19
g3
Ntp1937
Rp1938
(dp1939
g23
I00
sg24
g34
sg26
g35
sg28
g36
sg30
I01
sbag1
(g19
g3
Ntp1940
Rp1941
(dp1942
g23
I01
sg24
g25
sg26
g27
sg28
g29
sg30
I01
sbag1
(g19
g3
Ntp1943
Rp1944
(dp1945
g23
I00
sg24
g34
sg26
g35
sg28
g36
sg30
I01
sbag1
(g19
g3
Ntp1946
Rp1947
(dp1948
g23
I00
sg24
g34
sg26
g35
sg28
g36
sg30
I01
sbaa(lp1949
g1
(g19
g3
Ntp1950
Rp1951
(dp1952
g23
I01
sg24
g25
sg26
g27
sg28
g29
sg30
I01
sbag1
(g19
g3
Ntp1953
Rp1954
(dp1955
g23
I00
sg24
g46
sg26
g47
sg28
g48
sg30
I01
sbag1
(g19
g3
Ntp1956
Rp1957
(dp1958
g23
I01
sg24
g25
sg26
g27
sg28
g29
sg30
I01
sbag1
(g19
g3
Ntp1959
Rp1960
(dp1961
g23
I01
sg24
g25
sg26
g27
sg28
g29
sg30
I01
sbag1
(g19
g3
Ntp1962
Rp1963
(dp1964
g23
I01
sg24
g25
sg26
g27
sg28
g29
sg30
I01
sbag1
(g19
g3
Ntp1965
Rp1966
(dp1967
g23
I01
sg24
g25
sg26
g27
sg28
g29
sg30
I01
sbag1
(g19
g3
Ntp1968
Rp1969
(dp1970
g23
I01
sg24
g25
sg26
g27
sg28
g29
sg30
I01
sbag1
(g19
g3
Ntp1971
Rp1972
(dp1973
g23
I01
sg24
g25
sg26
g27
sg28
g29
sg30
I01
sbag1
(g19
g3
Ntp1974
Rp1975
(dp1976
g23
I00
sg24
g46
sg26
g47
sg28
g48
sg30
I01
sbag1
(g19
g3
Ntp1977
Rp1978
(dp1979
g23
I01
sg24
g25
sg26
g27
sg28
g29
sg30
I01
sbag1
(g19
g3
Ntp1980
Rp1981
(dp1982
g23
I00
sg24
g34
sg26
g35
sg28
g36
sg30
I01
sbag1
(g19
g3
Ntp1983
Rp1984
(dp1985
g23
I00
sg24
g34
sg26
g35
sg28
g36
sg30
I01
sbaa(lp1986
g1
(g19
g3
Ntp1987
Rp1988
(dp1989
g23
I01
sg24
g25
sg26
g27
sg28
g29
sg30
I01
sbag1
(g19
g3
Ntp1990
Rp1991
(dp1992
g23
I00
sg24
g34
sg26
g35
sg28
g36
sg30
I01
sbag1
(g19
g3
Ntp1993
Rp1994
(dp1995
g23
I01
sg24
g25
sg26
g27
sg28
g29
sg30
I01
sbag1
(g19
g3
Ntp1996
Rp1997
(dp1998
g23
I01
sg24
g25
sg26
g27
sg28
g29
sg30
I01
sbag1
(g19
g3
Ntp1999
Rp2000
(dp2001
g23
I00
sg24
g34
sg26
g35
sg28
g36
sg30
I01
sbag1
(g19
g3
Ntp2002
Rp2003
(dp2004
g23
I01
sg24
g25
sg26
g27
sg28
g29
sg30
I01
sbag1
(g19
g3
Ntp2005
Rp2006
(dp2007
g23
I01
sg24
g25
sg26
g27
sg28
g29
sg30
I01
sbag1
(g19
g3
Ntp2008
Rp2009
(dp2010
g23
I00
sg24
g34
sg26
g35
sg28
g36
sg30
I01
sbag1
(g19
g3
Ntp2011
Rp2012
(dp2013
g23
I01
sg24
g25
sg26
g27
sg28
g29
sg30
I01
sbag1
(g19
g3
Ntp2014
Rp2015
(dp2016
g23
I01
sg24
g25
sg26
g27
sg28
g29
sg30
I01
sbag1
(g19
g3
Ntp2017
Rp2018
(dp2019
g23
I01
sg24
g25
sg26
g27
sg28
g29
sg30
I01
sbag1
(g19
g3
Ntp2020
Rp2021
(dp2022
g23
I00
sg24
g34
sg26
g35
sg28
g36
sg30
I01
sbaa(lp2023
g1
(g19
g3
Ntp2024
Rp2025
(dp2026
g23
I01
sg24
g25
sg26
g27
sg28
g29
sg30
I01
sbag1
(g19
g3
Ntp2027
Rp2028
(dp2029
g23
I01
sg24
g25
sg26
g27
sg28
g29
sg30
I01
sbag1
(g19
g3
Ntp2030
Rp2031
(dp2032
g23
I00
sg24
g34
sg26
g35
sg28
g36
sg30
I01
sbag1
(g19
g3
Ntp2033
Rp2034
(dp2035
g23
I01
sg24
g25
sg26
g27
sg28
g29
sg30
I01
sbag1
(g19
g3
Ntp2036
Rp2037
(dp2038
g23
I00
sg24
g34
sg26
g35
sg28
g36
sg30
I01
sbag1
(g19
g3
Ntp2039
Rp2040
(dp2041
g23
I01
sg24
g25
sg26
g27
sg28
g29
sg30
I01
sbag1
(g19
g3
Ntp2042
Rp2043
(dp2044
g23
I00
sg24
g34
sg26
g35
sg28
g36
sg30
I01
sbag1
(g19
g3
Ntp2045
Rp2046
(dp2047
g23
I00
sg24
g46
sg26
g47
sg28
g48
sg30
I01
sbag1
(g19
g3
Ntp2048
Rp2049
(dp2050
g23
I00
sg24
g46
sg26
g47
sg28
g48
sg30
I01
sbag1
(g19
g3
Ntp2051
Rp2052
(dp2053
g23
I00
sg24
g46
sg26
g47
sg28
g48
sg30
I01
sbag1
(g19
g3
Ntp2054
Rp2055
(dp2056
g23
I00
sg24
g46
sg26
g47
sg28
g48
sg30
I01
sbag1
(g19
g3
Ntp2057
Rp2058
(dp2059
g23
I00
sg24
g34
sg26
g35
sg28
g36
sg30
I01
sbaa(lp2060
g1
(g19
g3
Ntp2061
Rp2062
(dp2063
g23
I00
sg24
g34
sg26
g35
sg28
g36
sg30
I01
sbag1
(g19
g3
Ntp2064
Rp2065
(dp2066
g23
I00
sg24
g34
sg26
g35
sg28
g36
sg30
I01
sbag1
(g19
g3
Ntp2067
Rp2068
(dp2069
g23
I01
sg24
g25
sg26
g27
sg28
g29
sg30
I01
sbag1
(g19
g3
Ntp2070
Rp2071
(dp2072
g23
I01
sg24
g25
sg26
g27
sg28
g29
sg30
I01
sbag1
(g19
g3
Ntp2073
Rp2074
(dp2075
g23
I01
sg24
g25
sg26
g27
sg28
g29
sg30
I01
sbag1
(g19
g3
Ntp2076
Rp2077
(dp2078
g23
I01
sg24
g25
sg26
g27
sg28
g29
sg30
I01
sbag1
(g19
g3
Ntp2079
Rp2080
(dp2081
g23
I00
sg24
g46
sg26
g47
sg28
g48
sg30
I01
sbag1
(g19
g3
Ntp2082
Rp2083
(dp2084
g23
I00
sg24
g46
sg26
g47
sg28
g48
sg30
I01
sbag1
(g19
g3
Ntp2085
Rp2086
(dp2087
g23
I01
sg24
g25
sg26
g27
sg28
g29
sg30
I01
sbag1
(g19
g3
Ntp2088
Rp2089
(dp2090
g23
I01
sg24
g25
sg26
g27
sg28
g29
sg30
I01
sbag1
(g19
g3
Ntp2091
Rp2092
(dp2093
g23
I01
sg24
g25
sg26
g27
sg28
g29
sg30
I01
sbag1
(g19
g3
Ntp2094
Rp2095
(dp2096
g23
I00
sg24
g34
sg26
g35
sg28
g36
sg30
I01
sbaa(lp2097
g1
(g19
g3
Ntp2098
Rp2099
(dp2100
g23
I00
sg24
g46
sg26
g47
sg28
g48
sg30
I01
sbag1
(g19
g3
Ntp2101
Rp2102
(dp2103
g23
I01
sg24
g25
sg26
g27
sg28
g29
sg30
I01
sbag1
(g19
g3
Ntp2104
Rp2105
(dp2106
g23
I01
sg24
g25
sg26
g27
sg28
g29
sg30
I01
sbag1
(g19
g3
Ntp2107
Rp2108
(dp2109
g23
I01
sg24
g25
sg26
g27
sg28
g29
sg30
I01
sbag1
(g19
g3
Ntp2110
Rp2111
(dp2112
g23
I01
sg24
g25
sg26
g27
sg28
g29
sg30
I01
sbag1
(g19
g3
Ntp2113
Rp2114
(dp2115
g23
I01
sg24
g25
sg26
g27
sg28
g29
sg30
I01
sbag1
(g19
g3
Ntp2116
Rp2117
(dp2118
g23
I00
sg24
g46
sg26
g47
sg28
g48
sg30
I01
sbag1
(g19
g3
Ntp2119
Rp2120
(dp2121
g23
I01
sg24
g25
sg26
g27
sg28
g29
sg30
I01
sbag1
(g19
g3
Ntp2122
Rp2123
(dp2124
g23
I00
sg24
g46
sg26
g47
sg28
g48
sg30
I01
sbag1
(g19
g3
Ntp2125
Rp2126
(dp2127
g23
I00
sg24
g34
sg26
g35
sg28
g36
sg30
I01
sbag1
(g19
g3
Ntp2128
Rp2129
(dp2130
g23
I00
sg24
g46
sg26
g47
sg28
g48
sg30
I01
sbag1
(g19
g3
Ntp2131
Rp2132
(dp2133
g23
I00
sg24
g34
sg26
g35
sg28
g36
sg30
I01
sbaa(lp2134
g1
(g19
g3
Ntp2135
Rp2136
(dp2137
g23
I00
sg24
g34
sg26
g35
sg28
g36
sg30
I01
sbag1
(g19
g3
Ntp2138
Rp2139
(dp2140
g23
I00
sg24
g34
sg26
g35
sg28
g36
sg30
I01
sbag1
(g19
g3
Ntp2141
Rp2142
(dp2143
g23
I00
sg24
g34
sg26
g35
sg28
g36
sg30
I01
sbag1
(g19
g3
Ntp2144
Rp2145
(dp2146
g23
I00
sg24
g46
sg26
g47
sg28
g48
sg30
I01
sbag1
(g19
g3
Ntp2147
Rp2148
(dp2149
g23
I01
sg24
g25
sg26
g27
sg28
g29
sg30
I01
sbag1
(g19
g3
Ntp2150
Rp2151
(dp2152
g23
I00
sg24
g34
sg26
g35
sg28
g36
sg30
I01
sbag1
(g19
g3
Ntp2153
Rp2154
(dp2155
g23
I00
sg24
g46
sg26
g47
sg28
g48
sg30
I01
sbag1
(g19
g3
Ntp2156
Rp2157
(dp2158
g23
I00
sg24
g46
sg26
g47
sg28
g48
sg30
I01
sbag1
(g19
g3
Ntp2159
Rp2160
(dp2161
g23
I01
sg24
g25
sg26
g27
sg28
g29
sg30
I01
sbag1
(g19
g3
Ntp2162
Rp2163
(dp2164
g23
I00
sg24
g34
sg26
g35
sg28
g36
sg30
I01
sbag1
(g19
g3
Ntp2165
Rp2166
(dp2167
g23
I01
sg24
g25
sg26
g27
sg28
g29
sg30
I01
sbag1
(g19
g3
Ntp2168
Rp2169
(dp2170
g23
I00
sg24
g34
sg26
g35
sg28
g36
sg30
I01
sbaa(lp2171
g1
(g19
g3
Ntp2172
Rp2173
(dp2174
g23
I00
sg24
g46
sg26
g47
sg28
g48
sg30
I01
sbag1
(g19
g3
Ntp2175
Rp2176
(dp2177
g23
I00
sg24
g46
sg26
g47
sg28
g48
sg30
I01
sbag1
(g19
g3
Ntp2178
Rp2179
(dp2180
g23
I01
sg24
g25
sg26
g27
sg28
g29
sg30
I01
sbag1
(g19
g3
Ntp2181
Rp2182
(dp2183
g23
I01
sg24
g25
sg26
g27
sg28
g29
sg30
I01
sbag1
(g19
g3
Ntp2184
Rp2185
(dp2186
g23
I01
sg24
g25
sg26
g27
sg28
g29
sg30
I01
sbag1
(g19
g3
Ntp2187
Rp2188
(dp2189
g23
I00
sg24
g46
sg26
g47
sg28
g48
sg30
I01
sbag1
(g19
g3
Ntp2190
Rp2191
(dp2192
g23
I00
sg24
g34
sg26
g35
sg28
g36
sg30
I01
sbag1
(g19
g3
Ntp2193
Rp2194
(dp2195
g23
I00
sg24
g34
sg26
g35
sg28
g36
sg30
I01
sbag1
(g19
g3
Ntp2196
Rp2197
(dp2198
g23
I01
sg24
g25
sg26
g27
sg28
g29
sg30
I01
sbag1
(g19
g3
Ntp2199
Rp2200
(dp2201
g23
I00
sg24
g46
sg26
g47
sg28
g48
sg30
I01
sbag1
(g19
g3
Ntp2202
Rp2203
(dp2204
g23
I00
sg24
g34
sg26
g35
sg28
g36
sg30
I01
sbag1
(g19
g3
Ntp2205
Rp2206
(dp2207
g23
I00
sg24
g34
sg26
g35
sg28
g36
sg30
I01
sbaa(lp2208
g1
(g19
g3
Ntp2209
Rp2210
(dp2211
g23
I01
sg24
g25
sg26
g27
sg28
g29
sg30
I01
sbag1
(g19
g3
Ntp2212
Rp2213
(dp2214
g23
I00
sg24
g46
sg26
g47
sg28
g48
sg30
I01
sbag1
(g19
g3
Ntp2215
Rp2216
(dp2217
g23
I01
sg24
g25
sg26
g27
sg28
g29
sg30
I01
sbag1
(g19
g3
Ntp2218
Rp2219
(dp2220
g23
I01
sg24
g25
sg26
g27
sg28
g29
sg30
I01
sbag1
(g19
g3
Ntp2221
Rp2222
(dp2223
g23
I00
sg24
g34
sg26
g35
sg28
g36
sg30
I01
sbag1
(g19
g3
Ntp2224
Rp2225
(dp2226
g23
I01
sg24
g25
sg26
g27
sg28
g29
sg30
I01
sbag1
(g19
g3
Ntp2227
Rp2228
(dp2229
g23
I01
sg24
g25
sg26
g27
sg28
g29
sg30
I01
sbag1
(g19
g3
Ntp2230
Rp2231
(dp2232
g23
I01
sg24
g25
sg26
g27
sg28
g29
sg30
I01
sbag1
(g19
g3
Ntp2233
Rp2234
(dp2235
g23
I01
sg24
g25
sg26
g27
sg28
g29
sg30
I01
sbag1
(g19
g3
Ntp2236
Rp2237
(dp2238
g23
I01
sg24
g25
sg26
g27
sg28
g29
sg30
I01
sbag1
(g19
g3
Ntp2239
Rp2240
(dp2241
g23
I01
sg24
g25
sg26
g27
sg28
g29
sg30
I01
sbag1
(g19
g3
Ntp2242
Rp2243
(dp2244
g23
I00
sg24
g34
sg26
g35
sg28
g36
sg30
I01
sbaa(lp2245
g1
(g19
g3
Ntp2246
Rp2247
(dp2248
g23
I00
sg24
g34
sg26
g35
sg28
g36
sg30
I01
sbag1
(g19
g3
Ntp2249
Rp2250
(dp2251
g23
I00
sg24
g34
sg26
g35
sg28
g36
sg30
I01
sbag1
(g19
g3
Ntp2252
Rp2253
(dp2254
g23
I00
sg24
g34
sg26
g35
sg28
g36
sg30
I01
sbag1
(g19
g3
Ntp2255
Rp2256
(dp2257
g23
I00
sg24
g34
sg26
g35
sg28
g36
sg30
I01
sbag1
(g19
g3
Ntp2258
Rp2259
(dp2260
g23
I00
sg24
g34
sg26
g35
sg28
g36
sg30
I01
sbag1
(g19
g3
Ntp2261
Rp2262
(dp2263
g23
I00
sg24
g34
sg26
g35
sg28
g36
sg30
I01
sbag1
(g19
g3
Ntp2264
Rp2265
(dp2266
g23
I00
sg24
g34
sg26
g35
sg28
g36
sg30
I01
sbag1
(g19
g3
Ntp2267
Rp2268
(dp2269
g23
I00
sg24
g34
sg26
g35
sg28
g36
sg30
I01
sbag1
(g19
g3
Ntp2270
Rp2271
(dp2272
g23
I00
sg24
g34
sg26
g35
sg28
g36
sg30
I01
sbag1
(g19
g3
Ntp2273
Rp2274
(dp2275
g23
I00
sg24
g34
sg26
g35
sg28
g36
sg30
I01
sbag1
(g19
g3
Ntp2276
Rp2277
(dp2278
g23
I00
sg24
g34
sg26
g35
sg28
g36
sg30
I01
sbag1
(g19
g3
Ntp2279
Rp2280
(dp2281
g23
I00
sg24
g34
sg26
g35
sg28
g36
sg30
I01
sbaasg477
(I-1
I-1
tp2282
sbs(I0
I-1
tp2283
g1
(g12
g3
Ntp2284
Rp2285
(dp2286
g16
(lp2287
(lp2288
g1
(g19
g3
Ntp2289
Rp2290
(dp2291
g23
I01
sg24
g25
sg26
g27
sg28
g29
sg30
I01
sbag1
(g19
g3
Ntp2292
Rp2293
(dp2294
g23
I00
sg24
g46
sg26
g47
sg28
g48
sg30
I01
sbag1
(g19
g3
Ntp2295
Rp2296
(dp2297
g23
I00
sg24
g46
sg26
g47
sg28
g48
sg30
I01
sbag1
(g19
g3
Ntp2298
Rp2299
(dp2300
g23
I00
sg24
g46
sg26
g47
sg28
g48
sg30
I01
sbag1
(g19
g3
Ntp2301
Rp2302
(dp2303
g23
I01
sg24
g25
sg26
g27
sg28
g29
sg30
I01
sbag1
(g19
g3
Ntp2304
Rp2305
(dp2306
g23
I01
sg24
g25
sg26
g27
sg28
g29
sg30
I01
sbag1
(g19
g3
Ntp2307
Rp2308
(dp2309
g23
I00
sg24
g46
sg26
g47
sg28
g48
sg30
I01
sbag1
(g19
g3
Ntp2310
Rp2311
(dp2312
g23
I01
sg24
g25
sg26
g27
sg28
g29
sg30
I01
sbag1
(g19
g3
Ntp2313
Rp2314
(dp2315
g23
I01
sg24
g25
sg26
g27
sg28
g29
sg30
I01
sbag1
(g19
g3
Ntp2316
Rp2317
(dp2318
g23
I00
sg24
g34
sg26
g35
sg28
g36
sg30
I01
sbag1
(g19
g3
Ntp2319
Rp2320
(dp2321
g23
I00
sg24
g46
sg26
g47
sg28
g48
sg30
I01
sbag1
(g19
g3
Ntp2322
Rp2323
(dp2324
g23
I00
sg24
g34
sg26
g35
sg28
g36
sg30
I01
sbaa(lp2325
g1
(g19
g3
Ntp2326
Rp2327
(dp2328
g23
I01
sg24
g25
sg26
g27
sg28
g29
sg30
I01
sbag1
(g19
g3
Ntp2329
Rp2330
(dp2331
g23
I01
sg24
g25
sg26
g27
sg28
g29
sg30
I01
sbag1
(g19
g3
Ntp2332
Rp2333
(dp2334
g23
I01
sg24
g25
sg26
g27
sg28
g29
sg30
I01
sbag1
(g19
g3
Ntp2335
Rp2336
(dp2337
g23
I00
sg24
g34
sg26
g35
sg28
g36
sg30
I01
sbag1
(g19
g3
Ntp2338
Rp2339
(dp2340
g23
I01
sg24
g25
sg26
g27
sg28
g29
sg30
I01
sbag1
(g19
g3
Ntp2341
Rp2342
(dp2343
g23
I01
sg24
g25
sg26
g27
sg28
g29
sg30
I01
sbag1
(g19
g3
Ntp2344
Rp2345
(dp2346
g23
I01
sg24
g25
sg26
g27
sg28
g29
sg30
I01
sbag1
(g19
g3
Ntp2347
Rp2348
(dp2349
g23
I01
sg24
g25
sg26
g27
sg28
g29
sg30
I01
sbag1
(g19
g3
Ntp2350
Rp2351
(dp2352
g23
I01
sg24
g25
sg26
g27
sg28
g29
sg30
I01
sbag1
(g19
g3
Ntp2353
Rp2354
(dp2355
g23
I01
sg24
g25
sg26
g27
sg28
g29
sg30
I01
sbag1
(g19
g3
Ntp2356
Rp2357
(dp2358
g23
I01
sg24
g25
sg26
g27
sg28
g29
sg30
I01
sbag1
(g19
g3
Ntp2359
Rp2360
(dp2361
g23
I00
sg24
g34
sg26
g35
sg28
g36
sg30
I01
sbaa(lp2362
g1
(g19
g3
Ntp2363
Rp2364
(dp2365
g23
I00
sg24
g46
sg26
g47
sg28
g48
sg30
I01
sbag1
(g19
g3
Ntp2366
Rp2367
(dp2368
g23
I01
sg24
g25
sg26
g27
sg28
g29
sg30
I01
sbag1
(g19
g3
Ntp2369
Rp2370
(dp2371
g23
I01
sg24
g25
sg26
g27
sg28
g29
sg30
I01
sbag1
(g19
g3
Ntp2372
Rp2373
(dp2374
g23
I00
sg24
g46
sg26
g47
sg28
g48
sg30
I01
sbag1
(g19
g3
Ntp2375
Rp2376
(dp2377
g23
I00
sg24
g46
sg26
g47
sg28
g48
sg30
I01
sbag1
(g19
g3
Ntp2378
Rp2379
(dp2380
g23
I01
sg24
g25
sg26
g27
sg28
g29
sg30
I01
sbag1
(g19
g3
Ntp2381
Rp2382
(dp2383
g23
I00
sg24
g34
sg26
g35
sg28
g36
sg30
I01
sbag1
(g19
g3
Ntp2384
Rp2385
(dp2386
g23
I00
sg24
g46
sg26
g47
sg28
g48
sg30
I01
sbag1
(g19
g3
Ntp2387
Rp2388
(dp2389
g23
I01
sg24
g25
sg26
g27
sg28
g29
sg30
I01
sbag1
(g19
g3
Ntp2390
Rp2391
(dp2392
g23
I00
sg24
g46
sg26
g47
sg28
g48
sg30
I01
sbag1
(g19
g3
Ntp2393
Rp2394
(dp2395
g23
I01
sg24
g25
sg26
g27
sg28
g29
sg30
I01
sbag1
(g19
g3
Ntp2396
Rp2397
(dp2398
g23
I00
sg24
g34
sg26
g35
sg28
g36
sg30
I01
sbaa(lp2399
g1
(g19
g3
Ntp2400
Rp2401
(dp2402
g23
I00
sg24
g46
sg26
g47
sg28
g48
sg30
I01
sbag1
(g19
g3
Ntp2403
Rp2404
(dp2405
g23
I00
sg24
g34
sg26
g35
sg28
g36
sg30
I01
sbag1
(g19
g3
Ntp2406
Rp2407
(dp2408
g23
I01
sg24
g25
sg26
g27
sg28
g29
sg30
I01
sbag1
(g19
g3
Ntp2409
Rp2410
(dp2411
g23
I00
sg24
g34
sg26
g35
sg28
g36
sg30
I01
sbag1
(g19
g3
Ntp2412
Rp2413
(dp2414
g23
I01
sg24
g25
sg26
g27
sg28
g29
sg30
I01
sbag1
(g19
g3
Ntp2415
Rp2416
(dp2417
g23
I01
sg24
g25
sg26
g27
sg28
g29
sg30
I01
sbag1
(g19
g3
Ntp2418
Rp2419
(dp2420
g23
I01
sg24
g25
sg26
g27
sg28
g29
sg30
I01
sbag1
(g19
g3
Ntp2421
Rp2422
(dp2423
g23
I01
sg24
g25
sg26
g27
sg28
g29
sg30
I01
sbag1
(g19
g3
Ntp2424
Rp2425
(dp2426
g23
I01
sg24
g25
sg26
g27
sg28
g29
sg30
I01
sbag1
(g19
g3
Ntp2427
Rp2428
(dp2429
g23
I00
sg24
g34
sg26
g35
sg28
g36
sg30
I01
sbag1
(g19
g3
Ntp2430
Rp2431
(dp2432
g23
I01
sg24
g25
sg26
g27
sg28
g29
sg30
I01
sbag1
(g19
g3
Ntp2433
Rp2434
(dp2435
g23
I00
sg24
g34
sg26
g35
sg28
g36
sg30
I01
sbaa(lp2436
g1
(g19
g3
Ntp2437
Rp2438
(dp2439
g23
I01
sg24
g25
sg26
g27
sg28
g29
sg30
I01
sbag1
(g19
g3
Ntp2440
Rp2441
(dp2442
g23
I01
sg24
g25
sg26
g27
sg28
g29
sg30
I01
sbag1
(g19
g3
Ntp2443
Rp2444
(dp2445
g23
I00
sg24
g46
sg26
g47
sg28
g48
sg30
I01
sbag1
(g19
g3
Ntp2446
Rp2447
(dp2448
g23
I00
sg24
g46
sg26
g47
sg28
g48
sg30
I01
sbag1
(g19
g3
Ntp2449
Rp2450
(dp2451
g23
I00
sg24
g34
sg26
g35
sg28
g36
sg30
I01
sbag1
(g19
g3
Ntp2452
Rp2453
(dp2454
g23
I01
sg24
g25
sg26
g27
sg28
g29
sg30
I01
sbag1
(g19
g3
Ntp2455
Rp2456
(dp2457
g23
I01
sg24
g25
sg26
g27
sg28
g29
sg30
I01
sbag1
(g19
g3
Ntp2458
Rp2459
(dp2460
g23
I00
sg24
g46
sg26
g47
sg28
g48
sg30
I01
sbag1
(g19
g3
Ntp2461
Rp2462
(dp2463
g23
I01
sg24
g25
sg26
g27
sg28
g29
sg30
I01
sbag1
(g19
g3
Ntp2464
Rp2465
(dp2466
g23
I01
sg24
g25
sg26
g27
sg28
g29
sg30
I01
sbag1
(g19
g3
Ntp2467
Rp2468
(dp2469
g23
I00
sg24
g46
sg26
g47
sg28
g48
sg30
I01
sbag1
(g19
g3
Ntp2470
Rp2471
(dp2472
g23
I00
sg24
g34
sg26
g35
sg28
g36
sg30
I01
sbaa(lp2473
g1
(g19
g3
Ntp2474
Rp2475
(dp2476
g23
I01
sg24
g25
sg26
g27
sg28
g29
sg30
I01
sbag1
(g19
g3
Ntp2477
Rp2478
(dp2479
g23
I00
sg24
g34
sg26
g35
sg28
g36
sg30
I01
sbag1
(g19
g3
Ntp2480
Rp2481
(dp2482
g23
I01
sg24
g25
sg26
g27
sg28
g29
sg30
I01
sbag1
(g19
g3
Ntp2483
Rp2484
(dp2485
g23
I01
sg24
g25
sg26
g27
sg28
g29
sg30
I01
sbag1
(g19
g3
Ntp2486
Rp2487
(dp2488
g23
I01
sg24
g25
sg26
g27
sg28
g29
sg30
I01
sbag1
(g19
g3
Ntp2489
Rp2490
(dp2491
g23
I00
sg24
g34
sg26
g35
sg28
g36
sg30
I01
sbag1
(g19
g3
Ntp2492
Rp2493
(dp2494
g23
I00
sg24
g46
sg26
g47
sg28
g48
sg30
I01
sbag1
(g19
g3
Ntp2495
Rp2496
(dp2497
g23
I01
sg24
g25
sg26
g27
sg28
g29
sg30
I01
sbag1
(g19
g3
Ntp2498
Rp2499
(dp2500
g23
I01
sg24
g25
sg26
g27
sg28
g29
sg30
I01
sbag1
(g19
g3
Ntp2501
Rp2502
(dp2503
g23
I01
sg24
g25
sg26
g27
sg28
g29
sg30
I01
sbag1
(g19
g3
Ntp2504
Rp2505
(dp2506
g23
I01
sg24
g25
sg26
g27
sg28
g29
sg30
I01
sbag1
(g19
g3
Ntp2507
Rp2508
(dp2509
g23
I00
sg24
g34
sg26
g35
sg28
g36
sg30
I01
sbaa(lp2510
g1
(g19
g3
Ntp2511
Rp2512
(dp2513
g23
I01
sg24
g25
sg26
g27
sg28
g29
sg30
I01
sbag1
(g19
g3
Ntp2514
Rp2515
(dp2516
g23
I00
sg24
g46
sg26
g47
sg28
g48
sg30
I01
sbag1
(g19
g3
Ntp2517
Rp2518
(dp2519
g23
I01
sg24
g25
sg26
g27
sg28
g29
sg30
I01
sbag1
(g19
g3
Ntp2520
Rp2521
(dp2522
g23
I00
sg24
g34
sg26
g35
sg28
g36
sg30
I01
sbag1
(g19
g3
Ntp2523
Rp2524
(dp2525
g23
I01
sg24
g25
sg26
g27
sg28
g29
sg30
I01
sbag1
(g19
g3
Ntp2526
Rp2527
(dp2528
g23
I01
sg24
g25
sg26
g27
sg28
g29
sg30
I01
sbag1
(g19
g3
Ntp2529
Rp2530
(dp2531
g23
I01
sg24
g25
sg26
g27
sg28
g29
sg30
I01
sbag1
(g19
g3
Ntp2532
Rp2533
(dp2534
g23
I00
sg24
g34
sg26
g35
sg28
g36
sg30
I01
sbag1
(g19
g3
Ntp2535
Rp2536
(dp2537
g23
I00
sg24
g46
sg26
g47
sg28
g48
sg30
I01
sbag1
(g19
g3
Ntp2538
Rp2539
(dp2540
g23
I00
sg24
g46
sg26
g47
sg28
g48
sg30
I01
sbag1
(g19
g3
Ntp2541
Rp2542
(dp2543
g23
I00
sg24
g46
sg26
g47
sg28
g48
sg30
I01
sbag1
(g19
g3
Ntp2544
Rp2545
(dp2546
g23
I00
sg24
g34
sg26
g35
sg28
g36
sg30
I01
sbaa(lp2547
g1
(g19
g3
Ntp2548
Rp2549
(dp2550
g23
I00
sg24
g46
sg26
g47
sg28
g48
sg30
I01
sbag1
(g19
g3
Ntp2551
Rp2552
(dp2553
g23
I00
sg24
g34
sg26
g35
sg28
g36
sg30
I01
sbag1
(g19
g3
Ntp2554
Rp2555
(dp2556
g23
I00
sg24
g34
sg26
g35
sg28
g36
sg30
I01
sbag1
(g19
g3
Ntp2557
Rp2558
(dp2559
g23
I00
sg24
g34
sg26
g35
sg28
g36
sg30
I01
sbag1
(g19
g3
Ntp2560
Rp2561
(dp2562
g23
I01
sg24
g25
sg26
g27
sg28
g29
sg30
I01
sbag1
(g19
g3
Ntp2563
Rp2564
(dp2565
g23
I01
sg24
g25
sg26
g27
sg28
g29
sg30
I01
sbag1
(g19
g3
Ntp2566
Rp2567
(dp2568
g23
I01
sg24
g25
sg26
g27
sg28
g29
sg30
I01
sbag1
(g19
g3
Ntp2569
Rp2570
(dp2571
g23
I00
sg24
g46
sg26
g47
sg28
g48
sg30
I01
sbag1
(g19
g3
Ntp2572
Rp2573
(dp2574
g23
I00
sg24
g34
sg26
g35
sg28
g36
sg30
I01
sbag1
(g19
g3
Ntp2575
Rp2576
(dp2577
g23
I01
sg24
g25
sg26
g27
sg28
g29
sg30
I01
sbag1
(g19
g3
Ntp2578
Rp2579
(dp2580
g23
I01
sg24
g25
sg26
g27
sg28
g29
sg30
I01
sbag1
(g19
g3
Ntp2581
Rp2582
(dp2583
g23
I00
sg24
g34
sg26
g35
sg28
g36
sg30
I01
sbaa(lp2584
g1
(g19
g3
Ntp2585
Rp2586
(dp2587
g23
I01
sg24
g25
sg26
g27
sg28
g29
sg30
I01
sbag1
(g19
g3
Ntp2588
Rp2589
(dp2590
g23
I00
sg24
g34
sg26
g35
sg28
g36
sg30
I01
sbag1
(g19
g3
Ntp2591
Rp2592
(dp2593
g23
I00
sg24
g34
sg26
g35
sg28
g36
sg30
I01
sbag1
(g19
g3
Ntp2594
Rp2595
(dp2596
g23
I01
sg24
g25
sg26
g27
sg28
g29
sg30
I01
sbag1
(g19
g3
Ntp2597
Rp2598
(dp2599
g23
I00
sg24
g46
sg26
g47
sg28
g48
sg30
I01
sbag1
(g19
g3
Ntp2600
Rp2601
(dp2602
g23
I00
sg24
g34
sg26
g35
sg28
g36
sg30
I01
sbag1
(g19
g3
Ntp2603
Rp2604
(dp2605
g23
I01
sg24
g25
sg26
g27
sg28
g29
sg30
I01
sbag1
(g19
g3
Ntp2606
Rp2607
(dp2608
g23
I00
sg24
g46
sg26
g47
sg28
g48
sg30
I01
sbag1
(g19
g3
Ntp2609
Rp2610
(dp2611
g23
I01
sg24
g25
sg26
g27
sg28
g29
sg30
I01
sbag1
(g19
g3
Ntp2612
Rp2613
(dp2614
g23
I00
sg24
g46
sg26
g47
sg28
g48
sg30
I01
sbag1
(g19
g3
Ntp2615
Rp2616
(dp2617
g23
I01
sg24
g25
sg26
g27
sg28
g29
sg30
I01
sbag1
(g19
g3
Ntp2618
Rp2619
(dp2620
g23
I00
sg24
g34
sg26
g35
sg28
g36
sg30
I01
sbaa(lp2621
g1
(g19
g3
Ntp2622
Rp2623
(dp2624
g23
I01
sg24
g25
sg26
g27
sg28
g29
sg30
I01
sbag1
(g19
g3
Ntp2625
Rp2626
(dp2627
g23
I01
sg24
g25
sg26
g27
sg28
g29
sg30
I01
sbag1
(g19
g3
Ntp2628
Rp2629
(dp2630
g23
I00
sg24
g34
sg26
g35
sg28
g36
sg30
I01
sbag1
(g19
g3
Ntp2631
Rp2632
(dp2633
g23
I01
sg24
g25
sg26
g27
sg28
g29
sg30
I01
sbag1
(g19
g3
Ntp2634
Rp2635
(dp2636
g23
I00
sg24
g46
sg26
g47
sg28
g48
sg30
I01
sbag1
(g19
g3
Ntp2637
Rp2638
(dp2639
g23
I01
sg24
g25
sg26
g27
sg28
g29
sg30
I01
sbag1
(g19
g3
Ntp2640
Rp2641
(dp2642
g23
I01
sg24
g25
sg26
g27
sg28
g29
sg30
I01
sbag1
(g19
g3
Ntp2643
Rp2644
(dp2645
g23
I01
sg24
g25
sg26
g27
sg28
g29
sg30
I01
sbag1
(g19
g3
Ntp2646
Rp2647
(dp2648
g23
I01
sg24
g25
sg26
g27
sg28
g29
sg30
I01
sbag1
(g19
g3
Ntp2649
Rp2650
(dp2651
g23
I01
sg24
g25
sg26
g27
sg28
g29
sg30
I01
sbag1
(g19
g3
Ntp2652
Rp2653
(dp2654
g23
I01
sg24
g25
sg26
g27
sg28
g29
sg30
I01
sbag1
(g19
g3
Ntp2655
Rp2656
(dp2657
g23
I00
sg24
g34
sg26
g35
sg28
g36
sg30
I01
sbaa(lp2658
g1
(g19
g3
Ntp2659
Rp2660
(dp2661
g23
I01
sg24
g25
sg26
g27
sg28
g29
sg30
I01
sbag1
(g19
g3
Ntp2662
Rp2663
(dp2664
g23
I00
sg24
g34
sg26
g35
sg28
g36
sg30
I01
sbag1
(g19
g3
Ntp2665
Rp2666
(dp2667
g23
I01
sg24
g25
sg26
g27
sg28
g29
sg30
I01
sbag1
(g19
g3
Ntp2668
Rp2669
(dp2670
g23
I01
sg24
g25
sg26
g27
sg28
g29
sg30
I01
sbag1
(g19
g3
Ntp2671
Rp2672
(dp2673
g23
I01
sg24
g25
sg26
g27
sg28
g29
sg30
I01
sbag1
(g19
g3
Ntp2674
Rp2675
(dp2676
g23
I01
sg24
g25
sg26
g27
sg28
g29
sg30
I01
sbag1
(g19
g3
Ntp2677
Rp2678
(dp2679
g23
I00
sg24
g46
sg26
g47
sg28
g48
sg30
I01
sbag1
(g19
g3
Ntp2680
Rp2681
(dp2682
g23
I00
sg24
g34
sg26
g35
sg28
g36
sg30
I01
sbag1
(g19
g3
Ntp2683
Rp2684
(dp2685
g23
I00
sg24
g34
sg26
g35
sg28
g36
sg30
I01
sbag1
(g19
g3
Ntp2686
Rp2687
(dp2688
g23
I00
sg24
g34
sg26
g35
sg28
g36
sg30
I01
sbag1
(g19
g3
Ntp2689
Rp2690
(dp2691
g23
I00
sg24
g46
sg26
g47
sg28
g48
sg30
I01
sbag1
(g19
g3
Ntp2692
Rp2693
(dp2694
g23
I00
sg24
g34
sg26
g35
sg28
g36
sg30
I01
sbaa(lp2695
g1
(g19
g3
Ntp2696
Rp2697
(dp2698
g23
I00
sg24
g34
sg26
g35
sg28
g36
sg30
I01
sbag1
(g19
g3
Ntp2699
Rp2700
(dp2701
g23
I00
sg24
g34
sg26
g35
sg28
g36
sg30
I01
sbag1
(g19
g3
Ntp2702
Rp2703
(dp2704
g23
I00
sg24
g34
sg26
g35
sg28
g36
sg30
I01
sbag1
(g19
g3
Ntp2705
Rp2706
(dp2707
g23
I00
sg24
g34
sg26
g35
sg28
g36
sg30
I01
sbag1
(g19
g3
Ntp2708
Rp2709
(dp2710
g23
I00
sg24
g34
sg26
g35
sg28
g36
sg30
I01
sbag1
(g19
g3
Ntp2711
Rp2712
(dp2713
g23
I00
sg24
g34
sg26
g35
sg28
g36
sg30
I01
sbag1
(g19
g3
Ntp2714
Rp2715
(dp2716
g23
I00
sg24
g34
sg26
g35
sg28
g36
sg30
I01
sbag1
(g19
g3
Ntp2717
Rp2718
(dp2719
g23
I00
sg24
g34
sg26
g35
sg28
g36
sg30
I01
sbag1
(g19
g3
Ntp2720
Rp2721
(dp2722
g23
I00
sg24
g34
sg26
g35
sg28
g36
sg30
I01
sbag1
(g19
g3
Ntp2723
Rp2724
(dp2725
g23
I00
sg24
g34
sg26
g35
sg28
g36
sg30
I01
sbag1
(g19
g3
Ntp2726
Rp2727
(dp2728
g23
I00
sg24
g34
sg26
g35
sg28
g36
sg30
I01
sbag1
(g19
g3
Ntp2729
Rp2730
(dp2731
g23
I00
sg24
g34
sg26
g35
sg28
g36
sg30
I01
sbaasg477
(I0
I-1
tp2732
sbs(I1
I0
tp2733
g1
(g12
g3
Ntp2734
Rp2735
(dp2736
g16
(lp2737
(lp2738
g1
(g19
g3
Ntp2739
Rp2740
(dp2741
g23
I00
sg24
g34
sg26
g35
sg28
g36
sg30
I01
sbag1
(g19
g3
Ntp2742
Rp2743
(dp2744
g23
I00
sg24
g46
sg26
g47
sg28
g48
sg30
I01
sbag1
(g19
g3
Ntp2745
Rp2746
(dp2747
g23
I01
sg24
g25
sg26
g27
sg28
g29
sg30
I01
sbag1
(g19
g3
Ntp2748
Rp2749
(dp2750
g23
I01
sg24
g25
sg26
g27
sg28
g29
sg30
I01
sbag1
(g19
g3
Ntp2751
Rp2752
(dp2753
g23
I01
sg24
g25
sg26
g27
sg28
g29
sg30
I01
sbag1
(g19
g3
Ntp2754
Rp2755
(dp2756
g23
I01
sg24
g25
sg26
g27
sg28
g29
sg30
I01
sbag1
(g19
g3
Ntp2757
Rp2758
(dp2759
g23
I01
sg24
g25
sg26
g27
sg28
g29
sg30
I01
sbag1
(g19
g3
Ntp2760
Rp2761
(dp2762
g23
I00
sg24
g46
sg26
g47
sg28
g48
sg30
I01
sbag1
(g19
g3
Ntp2763
Rp2764
(dp2765
g23
I00
sg24
g46
sg26
g47
sg28
g48
sg30
I01
sbag1
(g19
g3
Ntp2766
Rp2767
(dp2768
g23
I01
sg24
g25
sg26
g27
sg28
g29
sg30
I01
sbag1
(g19
g3
Ntp2769
Rp2770
(dp2771
g23
I01
sg24
g25
sg26
g27
sg28
g29
sg30
I01
sbag1
(g19
g3
Ntp2772
Rp2773
(dp2774
g23
I00
sg24
g34
sg26
g35
sg28
g36
sg30
I01
sbaa(lp2775
g1
(g19
g3
Ntp2776
Rp2777
(dp2778
g23
I00
sg24
g34
sg26
g35
sg28
g36
sg30
I01
sbag1
(g19
g3
Ntp2779
Rp2780
(dp2781
g23
I00
sg24
g46
sg26
g47
sg28
g48
sg30
I01
sbag1
(g19
g3
Ntp2782
Rp2783
(dp2784
g23
I01
sg24
g25
sg26
g27
sg28
g29
sg30
I01
sbag1
(g19
g3
Ntp2785
Rp2786
(dp2787
g23
I01
sg24
g25
sg26
g27
sg28
g29
sg30
I01
sbag1
(g19
g3
Ntp2788
Rp2789
(dp2790
g23
I00
sg24
g46
sg26
g47
sg28
g48
sg30
I01
sbag1
(g19
g3
Ntp2791
Rp2792
(dp2793
g23
I00
sg24
g34
sg26
g35
sg28
g36
sg30
I01
sbag1
(g19
g3
Ntp2794
Rp2795
(dp2796
g23
I00
sg24
g46
sg26
g47
sg28
g48
sg30
I01
sbag1
(g19
g3
Ntp2797
Rp2798
(dp2799
g23
I01
sg24
g25
sg26
g27
sg28
g29
sg30
I01
sbag1
(g19
g3
Ntp2800
Rp2801
(dp2802
g23
I00
sg24
g34
sg26
g35
sg28
g36
sg30
I01
sbag1
(g19
g3
Ntp2803
Rp2804
(dp2805
g23
I01
sg24
g25
sg26
g27
sg28
g29
sg30
I01
sbag1
(g19
g3
Ntp2806
Rp2807
(dp2808
g23
I01
sg24
g25
sg26
g27
sg28
g29
sg30
I01
sbag1
(g19
g3
Ntp2809
Rp2810
(dp2811
g23
I00
sg24
g34
sg26
g35
sg28
g36
sg30
I01
sbaa(lp2812
g1
(g19
g3
Ntp2813
Rp2814
(dp2815
g23
I00
sg24
g46
sg26
g47
sg28
g48
sg30
I01
sbag1
(g19
g3
Ntp2816
Rp2817
(dp2818
g23
I00
sg24
g46
sg26
g47
sg28
g48
sg30
I01
sbag1
(g19
g3
Ntp2819
Rp2820
(dp2821
g23
I00
sg24
g46
sg26
g47
sg28
g48
sg30
I01
sbag1
(g19
g3
Ntp2822
Rp2823
(dp2824
g23
I01
sg24
g25
sg26
g27
sg28
g29
sg30
I01
sbag1
(g19
g3
Ntp2825
Rp2826
(dp2827
g23
I01
sg24
g25
sg26
g27
sg28
g29
sg30
I01
sbag1
(g19
g3
Ntp2828
Rp2829
(dp2830
g23
I01
sg24
g25
sg26
g27
sg28
g29
sg30
I01
sbag1
(g19
g3
Ntp2831
Rp2832
(dp2833
g23
I00
sg24
g34
sg26
g35
sg28
g36
sg30
I01
sbag1
(g19
g3
Ntp2834
Rp2835
(dp2836
g23
I01
sg24
g25
sg26
g27
sg28
g29
sg30
I01
sbag1
(g19
g3
Ntp2837
Rp2838
(dp2839
g23
I01
sg24
g25
sg26
g27
sg28
g29
sg30
I01
sbag1
(g19
g3
Ntp2840
Rp2841
(dp2842
g23
I00
sg24
g34
sg26
g35
sg28
g36
sg30
I01
sbag1
(g19
g3
Ntp2843
Rp2844
(dp2845
g23
I01
sg24
g25
sg26
g27
sg28
g29
sg30
I01
sbag1
(g19
g3
Ntp2846
Rp2847
(dp2848
g23
I00
sg24
g34
sg26
g35
sg28
g36
sg30
I01
sbaa(lp2849
g1
(g19
g3
Ntp2850
Rp2851
(dp2852
g23
I00
sg24
g46
sg26
g47
sg28
g48
sg30
I01
sbag1
(g19
g3
Ntp2853
Rp2854
(dp2855
g23
I01
sg24
g25
sg26
g27
sg28
g29
sg30
I01
sbag1
(g19
g3
Ntp2856
Rp2857
(dp2858
g23
I01
sg24
g25
sg26
g27
sg28
g29
sg30
I01
sbag1
(g19
g3
Ntp2859
Rp2860
(dp2861
g23
I01
sg24
g25
sg26
g27
sg28
g29
sg30
I01
sbag1
(g19
g3
Ntp2862
Rp2863
(dp2864
g23
I00
sg24
g46
sg26
g47
sg28
g48
sg30
I01
sbag1
(g19
g3
Ntp2865
Rp2866
(dp2867
g23
I00
sg24
g46
sg26
g47
sg28
g48
sg30
I01
sbag1
(g19
g3
Ntp2868
Rp2869
(dp2870
g23
I01
sg24
g25
sg26
g27
sg28
g29
sg30
I01
sbag1
(g19
g3
Ntp2871
Rp2872
(dp2873
g23
I01
sg24
g25
sg26
g27
sg28
g29
sg30
I01
sbag1
(g19
g3
Ntp2874
Rp2875
(dp2876
g23
I01
sg24
g25
sg26
g27
sg28
g29
sg30
I01
sbag1
(g19
g3
Ntp2877
Rp2878
(dp2879
g23
I00
sg24
g46
sg26
g47
sg28
g48
sg30
I01
sbag1
(g19
g3
Ntp2880
Rp2881
(dp2882
g23
I01
sg24
g25
sg26
g27
sg28
g29
sg30
I01
sbag1
(g19
g3
Ntp2883
Rp2884
(dp2885
g23
I00
sg24
g34
sg26
g35
sg28
g36
sg30
I01
sbaa(lp2886
g1
(g19
g3
Ntp2887
Rp2888
(dp2889
g23
I01
sg24
g25
sg26
g27
sg28
g29
sg30
I01
sbag1
(g19
g3
Ntp2890
Rp2891
(dp2892
g23
I00
sg24
g34
sg26
g35
sg28
g36
sg30
I01
sbag1
(g19
g3
Ntp2893
Rp2894
(dp2895
g23
I01
sg24
g25
sg26
g27
sg28
g29
sg30
I01
sbag1
(g19
g3
Ntp2896
Rp2897
(dp2898
g23
I01
sg24
g25
sg26
g27
sg28
g29
sg30
I01
sbag1
(g19
g3
Ntp2899
Rp2900
(dp2901
g23
I00
sg24
g46
sg26
g47
sg28
g48
sg30
I01
sbag1
(g19
g3
Ntp2902
Rp2903
(dp2904
g23
I01
sg24
g25
sg26
g27
sg28
g29
sg30
I01
sbag1
(g19
g3
Ntp2905
Rp2906
(dp2907
g23
I00
sg24
g46
sg26
g47
sg28
g48
sg30
I01
sbag1
(g19
g3
Ntp2908
Rp2909
(dp2910
g23
I01
sg24
g25
sg26
g27
sg28
g29
sg30
I01
sbag1
(g19
g3
Ntp2911
Rp2912
(dp2913
g23
I00
sg24
g46
sg26
g47
sg28
g48
sg30
I01
sbag1
(g19
g3
Ntp2914
Rp2915
(dp2916
g23
I01
sg24
g25
sg26
g27
sg28
g29
sg30
I01
sbag1
(g19
g3
Ntp2917
Rp2918
(dp2919
g23
I01
sg24
g25
sg26
g27
sg28
g29
sg30
I01
sbag1
(g19
g3
Ntp2920
Rp2921
(dp2922
g23
I00
sg24
g34
sg26
g35
sg28
g36
sg30
I01
sbaa(lp2923
g1
(g19
g3
Ntp2924
Rp2925
(dp2926
g23
I01
sg24
g25
sg26
g27
sg28
g29
sg30
I01
sbag1
(g19
g3
Ntp2927
Rp2928
(dp2929
g23
I00
sg24
g46
sg26
g47
sg28
g48
sg30
I01
sbag1
(g19
g3
Ntp2930
Rp2931
(dp2932
g23
I01
sg24
g25
sg26
g27
sg28
g29
sg30
I01
sbag1
(g19
g3
Ntp2933
Rp2934
(dp2935
g23
I01
sg24
g25
sg26
g27
sg28
g29
sg30
I01
sbag1
(g19
g3
Ntp2936
Rp2937
(dp2938
g23
I01
sg24
g25
sg26
g27
sg28
g29
sg30
I01
sbag1
(g19
g3
Ntp2939
Rp2940
(dp2941
g23
I00
sg24
g34
sg26
g35
sg28
g36
sg30
I01
sbag1
(g19
g3
Ntp2942
Rp2943
(dp2944
g23
I00
sg24
g34
sg26
g35
sg28
g36
sg30
I01
sbag1
(g19
g3
Ntp2945
Rp2946
(dp2947
g23
I00
sg24
g34
sg26
g35
sg28
g36
sg30
I01
sbag1
(g19
g3
Ntp2948
Rp2949
(dp2950
g23
I01
sg24
g25
sg26
g27
sg28
g29
sg30
I01
sbag1
(g19
g3
Ntp2951
Rp2952
(dp2953
g23
I01
sg24
g25
sg26
g27
sg28
g29
sg30
I01
sbag1
(g19
g3
Ntp2954
Rp2955
(dp2956
g23
I00
sg24
g46
sg26
g47
sg28
g48
sg30
I01
sbag1
(g19
g3
Ntp2957
Rp2958
(dp2959
g23
I00
sg24
g34
sg26
g35
sg28
g36
sg30
I01
sbaa(lp2960
g1
(g19
g3
Ntp2961
Rp2962
(dp2963
g23
I01
sg24
g25
sg26
g27
sg28
g29
sg30
I01
sbag1
(g19
g3
Ntp2964
Rp2965
(dp2966
g23
I01
sg24
g25
sg26
g27
sg28
g29
sg30
I01
sbag1
(g19
g3
Ntp2967
Rp2968
(dp2969
g23
I01
sg24
g25
sg26
g27
sg28
g29
sg30
I01
sbag1
(g19
g3
Ntp2970
Rp2971
(dp2972
g23
I01
sg24
g25
sg26
g27
sg28
g29
sg30
I01
sbag1
(g19
g3
Ntp2973
Rp2974
(dp2975
g23
I01
sg24
g25
sg26
g27
sg28
g29
sg30
I01
sbag1
(g19
g3
Ntp2976
Rp2977
(dp2978
g23
I01
sg24
g25
sg26
g27
sg28
g29
sg30
I01
sbag1
(g19
g3
Ntp2979
Rp2980
(dp2981
g23
I01
sg24
g25
sg26
g27
sg28
g29
sg30
I01
sbag1
(g19
g3
Ntp2982
Rp2983
(dp2984
g23
I00
sg24
g46
sg26
g47
sg28
g48
sg30
I01
sbag1
(g19
g3
Ntp2985
Rp2986
(dp2987
g23
I01
sg24
g25
sg26
g27
sg28
g29
sg30
I01
sbag1
(g19
g3
Ntp2988
Rp2989
(dp2990
g23
I01
sg24
g25
sg26
g27
sg28
g29
sg30
I01
sbag1
(g19
g3
Ntp2991
Rp2992
(dp2993
g23
I00
sg24
g46
sg26
g47
sg28
g48
sg30
I01
sbag1
(g19
g3
Ntp2994
Rp2995
(dp2996
g23
I00
sg24
g34
sg26
g35
sg28
g36
sg30
I01
sbaa(lp2997
g1
(g19
g3
Ntp2998
Rp2999
(dp3000
g23
I01
sg24
g25
sg26
g27
sg28
g29
sg30
I01
sbag1
(g19
g3
Ntp3001
Rp3002
(dp3003
g23
I01
sg24
g25
sg26
g27
sg28
g29
sg30
I01
sbag1
(g19
g3
Ntp3004
Rp3005
(dp3006
g23
I00
sg24
g34
sg26
g35
sg28
g36
sg30
I01
sbag1
(g19
g3
Ntp3007
Rp3008
(dp3009
g23
I00
sg24
g34
sg26
g35
sg28
g36
sg30
I01
sbag1
(g19
g3
Ntp3010
Rp3011
(dp3012
g23
I01
sg24
g25
sg26
g27
sg28
g29
sg30
I01
sbag1
(g19
g3
Ntp3013
Rp3014
(dp3015
g23
I01
sg24
g25
sg26
g27
sg28
g29
sg30
I01
sbag1
(g19
g3
Ntp3016
Rp3017
(dp3018
g23
I01
sg24
g25
sg26
g27
sg28
g29
sg30
I01
sbag1
(g19
g3
Ntp3019
Rp3020
(dp3021
g23
I01
sg24
g25
sg26
g27
sg28
g29
sg30
I01
sbag1
(g19
g3
Ntp3022
Rp3023
(dp3024
g23
I01
sg24
g25
sg26
g27
sg28
g29
sg30
I01
sbag1
(g19
g3
Ntp3025
Rp3026
(dp3027
g23
I00
sg24
g46
sg26
g47
sg28
g48
sg30
I01
sbag1
(g19
g3
Ntp3028
Rp3029
(dp3030
g23
I01
sg24
g25
sg26
g27
sg28
g29
sg30
I01
sbag1
(g19
g3
Ntp3031
Rp3032
(dp3033
g23
I00
sg24
g34
sg26
g35
sg28
g36
sg30
I01
sbaa(lp3034
g1
(g19
g3
Ntp3035
Rp3036
(dp3037
g23
I00
sg24
g46
sg26
g47
sg28
g48
sg30
I01
sbag1
(g19
g3
Ntp3038
Rp3039
(dp3040
g23
I01
sg24
g25
sg26
g27
sg28
g29
sg30
I01
sbag1
(g19
g3
Ntp3041
Rp3042
(dp3043
g23
I00
sg24
g46
sg26
g47
sg28
g48
sg30
I01
sbag1
(g19
g3
Ntp3044
Rp3045
(dp3046
g23
I01
sg24
g25
sg26
g27
sg28
g29
sg30
I01
sbag1
(g19
g3
Ntp3047
Rp3048
(dp3049
g23
I01
sg24
g25
sg26
g27
sg28
g29
sg30
I01
sbag1
(g19
g3
Ntp3050
Rp3051
(dp3052
g23
I01
sg24
g25
sg26
g27
sg28
g29
sg30
I01
sbag1
(g19
g3
Ntp3053
Rp3054
(dp3055
g23
I01
sg24
g25
sg26
g27
sg28
g29
sg30
I01
sbag1
(g19
g3
Ntp3056
Rp3057
(dp3058
g23
I01
sg24
g25
sg26
g27
sg28
g29
sg30
I01
sbag1
(g19
g3
Ntp3059
Rp3060
(dp3061
g23
I01
sg24
g25
sg26
g27
sg28
g29
sg30
I01
sbag1
(g19
g3
Ntp3062
Rp3063
(dp3064
g23
I01
sg24
g25
sg26
g27
sg28
g29
sg30
I01
sbag1
(g19
g3
Ntp3065
Rp3066
(dp3067
g23
I00
sg24
g34
sg26
g35
sg28
g36
sg30
I01
sbag1
(g19
g3
Ntp3068
Rp3069
(dp3070
g23
I00
sg24
g34
sg26
g35
sg28
g36
sg30
I01
sbaa(lp3071
g1
(g19
g3
Ntp3072
Rp3073
(dp3074
g23
I01
sg24
g25
sg26
g27
sg28
g29
sg30
I01
sbag1
(g19
g3
Ntp3075
Rp3076
(dp3077
g23
I01
sg24
g25
sg26
g27
sg28
g29
sg30
I01
sbag1
(g19
g3
Ntp3078
Rp3079
(dp3080
g23
I01
sg24
g25
sg26
g27
sg28
g29
sg30
I01
sbag1
(g19
g3
Ntp3081
Rp3082
(dp3083
g23
I01
sg24
g25
sg26
g27
sg28
g29
sg30
I01
sbag1
(g19
g3
Ntp3084
Rp3085
(dp3086
g23
I00
sg24
g34
sg26
g35
sg28
g36
sg30
I01
sbag1
(g19
g3
Ntp3087
Rp3088
(dp3089
g23
I01
sg24
g25
sg26
g27
sg28
g29
sg30
I01
sbag1
(g19
g3
Ntp3090
Rp3091
(dp3092
g23
I00
sg24
g34
sg26
g35
sg28
g36
sg30
I01
sbag1
(g19
g3
Ntp3093
Rp3094
(dp3095
g23
I01
sg24
g25
sg26
g27
sg28
g29
sg30
I01
sbag1
(g19
g3
Ntp3096
Rp3097
(dp3098
g23
I01
sg24
g25
sg26
g27
sg28
g29
sg30
I01
sbag1
(g19
g3
Ntp3099
Rp3100
(dp3101
g23
I00
sg24
g34
sg26
g35
sg28
g36
sg30
I01
sbag1
(g19
g3
Ntp3102
Rp3103
(dp3104
g23
I00
sg24
g34
sg26
g35
sg28
g36
sg30
I01
sbag1
(g19
g3
Ntp3105
Rp3106
(dp3107
g23
I00
sg24
g34
sg26
g35
sg28
g36
sg30
I01
sbaa(lp3108
g1
(g19
g3
Ntp3109
Rp3110
(dp3111
g23
I00
sg24
g46
sg26
g47
sg28
g48
sg30
I01
sbag1
(g19
g3
Ntp3112
Rp3113
(dp3114
g23
I00
sg24
g46
sg26
g47
sg28
g48
sg30
I01
sbag1
(g19
g3
Ntp3115
Rp3116
(dp3117
g23
I01
sg24
g25
sg26
g27
sg28
g29
sg30
I01
sbag1
(g19
g3
Ntp3118
Rp3119
(dp3120
g23
I00
sg24
g46
sg26
g47
sg28
g48
sg30
I01
sbag1
(g19
g3
Ntp3121
Rp3122
(dp3123
g23
I00
sg24
g46
sg26
g47
sg28
g48
sg30
I01
sbag1
(g19
g3
Ntp3124
Rp3125
(dp3126
g23
I01
sg24
g25
sg26
g27
sg28
g29
sg30
I01
sbag1
(g19
g3
Ntp3127
Rp3128
(dp3129
g23
I01
sg24
g25
sg26
g27
sg28
g29
sg30
I01
sbag1
(g19
g3
Ntp3130
Rp3131
(dp3132
g23
I00
sg24
g34
sg26
g35
sg28
g36
sg30
I01
sbag1
(g19
g3
Ntp3133
Rp3134
(dp3135
g23
I01
sg24
g25
sg26
g27
sg28
g29
sg30
I01
sbag1
(g19
g3
Ntp3136
Rp3137
(dp3138
g23
I00
sg24
g46
sg26
g47
sg28
g48
sg30
I01
sbag1
(g19
g3
Ntp3139
Rp3140
(dp3141
g23
I00
sg24
g46
sg26
g47
sg28
g48
sg30
I01
sbag1
(g19
g3
Ntp3142
Rp3143
(dp3144
g23
I00
sg24
g34
sg26
g35
sg28
g36
sg30
I01
sbaa(lp3145
g1
(g19
g3
Ntp3146
Rp3147
(dp3148
g23
I00
sg24
g34
sg26
g35
sg28
g36
sg30
I01
sbag1
(g19
g3
Ntp3149
Rp3150
(dp3151
g23
I00
sg24
g34
sg26
g35
sg28
g36
sg30
I01
sbag1
(g19
g3
Ntp3152
Rp3153
(dp3154
g23
I00
sg24
g34
sg26
g35
sg28
g36
sg30
I01
sbag1
(g19
g3
Ntp3155
Rp3156
(dp3157
g23
I00
sg24
g34
sg26
g35
sg28
g36
sg30
I01
sbag1
(g19
g3
Ntp3158
Rp3159
(dp3160
g23
I00
sg24
g34
sg26
g35
sg28
g36
sg30
I01
sbag1
(g19
g3
Ntp3161
Rp3162
(dp3163
g23
I00
sg24
g34
sg26
g35
sg28
g36
sg30
I01
sbag1
(g19
g3
Ntp3164
Rp3165
(dp3166
g23
I00
sg24
g34
sg26
g35
sg28
g36
sg30
I01
sbag1
(g19
g3
Ntp3167
Rp3168
(dp3169
g23
I00
sg24
g34
sg26
g35
sg28
g36
sg30
I01
sbag1
(g19
g3
Ntp3170
Rp3171
(dp3172
g23
I00
sg24
g34
sg26
g35
sg28
g36
sg30
I01
sbag1
(g19
g3
Ntp3173
Rp3174
(dp3175
g23
I00
sg24
g34
sg26
g35
sg28
g36
sg30
I01
sbag1
(g19
g3
Ntp3176
Rp3177
(dp3178
g23
I00
sg24
g34
sg26
g35
sg28
g36
sg30
I01
sbag1
(g19
g3
Ntp3179
Rp3180
(dp3181
g23
I00
sg24
g34
sg26
g35
sg28
g36
sg30
I01
sbaasg477
(I1
I0
tp3182
sbs(I1
I-1
tp3183
g1
(g12
g3
Ntp3184
Rp3185
(dp3186
g16
(lp3187
(lp3188
g1
(g19
g3
Ntp3189
Rp3190
(dp3191
g23
I01
sg24
g25
sg26
g27
sg28
g29
sg30
I01
sbag1
(g19
g3
Ntp3192
Rp3193
(dp3194
g23
I01
sg24
g25
sg26
g27
sg28
g29
sg30
I01
sbag1
(g19
g3
Ntp3195
Rp3196
(dp3197
g23
I01
sg24
g25
sg26
g27
sg28
g29
sg30
I01
sbag1
(g19
g3
Ntp3198
Rp3199
(dp3200
g23
I01
sg24
g25
sg26
g27
sg28
g29
sg30
I01
sbag1
(g19
g3
Ntp3201
Rp3202
(dp3203
g23
I00
sg24
g46
sg26
g47
sg28
g48
sg30
I01
sbag1
(g19
g3
Ntp3204
Rp3205
(dp3206
g23
I01
sg24
g25
sg26
g27
sg28
g29
sg30
I01
sbag1
(g19
g3
Ntp3207
Rp3208
(dp3209
g23
I01
sg24
g25
sg26
g27
sg28
g29
sg30
I01
sbag1
(g19
g3
Ntp3210
Rp3211
(dp3212
g23
I00
sg24
g34
sg26
g35
sg28
g36
sg30
I01
sbag1
(g19
g3
Ntp3213
Rp3214
(dp3215
g23
I01
sg24
g25
sg26
g27
sg28
g29
sg30
I01
sbag1
(g19
g3
Ntp3216
Rp3217
(dp3218
g23
I01
sg24
g25
sg26
g27
sg28
g29
sg30
I01
sbag1
(g19
g3
Ntp3219
Rp3220
(dp3221
g23
I01
sg24
g25
sg26
g27
sg28
g29
sg30
I01
sbag1
(g19
g3
Ntp3222
Rp3223
(dp3224
g23
I00
sg24
g34
sg26
g35
sg28
g36
sg30
I01
sbaa(lp3225
g1
(g19
g3
Ntp3226
Rp3227
(dp3228
g23
I01
sg24
g25
sg26
g27
sg28
g29
sg30
I01
sbag1
(g19
g3
Ntp3229
Rp3230
(dp3231
g23
I01
sg24
g25
sg26
g27
sg28
g29
sg30
I01
sbag1
(g19
g3
Ntp3232
Rp3233
(dp3234
g23
I01
sg24
g25
sg26
g27
sg28
g29
sg30
I01
sbag1
(g19
g3
Ntp3235
Rp3236
(dp3237
g23
I00
sg24
g34
sg26
g35
sg28
g36
sg30
I01
sbag1
(g19
g3
Ntp3238
Rp3239
(dp3240
g23
I01
sg24
g25
sg26
g27
sg28
g29
sg30
I01
sbag1
(g19
g3
Ntp3241
Rp3242
(dp3243
g23
I01
sg24
g25
sg26
g27
sg28
g29
sg30
I01
sbag1
(g19
g3
Ntp3244
Rp3245
(dp3246
g23
I00
sg24
g34
sg26
g35
sg28
g36
sg30
I01
sbag1
(g19
g3
Ntp3247
Rp3248
(dp3249
g23
I01
sg24
g25
sg26
g27
sg28
g29
sg30
I01
sbag1
(g19
g3
Ntp3250
Rp3251
(dp3252
g23
I01
sg24
g25
sg26
g27
sg28
g29
sg30
I01
sbag1
(g19
g3
Ntp3253
Rp3254
(dp3255
g23
I01
sg24
g25
sg26
g27
sg28
g29
sg30
I01
sbag1
(g19
g3
Ntp3256
Rp3257
(dp3258
g23
I00
sg24
g46
sg26
g47
sg28
g48
sg30
I01
sbag1
(g19
g3
Ntp3259
Rp3260
(dp3261
g23
I00
sg24
g34
sg26
g35
sg28
g36
sg30
I01
sbaa(lp3262
g1
(g19
g3
Ntp3263
Rp3264
(dp3265
g23
I00
sg24
g46
sg26
g47
sg28
g48
sg30
I01
sbag1
(g19
g3
Ntp3266
Rp3267
(dp3268
g23
I00
sg24
g34
sg26
g35
sg28
g36
sg30
I01
sbag1
(g19
g3
Ntp3269
Rp3270
(dp3271
g23
I01
sg24
g25
sg26
g27
sg28
g29
sg30
I01
sbag1
(g19
g3
Ntp3272
Rp3273
(dp3274
g23
I01
sg24
g25
sg26
g27
sg28
g29
sg30
I01
sbag1
(g19
g3
Ntp3275
Rp3276
(dp3277
g23
I01
sg24
g25
sg26
g27
sg28
g29
sg30
I01
sbag1
(g19
g3
Ntp3278
Rp3279
(dp3280
g23
I01
sg24
g25
sg26
g27
sg28
g29
sg30
I01
sbag1
(g19
g3
Ntp3281
Rp3282
(dp3283
g23
I00
sg24
g34
sg26
g35
sg28
g36
sg30
I01
sbag1
(g19
g3
Ntp3284
Rp3285
(dp3286
g23
I01
sg24
g25
sg26
g27
sg28
g29
sg30
I01
sbag1
(g19
g3
Ntp3287
Rp3288
(dp3289
g23
I01
sg24
g25
sg26
g27
sg28
g29
sg30
I01
sbag1
(g19
g3
Ntp3290
Rp3291
(dp3292
g23
I00
sg24
g46
sg26
g47
sg28
g48
sg30
I01
sbag1
(g19
g3
Ntp3293
Rp3294
(dp3295
g23
I01
sg24
g25
sg26
g27
sg28
g29
sg30
I01
sbag1
(g19
g3
Ntp3296
Rp3297
(dp3298
g23
I00
sg24
g34
sg26
g35
sg28
g36
sg30
I01
sbaa(lp3299
g1
(g19
g3
Ntp3300
Rp3301
(dp3302
g23
I01
sg24
g25
sg26
g27
sg28
g29
sg30
I01
sbag1
(g19
g3
Ntp3303
Rp3304
(dp3305
g23
I01
sg24
g25
sg26
g27
sg28
g29
sg30
I01
sbag1
(g19
g3
Ntp3306
Rp3307
(dp3308
g23
I00
sg24
g34
sg26
g35
sg28
g36
sg30
I01
sbag1
(g19
g3
Ntp3309
Rp3310
(dp3311
g23
I01
sg24
g25
sg26
g27
sg28
g29
sg30
I01
sbag1
(g19
g3
Ntp3312
Rp3313
(dp3314
g23
I00
sg24
g34
sg26
g35
sg28
g36
sg30
I01
sbag1
(g19
g3
Ntp3315
Rp3316
(dp3317
g23
I00
sg24
g46
sg26
g47
sg28
g48
sg30
I01
sbag1
(g19
g3
Ntp3318
Rp3319
(dp3320
g23
I00
sg24
g46
sg26
g47
sg28
g48
sg30
I01
sbag1
(g19
g3
Ntp3321
Rp3322
(dp3323
g23
I01
sg24
g25
sg26
g27
sg28
g29
sg30
I01
sbag1
(g19
g3
Ntp3324
Rp3325
(dp3326
g23
I00
sg24
g46
sg26
g47
sg28
g48
sg30
I01
sbag1
(g19
g3
Ntp3327
Rp3328
(dp3329
g23
I01
sg24
g25
sg26
g27
sg28
g29
sg30
I01
sbag1
(g19
g3
Ntp3330
Rp3331
(dp3332
g23
I00
sg24
g46
sg26
g47
sg28
g48
sg30
I01
sbag1
(g19
g3
Ntp3333
Rp3334
(dp3335
g23
I00
sg24
g34
sg26
g35
sg28
g36
sg30
I01
sbaa(lp3336
g1
(g19
g3
Ntp3337
Rp3338
(dp3339
g23
I01
sg24
g25
sg26
g27
sg28
g29
sg30
I01
sbag1
(g19
g3
Ntp3340
Rp3341
(dp3342
g23
I01
sg24
g25
sg26
g27
sg28
g29
sg30
I01
sbag1
(g19
g3
Ntp3343
Rp3344
(dp3345
g23
I00
sg24
g46
sg26
g47
sg28
g48
sg30
I01
sbag1
(g19
g3
Ntp3346
Rp3347
(dp3348
g23
I01
sg24
g25
sg26
g27
sg28
g29
sg30
I01
sbag1
(g19
g3
Ntp3349
Rp3350
(dp3351
g23
I01
sg24
g25
sg26
g27
sg28
g29
sg30
I01
sbag1
(g19
g3
Ntp3352
Rp3353
(dp3354
g23
I00
sg24
g46
sg26
g47
sg28
g48
sg30
I01
sbag1
(g19
g3
Ntp3355
Rp3356
(dp3357
g23
I00
sg24
g34
sg26
g35
sg28
g36
sg30
I01
sbag1
(g19
g3
Ntp3358
Rp3359
(dp3360
g23
I00
sg24
g34
sg26
g35
sg28
g36
sg30
I01
sbag1
(g19
g3
Ntp3361
Rp3362
(dp3363
g23
I01
sg24
g25
sg26
g27
sg28
g29
sg30
I01
sbag1
(g19
g3
Ntp3364
Rp3365
(dp3366
g23
I01
sg24
g25
sg26
g27
sg28
g29
sg30
I01
sbag1
(g19
g3
Ntp3367
Rp3368
(dp3369
g23
I00
sg24
g46
sg26
g47
sg28
g48
sg30
I01
sbag1
(g19
g3
Ntp3370
Rp3371
(dp3372
g23
I00
sg24
g34
sg26
g35
sg28
g36
sg30
I01
sbaa(lp3373
g1
(g19
g3
Ntp3374
Rp3375
(dp3376
g23
I01
sg24
g25
sg26
g27
sg28
g29
sg30
I01
sbag1
(g19
g3
Ntp3377
Rp3378
(dp3379
g23
I00
sg24
g34
sg26
g35
sg28
g36
sg30
I01
sbag1
(g19
g3
Ntp3380
Rp3381
(dp3382
g23
I01
sg24
g25
sg26
g27
sg28
g29
sg30
I01
sbag1
(g19
g3
Ntp3383
Rp3384
(dp3385
g23
I00
sg24
g34
sg26
g35
sg28
g36
sg30
I01
sbag1
(g19
g3
Ntp3386
Rp3387
(dp3388
g23
I01
sg24
g25
sg26
g27
sg28
g29
sg30
I01
sbag1
(g19
g3
Ntp3389
Rp3390
(dp3391
g23
I01
sg24
g25
sg26
g27
sg28
g29
sg30
I01
sbag1
(g19
g3
Ntp3392
Rp3393
(dp3394
g23
I01
sg24
g25
sg26
g27
sg28
g29
sg30
I01
sbag1
(g19
g3
Ntp3395
Rp3396
(dp3397
g23
I01
sg24
g25
sg26
g27
sg28
g29
sg30
I01
sbag1
(g19
g3
Ntp3398
Rp3399
(dp3400
g23
I00
sg24
g46
sg26
g47
sg28
g48
sg30
I01
sbag1
(g19
g3
Ntp3401
Rp3402
(dp3403
g23
I01
sg24
g25
sg26
g27
sg28
g29
sg30
I01
sbag1
(g19
g3
Ntp3404
Rp3405
(dp3406
g23
I01
sg24
g25
sg26
g27
sg28
g29
sg30
I01
sbag1
(g19
g3
Ntp3407
Rp3408
(dp3409
g23
I00
sg24
g34
sg26
g35
sg28
g36
sg30
I01
sbaa(lp3410
g1
(g19
g3
Ntp3411
Rp3412
(dp3413
g23
I01
sg24
g25
sg26
g27
sg28
g29
sg30
I01
sbag1
(g19
g3
Ntp3414
Rp3415
(dp3416
g23
I01
sg24
g25
sg26
g27
sg28
g29
sg30
I01
sbag1
(g19
g3
Ntp3417
Rp3418
(dp3419
g23
I00
sg24
g46
sg26
g47
sg28
g48
sg30
I01
sbag1
(g19
g3
Ntp3420
Rp3421
(dp3422
g23
I01
sg24
g25
sg26
g27
sg28
g29
sg30
I01
sbag1
(g19
g3
Ntp3423
Rp3424
(dp3425
g23
I01
sg24
g25
sg26
g27
sg28
g29
sg30
I01
sbag1
(g19
g3
Ntp3426
Rp3427
(dp3428
g23
I00
sg24
g46
sg26
g47
sg28
g48
sg30
I01
sbag1
(g19
g3
Ntp3429
Rp3430
(dp3431
g23
I01
sg24
g25
sg26
g27
sg28
g29
sg30
I01
sbag1
(g19
g3
Ntp3432
Rp3433
(dp3434
g23
I01
sg24
g25
sg26
g27
sg28
g29
sg30
I01
sbag1
(g19
g3
Ntp3435
Rp3436
(dp3437
g23
I01
sg24
g25
sg26
g27
sg28
g29
sg30
I01
sbag1
(g19
g3
Ntp3438
Rp3439
(dp3440
g23
I01
sg24
g25
sg26
g27
sg28
g29
sg30
I01
sbag1
(g19
g3
Ntp3441
Rp3442
(dp3443
g23
I01
sg24
g25
sg26
g27
sg28
g29
sg30
I01
sbag1
(g19
g3
Ntp3444
Rp3445
(dp3446
g23
I00
sg24
g34
sg26
g35
sg28
g36
sg30
I01
sbaa(lp3447
g1
(g19
g3
Ntp3448
Rp3449
(dp3450
g23
I01
sg24
g25
sg26
g27
sg28
g29
sg30
I01
sbag1
(g19
g3
Ntp3451
Rp3452
(dp3453
g23
I00
sg24
g46
sg26
g47
sg28
g48
sg30
I01
sbag1
(g19
g3
Ntp3454
Rp3455
(dp3456
g23
I00
sg24
g46
sg26
g47
sg28
g48
sg30
I01
sbag1
(g19
g3
Ntp3457
Rp3458
(dp3459
g23
I00
sg24
g46
sg26
g47
sg28
g48
sg30
I01
sbag1
(g19
g3
Ntp3460
Rp3461
(dp3462
g23
I01
sg24
g25
sg26
g27
sg28
g29
sg30
I01
sbag1
(g19
g3
Ntp3463
Rp3464
(dp3465
g23
I01
sg24
g25
sg26
g27
sg28
g29
sg30
I01
sbag1
(g19
g3
Ntp3466
Rp3467
(dp3468
g23
I00
sg24
g34
sg26
g35
sg28
g36
sg30
I01
sbag1
(g19
g3
Ntp3469
Rp3470
(dp3471
g23
I01
sg24
g25
sg26
g27
sg28
g29
sg30
I01
sbag1
(g19
g3
Ntp3472
Rp3473
(dp3474
g23
I00
sg24
g46
sg26
g47
sg28
g48
sg30
I01
sbag1
(g19
g3
Ntp3475
Rp3476
(dp3477
g23
I01
sg24
g25
sg26
g27
sg28
g29
sg30
I01
sbag1
(g19
g3
Ntp3478
Rp3479
(dp3480
g23
I01
sg24
g25
sg26
g27
sg28
g29
sg30
I01
sbag1
(g19
g3
Ntp3481
Rp3482
(dp3483
g23
I00
sg24
g34
sg26
g35
sg28
g36
sg30
I01
sbaa(lp3484
g1
(g19
g3
Ntp3485
Rp3486
(dp3487
g23
I00
sg24
g34
sg26
g35
sg28
g36
sg30
I01
sbag1
(g19
g3
Ntp3488
Rp3489
(dp3490
g23
I01
sg24
g25
sg26
g27
sg28
g29
sg30
I01
sbag1
(g19
g3
Ntp3491
Rp3492
(dp3493
g23
I01
sg24
g25
sg26
g27
sg28
g29
sg30
I01
sbag1
(g19
g3
Ntp3494
Rp3495
(dp3496
g23
I01
sg24
g25
sg26
g27
sg28
g29
sg30
I01
sbag1
(g19
g3
Ntp3497
Rp3498
(dp3499
g23
I00
sg24
g46
sg26
g47
sg28
g48
sg30
I01
sbag1
(g19
g3
Ntp3500
Rp3501
(dp3502
g23
I01
sg24
g25
sg26
g27
sg28
g29
sg30
I01
sbag1
(g19
g3
Ntp3503
Rp3504
(dp3505
g23
I01
sg24
g25
sg26
g27
sg28
g29
sg30
I01
sbag1
(g19
g3
Ntp3506
Rp3507
(dp3508
g23
I01
sg24
g25
sg26
g27
sg28
g29
sg30
I01
sbag1
(g19
g3
Ntp3509
Rp3510
(dp3511
g23
I01
sg24
g25
sg26
g27
sg28
g29
sg30
I01
sbag1
(g19
g3
Ntp3512
Rp3513
(dp3514
g23
I01
sg24
g25
sg26
g27
sg28
g29
sg30
I01
sbag1
(g19
g3
Ntp3515
Rp3516
(dp3517
g23
I01
sg24
g25
sg26
g27
sg28
g29
sg30
I01
sbag1
(g19
g3
Ntp3518
Rp3519
(dp3520
g23
I00
sg24
g34
sg26
g35
sg28
g36
sg30
I01
sbaa(lp3521
g1
(g19
g3
Ntp3522
Rp3523
(dp3524
g23
I01
sg24
g25
sg26
g27
sg28
g29
sg30
I01
sbag1
(g19
g3
Ntp3525
Rp3526
(dp3527
g23
I01
sg24
g25
sg26
g27
sg28
g29
sg30
I01
sbag1
(g19
g3
Ntp3528
Rp3529
(dp3530
g23
I01
sg24
g25
sg26
g27
sg28
g29
sg30
I01
sbag1
(g19
g3
Ntp3531
Rp3532
(dp3533
g23
I00
sg24
g34
sg26
g35
sg28
g36
sg30
I01
sbag1
(g19
g3
Ntp3534
Rp3535
(dp3536
g23
I01
sg24
g25
sg26
g27
sg28
g29
sg30
I01
sbag1
(g19
g3
Ntp3537
Rp3538
(dp3539
g23
I00
sg24
g34
sg26
g35
sg28
g36
sg30
I01
sbag1
(g19
g3
Ntp3540
Rp3541
(dp3542
g23
I01
sg24
g25
sg26
g27
sg28
g29
sg30
I01
sbag1
(g19
g3
Ntp3543
Rp3544
(dp3545
g23
I00
sg24
g34
sg26
g35
sg28
g36
sg30
I01
sbag1
(g19
g3
Ntp3546
Rp3547
(dp3548
g23
I00
sg24
g34
sg26
g35
sg28
g36
sg30
I01
sbag1
(g19
g3
Ntp3549
Rp3550
(dp3551
g23
I01
sg24
g25
sg26
g27
sg28
g29
sg30
I01
sbag1
(g19
g3
Ntp3552
Rp3553
(dp3554
g23
I01
sg24
g25
sg26
g27
sg28
g29
sg30
I01
sbag1
(g19
g3
Ntp3555
Rp3556
(dp3557
g23
I00
sg24
g34
sg26
g35
sg28
g36
sg30
I01
sbaa(lp3558
g1
(g19
g3
Ntp3559
Rp3560
(dp3561
g23
I00
sg24
g34
sg26
g35
sg28
g36
sg30
I01
sbag1
(g19
g3
Ntp3562
Rp3563
(dp3564
g23
I01
sg24
g25
sg26
g27
sg28
g29
sg30
I01
sbag1
(g19
g3
Ntp3565
Rp3566
(dp3567
g23
I00
sg24
g34
sg26
g35
sg28
g36
sg30
I01
sbag1
(g19
g3
Ntp3568
Rp3569
(dp3570
g23
I00
sg24
g34
sg26
g35
sg28
g36
sg30
I01
sbag1
(g19
g3
Ntp3571
Rp3572
(dp3573
g23
I01
sg24
g25
sg26
g27
sg28
g29
sg30
I01
sbag1
(g19
g3
Ntp3574
Rp3575
(dp3576
g23
I01
sg24
g25
sg26
g27
sg28
g29
sg30
I01
sbag1
(g19
g3
Ntp3577
Rp3578
(dp3579
g23
I01
sg24
g25
sg26
g27
sg28
g29
sg30
I01
sbag1
(g19
g3
Ntp3580
Rp3581
(dp3582
g23
I01
sg24
g25
sg26
g27
sg28
g29
sg30
I01
sbag1
(g19
g3
Ntp3583
Rp3584
(dp3585
g23
I00
sg24
g46
sg26
g47
sg28
g48
sg30
I01
sbag1
(g19
g3
Ntp3586
Rp3587
(dp3588
g23
I01
sg24
g25
sg26
g27
sg28
g29
sg30
I01
sbag1
(g19
g3
Ntp3589
Rp3590
(dp3591
g23
I00
sg24
g34
sg26
g35
sg28
g36
sg30
I01
sbag1
(g19
g3
Ntp3592
Rp3593
(dp3594
g23
I00
sg24
g34
sg26
g35
sg28
g36
sg30
I01
sbaa(lp3595
g1
(g19
g3
Ntp3596
Rp3597
(dp3598
g23
I00
sg24
g34
sg26
g35
sg28
g36
sg30
I01
sbag1
(g19
g3
Ntp3599
Rp3600
(dp3601
g23
I00
sg24
g34
sg26
g35
sg28
g36
sg30
I01
sbag1
(g19
g3
Ntp3602
Rp3603
(dp3604
g23
I00
sg24
g34
sg26
g35
sg28
g36
sg30
I01
sbag1
(g19
g3
Ntp3605
Rp3606
(dp3607
g23
I00
sg24
g34
sg26
g35
sg28
g36
sg30
I01
sbag1
(g19
g3
Ntp3608
Rp3609
(dp3610
g23
I00
sg24
g34
sg26
g35
sg28
g36
sg30
I01
sbag1
(g19
g3
Ntp3611
Rp3612
(dp3613
g23
I00
sg24
g34
sg26
g35
sg28
g36
sg30
I01
sbag1
(g19
g3
Ntp3614
Rp3615
(dp3616
g23
I00
sg24
g34
sg26
g35
sg28
g36
sg30
I01
sbag1
(g19
g3
Ntp3617
Rp3618
(dp3619
g23
I00
sg24
g34
sg26
g35
sg28
g36
sg30
I01
sbag1
(g19
g3
Ntp3620
Rp3621
(dp3622
g23
I00
sg24
g34
sg26
g35
sg28
g36
sg30
I01
sbag1
(g19
g3
Ntp3623
Rp3624
(dp3625
g23
I00
sg24
g34
sg26
g35
sg28
g36
sg30
I01
sbag1
(g19
g3
Ntp3626
Rp3627
(dp3628
g23
I00
sg24
g34
sg26
g35
sg28
g36
sg30
I01
sbag1
(g19
g3
Ntp3629
Rp3630
(dp3631
g23
I00
sg24
g34
sg26
g35
sg28
g36
sg30
I01
sbaasg477
(I1
I-1
tp3632
sbs(I1
I1
tp3633
g1
(g12
g3
Ntp3634
Rp3635
(dp3636
g16
(lp3637
(lp3638
g1
(g19
g3
Ntp3639
Rp3640
(dp3641
g23
I01
sg24
g25
sg26
g27
sg28
g29
sg30
I01
sbag1
(g19
g3
Ntp3642
Rp3643
(dp3644
g23
I00
sg24
g34
sg26
g35
sg28
g36
sg30
I01
sbag1
(g19
g3
Ntp3645
Rp3646
(dp3647
g23
I01
sg24
g25
sg26
g27
sg28
g29
sg30
I01
sbag1
(g19
g3
Ntp3648
Rp3649
(dp3650
g23
I01
sg24
g25
sg26
g27
sg28
g29
sg30
I01
sbag1
(g19
g3
Ntp3651
Rp3652
(dp3653
g23
I00
sg24
g34
sg26
g35
sg28
g36
sg30
I01
sbag1
(g19
g3
Ntp3654
Rp3655
(dp3656
g23
I00
sg24
g46
sg26
g47
sg28
g48
sg30
I01
sbag1
(g19
g3
Ntp3657
Rp3658
(dp3659
g23
I00
sg24
g34
sg26
g35
sg28
g36
sg30
I01
sbag1
(g19
g3
Ntp3660
Rp3661
(dp3662
g23
I01
sg24
g25
sg26
g27
sg28
g29
sg30
I01
sbag1
(g19
g3
Ntp3663
Rp3664
(dp3665
g23
I01
sg24
g25
sg26
g27
sg28
g29
sg30
I01
sbag1
(g19
g3
Ntp3666
Rp3667
(dp3668
g23
I00
sg24
g34
sg26
g35
sg28
g36
sg30
I01
sbag1
(g19
g3
Ntp3669
Rp3670
(dp3671
g23
I01
sg24
g25
sg26
g27
sg28
g29
sg30
I01
sbag1
(g19
g3
Ntp3672
Rp3673
(dp3674
g23
I00
sg24
g34
sg26
g35
sg28
g36
sg30
I01
sbaa(lp3675
g1
(g19
g3
Ntp3676
Rp3677
(dp3678
g23
I01
sg24
g25
sg26
g27
sg28
g29
sg30
I01
sbag1
(g19
g3
Ntp3679
Rp3680
(dp3681
g23
I00
sg24
g34
sg26
g35
sg28
g36
sg30
I01
sbag1
(g19
g3
Ntp3682
Rp3683
(dp3684
g23
I01
sg24
g25
sg26
g27
sg28
g29
sg30
I01
sbag1
(g19
g3
Ntp3685
Rp3686
(dp3687
g23
I01
sg24
g25
sg26
g27
sg28
g29
sg30
I01
sbag1
(g19
g3
Ntp3688
Rp3689
(dp3690
g23
I01
sg24
g25
sg26
g27
sg28
g29
sg30
I01
sbag1
(g19
g3
Ntp3691
Rp3692
(dp3693
g23
I00
sg24
g46
sg26
g47
sg28
g48
sg30
I01
sbag1
(g19
g3
Ntp3694
Rp3695
(dp3696
g23
I01
sg24
g25
sg26
g27
sg28
g29
sg30
I01
sbag1
(g19
g3
Ntp3697
Rp3698
(dp3699
g23
I00
sg24
g34
sg26
g35
sg28
g36
sg30
I01
sbag1
(g19
g3
Ntp3700
Rp3701
(dp3702
g23
I00
sg24
g34
sg26
g35
sg28
g36
sg30
I01
sbag1
(g19
g3
Ntp3703
Rp3704
(dp3705
g23
I00
sg24
g46
sg26
g47
sg28
g48
sg30
I01
sbag1
(g19
g3
Ntp3706
Rp3707
(dp3708
g23
I01
sg24
g25
sg26
g27
sg28
g29
sg30
I01
sbag1
(g19
g3
Ntp3709
Rp3710
(dp3711
g23
I00
sg24
g34
sg26
g35
sg28
g36
sg30
I01
sbaa(lp3712
g1
(g19
g3
Ntp3713
Rp3714
(dp3715
g23
I01
sg24
g25
sg26
g27
sg28
g29
sg30
I01
sbag1
(g19
g3
Ntp3716
Rp3717
(dp3718
g23
I01
sg24
g25
sg26
g27
sg28
g29
sg30
I01
sbag1
(g19
g3
Ntp3719
Rp3720
(dp3721
g23
I01
sg24
g25
sg26
g27
sg28
g29
sg30
I01
sbag1
(g19
g3
Ntp3722
Rp3723
(dp3724
g23
I01
sg24
g25
sg26
g27
sg28
g29
sg30
I01
sbag1
(g19
g3
Ntp3725
Rp3726
(dp3727
g23
I00
sg24
g46
sg26
g47
sg28
g48
sg30
I01
sbag1
(g19
g3
Ntp3728
Rp3729
(dp3730
g23
I01
sg24
g25
sg26
g27
sg28
g29
sg30
I01
sbag1
(g19
g3
Ntp3731
Rp3732
(dp3733
g23
I01
sg24
g25
sg26
g27
sg28
g29
sg30
I01
sbag1
(g19
g3
Ntp3734
Rp3735
(dp3736
g23
I01
sg24
g25
sg26
g27
sg28
g29
sg30
I01
sbag1
(g19
g3
Ntp3737
Rp3738
(dp3739
g23
I00
sg24
g46
sg26
g47
sg28
g48
sg30
I01
sbag1
(g19
g3
Ntp3740
Rp3741
(dp3742
g23
I00
sg24
g46
sg26
g47
sg28
g48
sg30
I01
sbag1
(g19
g3
Ntp3743
Rp3744
(dp3745
g23
I00
sg24
g34
sg26
g35
sg28
g36
sg30
I01
sbag1
(g19
g3
Ntp3746
Rp3747
(dp3748
g23
I00
sg24
g34
sg26
g35
sg28
g36
sg30
I01
sbaa(lp3749
g1
(g19
g3
Ntp3750
Rp3751
(dp3752
g23
I01
sg24
g25
sg26
g27
sg28
g29
sg30
I01
sbag1
(g19
g3
Ntp3753
Rp3754
(dp3755
g23
I00
sg24
g46
sg26
g47
sg28
g48
sg30
I01
sbag1
(g19
g3
Ntp3756
Rp3757
(dp3758
g23
I01
sg24
g25
sg26
g27
sg28
g29
sg30
I01
sbag1
(g19
g3
Ntp3759
Rp3760
(dp3761
g23
I01
sg24
g25
sg26
g27
sg28
g29
sg30
I01
sbag1
(g19
g3
Ntp3762
Rp3763
(dp3764
g23
I01
sg24
g25
sg26
g27
sg28
g29
sg30
I01
sbag1
(g19
g3
Ntp3765
Rp3766
(dp3767
g23
I00
sg24
g46
sg26
g47
sg28
g48
sg30
I01
sbag1
(g19
g3
Ntp3768
Rp3769
(dp3770
g23
I00
sg24
g46
sg26
g47
sg28
g48
sg30
I01
sbag1
(g19
g3
Ntp3771
Rp3772
(dp3773
g23
I00
sg24
g34
sg26
g35
sg28
g36
sg30
I01
sbag1
(g19
g3
Ntp3774
Rp3775
(dp3776
g23
I00
sg24
g46
sg26
g47
sg28
g48
sg30
I01
sbag1
(g19
g3
Ntp3777
Rp3778
(dp3779
g23
I00
sg24
g34
sg26
g35
sg28
g36
sg30
I01
sbag1
(g19
g3
Ntp3780
Rp3781
(dp3782
g23
I01
sg24
g25
sg26
g27
sg28
g29
sg30
I01
sbag1
(g19
g3
Ntp3783
Rp3784
(dp3785
g23
I00
sg24
g34
sg26
g35
sg28
g36
sg30
I01
sbaa(lp3786
g1
(g19
g3
Ntp3787
Rp3788
(dp3789
g23
I00
sg24
g46
sg26
g47
sg28
g48
sg30
I01
sbag1
(g19
g3
Ntp3790
Rp3791
(dp3792
g23
I00
sg24
g46
sg26
g47
sg28
g48
sg30
I01
sbag1
(g19
g3
Ntp3793
Rp3794
(dp3795
g23
I01
sg24
g25
sg26
g27
sg28
g29
sg30
I01
sbag1
(g19
g3
Ntp3796
Rp3797
(dp3798
g23
I01
sg24
g25
sg26
g27
sg28
g29
sg30
I01
sbag1
(g19
g3
Ntp3799
Rp3800
(dp3801
g23
I01
sg24
g25
sg26
g27
sg28
g29
sg30
I01
sbag1
(g19
g3
Ntp3802
Rp3803
(dp3804
g23
I01
sg24
g25
sg26
g27
sg28
g29
sg30
I01
sbag1
(g19
g3
Ntp3805
Rp3806
(dp3807
g23
I01
sg24
g25
sg26
g27
sg28
g29
sg30
I01
sbag1
(g19
g3
Ntp3808
Rp3809
(dp3810
g23
I00
sg24
g34
sg26
g35
sg28
g36
sg30
I01
sbag1
(g19
g3
Ntp3811
Rp3812
(dp3813
g23
I00
sg24
g46
sg26
g47
sg28
g48
sg30
I01
sbag1
(g19
g3
Ntp3814
Rp3815
(dp3816
g23
I01
sg24
g25
sg26
g27
sg28
g29
sg30
I01
sbag1
(g19
g3
Ntp3817
Rp3818
(dp3819
g23
I01
sg24
g25
sg26
g27
sg28
g29
sg30
I01
sbag1
(g19
g3
Ntp3820
Rp3821
(dp3822
g23
I00
sg24
g34
sg26
g35
sg28
g36
sg30
I01
sbaa(lp3823
g1
(g19
g3
Ntp3824
Rp3825
(dp3826
g23
I01
sg24
g25
sg26
g27
sg28
g29
sg30
I01
sbag1
(g19
g3
Ntp3827
Rp3828
(dp3829
g23
I01
sg24
g25
sg26
g27
sg28
g29
sg30
I01
sbag1
(g19
g3
Ntp3830
Rp3831
(dp3832
g23
I01
sg24
g25
sg26
g27
sg28
g29
sg30
I01
sbag1
(g19
g3
Ntp3833
Rp3834
(dp3835
g23
I01
sg24
g25
sg26
g27
sg28
g29
sg30
I01
sbag1
(g19
g3
Ntp3836
Rp3837
(dp3838
g23
I01
sg24
g25
sg26
g27
sg28
g29
sg30
I01
sbag1
(g19
g3
Ntp3839
Rp3840
(dp3841
g23
I01
sg24
g25
sg26
g27
sg28
g29
sg30
I01
sbag1
(g19
g3
Ntp3842
Rp3843
(dp3844
g23
I01
sg24
g25
sg26
g27
sg28
g29
sg30
I01
sbag1
(g19
g3
Ntp3845
Rp3846
(dp3847
g23
I01
sg24
g25
sg26
g27
sg28
g29
sg30
I01
sbag1
(g19
g3
Ntp3848
Rp3849
(dp3850
g23
I01
sg24
g25
sg26
g27
sg28
g29
sg30
I01
sbag1
(g19
g3
Ntp3851
Rp3852
(dp3853
g23
I01
sg24
g25
sg26
g27
sg28
g29
sg30
I01
sbag1
(g19
g3
Ntp3854
Rp3855
(dp3856
g23
I01
sg24
g25
sg26
g27
sg28
g29
sg30
I01
sbag1
(g19
g3
Ntp3857
Rp3858
(dp3859
g23
I00
sg24
g34
sg26
g35
sg28
g36
sg30
I01
sbaa(lp3860
g1
(g19
g3
Ntp3861
Rp3862
(dp3863
g23
I00
sg24
g46
sg26
g47
sg28
g48
sg30
I01
sbag1
(g19
g3
Ntp3864
Rp3865
(dp3866
g23
I00
sg24
g34
sg26
g35
sg28
g36
sg30
I01
sbag1
(g19
g3
Ntp3867
Rp3868
(dp3869
g23
I01
sg24
g25
sg26
g27
sg28
g29
sg30
I01
sbag1
(g19
g3
Ntp3870
Rp3871
(dp3872
g23
I01
sg24
g25
sg26
g27
sg28
g29
sg30
I01
sbag1
(g19
g3
Ntp3873
Rp3874
(dp3875
g23
I01
sg24
g25
sg26
g27
sg28
g29
sg30
I01
sbag1
(g19
g3
Ntp3876
Rp3877
(dp3878
g23
I01
sg24
g25
sg26
g27
sg28
g29
sg30
I01
sbag1
(g19
g3
Ntp3879
Rp3880
(dp3881
g23
I01
sg24
g25
sg26
g27
sg28
g29
sg30
I01
sbag1
(g19
g3
Ntp3882
Rp3883
(dp3884
g23
I00
sg24
g46
sg26
g47
sg28
g48
sg30
I01
sbag1
(g19
g3
Ntp3885
Rp3886
(dp3887
g23
I00
sg24
g34
sg26
g35
sg28
g36
sg30
I01
sbag1
(g19
g3
Ntp3888
Rp3889
(dp3890
g23
I01
sg24
g25
sg26
g27
sg28
g29
sg30
I01
sbag1
(g19
g3
Ntp3891
Rp3892
(dp3893
g23
I01
sg24
g25
sg26
g27
sg28
g29
sg30
I01
sbag1
(g19
g3
Ntp3894
Rp3895
(dp3896
g23
I00
sg24
g34
sg26
g35
sg28
g36
sg30
I01
sbaa(lp3897
g1
(g19
g3
Ntp3898
Rp3899
(dp3900
g23
I01
sg24
g25
sg26
g27
sg28
g29
sg30
I01
sbag1
(g19
g3
Ntp3901
Rp3902
(dp3903
g23
I01
sg24
g25
sg26
g27
sg28
g29
sg30
I01
sbag1
(g19
g3
Ntp3904
Rp3905
(dp3906
g23
I00
sg24
g46
sg26
g47
sg28
g48
sg30
I01
sbag1
(g19
g3
Ntp3907
Rp3908
(dp3909
g23
I01
sg24
g25
sg26
g27
sg28
g29
sg30
I01
sbag1
(g19
g3
Ntp3910
Rp3911
(dp3912
g23
I01
sg24
g25
sg26
g27
sg28
g29
sg30
I01
sbag1
(g19
g3
Ntp3913
Rp3914
(dp3915
g23
I00
sg24
g34
sg26
g35
sg28
g36
sg30
I01
sbag1
(g19
g3
Ntp3916
Rp3917
(dp3918
g23
I01
sg24
g25
sg26
g27
sg28
g29
sg30
I01
sbag1
(g19
g3
Ntp3919
Rp3920
(dp3921
g23
I01
sg24
g25
sg26
g27
sg28
g29
sg30
I01
sbag1
(g19
g3
Ntp3922
Rp3923
(dp3924
g23
I01
sg24
g25
sg26
g27
sg28
g29
sg30
I01
sbag1
(g19
g3
Ntp3925
Rp3926
(dp3927
g23
I01
sg24
g25
sg26
g27
sg28
g29
sg30
I01
sbag1
(g19
g3
Ntp3928
Rp3929
(dp3930
g23
I00
sg24
g46
sg26
g47
sg28
g48
sg30
I01
sbag1
(g19
g3
Ntp3931
Rp3932
(dp3933
g23
I00
sg24
g34
sg26
g35
sg28
g36
sg30
I01
sbaa(lp3934
g1
(g19
g3
Ntp3935
Rp3936
(dp3937
g23
I01
sg24
g25
sg26
g27
sg28
g29
sg30
I01
sbag1
(g19
g3
Ntp3938
Rp3939
(dp3940
g23
I01
sg24
g25
sg26
g27
sg28
g29
sg30
I01
sbag1
(g19
g3
Ntp3941
Rp3942
(dp3943
g23
I00
sg24
g34
sg26
g35
sg28
g36
sg30
I01
sbag1
(g19
g3
Ntp3944
Rp3945
(dp3946
g23
I00
sg24
g34
sg26
g35
sg28
g36
sg30
I01
sbag1
(g19
g3
Ntp3947
Rp3948
(dp3949
g23
I00
sg24
g46
sg26
g47
sg28
g48
sg30
I01
sbag1
(g19
g3
Ntp3950
Rp3951
(dp3952
g23
I01
sg24
g25
sg26
g27
sg28
g29
sg30
I01
sbag1
(g19
g3
Ntp3953
Rp3954
(dp3955
g23
I00
sg24
g34
sg26
g35
sg28
g36
sg30
I01
sbag1
(g19
g3
Ntp3956
Rp3957
(dp3958
g23
I00
sg24
g46
sg26
g47
sg28
g48
sg30
I01
sbag1
(g19
g3
Ntp3959
Rp3960
(dp3961
g23
I01
sg24
g25
sg26
g27
sg28
g29
sg30
I01
sbag1
(g19
g3
Ntp3962
Rp3963
(dp3964
g23
I00
sg24
g46
sg26
g47
sg28
g48
sg30
I01
sbag1
(g19
g3
Ntp3965
Rp3966
(dp3967
g23
I00
sg24
g46
sg26
g47
sg28
g48
sg30
I01
sbag1
(g19
g3
Ntp3968
Rp3969
(dp3970
g23
I00
sg24
g34
sg26
g35
sg28
g36
sg30
I01
sbaa(lp3971
g1
(g19
g3
Ntp3972
Rp3973
(dp3974
g23
I01
sg24
g25
sg26
g27
sg28
g29
sg30
I01
sbag1
(g19
g3
Ntp3975
Rp3976
(dp3977
g23
I00
sg24
g46
sg26
g47
sg28
g48
sg30
I01
sbag1
(g19
g3
Ntp3978
Rp3979
(dp3980
g23
I01
sg24
g25
sg26
g27
sg28
g29
sg30
I01
sbag1
(g19
g3
Ntp3981
Rp3982
(dp3983
g23
I01
sg24
g25
sg26
g27
sg28
g29
sg30
I01
sbag1
(g19
g3
Ntp3984
Rp3985
(dp3986
g23
I00
sg24
g34
sg26
g35
sg28
g36
sg30
I01
sbag1
(g19
g3
Ntp3987
Rp3988
(dp3989
g23
I01
sg24
g25
sg26
g27
sg28
g29
sg30
I01
sbag1
(g19
g3
Ntp3990
Rp3991
(dp3992
g23
I01
sg24
g25
sg26
g27
sg28
g29
sg30
I01
sbag1
(g19
g3
Ntp3993
Rp3994
(dp3995
g23
I00
sg24
g34
sg26
g35
sg28
g36
sg30
I01
sbag1
(g19
g3
Ntp3996
Rp3997
(dp3998
g23
I01
sg24
g25
sg26
g27
sg28
g29
sg30
I01
sbag1
(g19
g3
Ntp3999
Rp4000
(dp4001
g23
I00
sg24
g34
sg26
g35
sg28
g36
sg30
I01
sbag1
(g19
g3
Ntp4002
Rp4003
(dp4004
g23
I00
sg24
g46
sg26
g47
sg28
g48
sg30
I01
sbag1
(g19
g3
Ntp4005
Rp4006
(dp4007
g23
I00
sg24
g34
sg26
g35
sg28
g36
sg30
I01
sbaa(lp4008
g1
(g19
g3
Ntp4009
Rp4010
(dp4011
g23
I01
sg24
g25
sg26
g27
sg28
g29
sg30
I01
sbag1
(g19
g3
Ntp4012
Rp4013
(dp4014
g23
I00
sg24
g34
sg26
g35
sg28
g36
sg30
I01
sbag1
(g19
g3
Ntp4015
Rp4016
(dp4017
g23
I01
sg24
g25
sg26
g27
sg28
g29
sg30
I01
sbag1
(g19
g3
Ntp4018
Rp4019
(dp4020
g23
I01
sg24
g25
sg26
g27
sg28
g29
sg30
I01
sbag1
(g19
g3
Ntp4021
Rp4022
(dp4023
g23
I01
sg24
g25
sg26
g27
sg28
g29
sg30
I01
sbag1
(g19
g3
Ntp4024
Rp4025
(dp4026
g23
I01
sg24
g25
sg26
g27
sg28
g29
sg30
I01
sbag1
(g19
g3
Ntp4027
Rp4028
(dp4029
g23
I00
sg24
g34
sg26
g35
sg28
g36
sg30
I01
sbag1
(g19
g3
Ntp4030
Rp4031
(dp4032
g23
I01
sg24
g25
sg26
g27
sg28
g29
sg30
I01
sbag1
(g19
g3
Ntp4033
Rp4034
(dp4035
g23
I01
sg24
g25
sg26
g27
sg28
g29
sg30
I01
sbag1
(g19
g3
Ntp4036
Rp4037
(dp4038
g23
I01
sg24
g25
sg26
g27
sg28
g29
sg30
I01
sbag1
(g19
g3
Ntp4039
Rp4040
(dp4041
g23
I00
sg24
g34
sg26
g35
sg28
g36
sg30
I01
sbag1
(g19
g3
Ntp4042
Rp4043
(dp4044
g23
I00
sg24
g34
sg26
g35
sg28
g36
sg30
I01
sbaa(lp4045
g1
(g19
g3
Ntp4046
Rp4047
(dp4048
g23
I00
sg24
g34
sg26
g35
sg28
g36
sg30
I01
sbag1
(g19
g3
Ntp4049
Rp4050
(dp4051
g23
I00
sg24
g34
sg26
g35
sg28
g36
sg30
I01
sbag1
(g19
g3
Ntp4052
Rp4053
(dp4054
g23
I00
sg24
g34
sg26
g35
sg28
g36
sg30
I01
sbag1
(g19
g3
Ntp4055
Rp4056
(dp4057
g23
I00
sg24
g34
sg26
g35
sg28
g36
sg30
I01
sbag1
(g19
g3
Ntp4058
Rp4059
(dp4060
g23
I00
sg24
g34
sg26
g35
sg28
g36
sg30
I01
sbag1
(g19
g3
Ntp4061
Rp4062
(dp4063
g23
I00
sg24
g34
sg26
g35
sg28
g36
sg30
I01
sbag1
(g19
g3
Ntp4064
Rp4065
(dp4066
g23
I00
sg24
g34
sg26
g35
sg28
g36
sg30
I01
sbag1
(g19
g3
Ntp4067
Rp4068
(dp4069
g23
I00
sg24
g34
sg26
g35
sg28
g36
sg30
I01
sbag1
(g19
g3
Ntp4070
Rp4071
(dp4072
g23
I00
sg24
g34
sg26
g35
sg28
g36
sg30
I01
sbag1
(g19
g3
Ntp4073
Rp4074
(dp4075
g23
I00
sg24
g34
sg26
g35
sg28
g36
sg30
I01
sbag1
(g19
g3
Ntp4076
Rp4077
(dp4078
g23
I00
sg24
g34
sg26
g35
sg28
g36
sg30
I01
sbag1
(g19
g3
Ntp4079
Rp4080
(dp4081
g23
I00
sg24
g34
sg26
g35
sg28
g36
sg30
I01
sbaasg477
(I1
I1
tp4082
sbssS'chunk_height'
p4083
I12
sS'chunk_list'
p4084
(lp4085
(I-1
I-1
tp4086
a(I-1
I0
tp4087
a(I-1
I1
tp4088
a(I0
I-1
tp4089
a(I0
I0
tp4090
a(I0
I1
tp4091
a(I1
I-1
tp4092
a(I1
I0
tp4093
a(I1
I1
tp4094
asS'chunk_width'
p4095
I12
sba(lp4096
(lp4097
(I0
I0
tp4098
aI7
aI5
aaI2
a(dp4099
g34
I5
sg46
I6
sg25
I6
saI5
aI2
aa.