(lp0
ccopy_reg
_reconstructor
p1
(cWorld_Module
World
p2
c__builtin__
object
p3
Ntp4
Rp5
(dp6
S'center_chunk'
p7
(lp8
I0
aI0
asS'loaded_world'
p9
(dp10
(I0
I1
tp11
g1
(cWorld_Module
Chunk
p12
g3
Ntp13
Rp14
(dp15
S'chunk'
p16
(lp17
(lp18
g1
(cBlock_Module
Block
p19
g3
Ntp20
Rp21
(dp22
S'walkable'
p23
I00
sS'drop'
p24
cBlock_Module
Wood
p25
sS'graphic'
p26
S'tree.png'
p27
sS'name'
p28
S'tree'
p29
sS'destructible'
p30
I01
sbag1
(g19
g3
Ntp31
Rp32
(dp33
g23
I01
sg24
Nsg26
S'grass.png'
p34
sg28
S'grass'
p35
sg30
I00
sbag1
(g19
g3
Ntp36
Rp37
(dp38
g23
I01
sg24
Nsg26
g34
sg28
g35
sg30
I00
sbag1
(g19
g3
Ntp39
Rp40
(dp41
g23
I01
sg24
Nsg26
g34
sg28
g35
sg30
I00
sbag1
(g19
g3
Ntp42
Rp43
(dp44
g23
I01
sg24
Nsg26
g34
sg28
g35
sg30
I00
sbag1
(g19
g3
Ntp45
Rp46
(dp47
g23
I01
sg24
Nsg26
g34
sg28
g35
sg30
I00
sbag1
(g19
g3
Ntp48
Rp49
(dp50
g23
I01
sg24
Nsg26
g34
sg28
g35
sg30
I00
sbag1
(g19
g3
Ntp51
Rp52
(dp53
g23
I00
sg24
g25
sg26
g27
sg28
g29
sg30
I01
sbag1
(g19
g3
Ntp54
Rp55
(dp56
g23
I01
sg24
Nsg26
g34
sg28
g35
sg30
I00
sbag1
(g19
g3
Ntp57
Rp58
(dp59
g23
I00
sg24
g25
sg26
g27
sg28
g29
sg30
I01
sbag1
(g19
g3
Ntp60
Rp61
(dp62
g23
I01
sg24
Nsg26
g34
sg28
g35
sg30
I00
sbag1
(g19
g3
Ntp63
Rp64
(dp65
g23
I00
sg24
Nsg26
S'water.png'
p66
sg28
S'blank'
p67
sg30
I00
sbaa(lp68
g1
(g19
g3
Ntp69
Rp70
(dp71
g23
I01
sg24
Nsg26
g34
sg28
g35
sg30
I00
sbag1
(g19
g3
Ntp72
Rp73
(dp74
g23
I01
sg24
Nsg26
g34
sg28
g35
sg30
I00
sbag1
(g19
g3
Ntp75
Rp76
(dp77
g23
I00
sg24
g25
sg26
g27
sg28
g29
sg30
I01
sbag1
(g19
g3
Ntp78
Rp79
(dp80
g23
I01
sg24
Nsg26
g34
sg28
g35
sg30
I00
sbag1
(g19
g3
Ntp81
Rp82
(dp83
g23
I00
sg24
g25
sg26
g27
sg28
g29
sg30
I01
sbag1
(g19
g3
Ntp84
Rp85
(dp86
g23
I01
sg24
Nsg26
g34
sg28
g35
sg30
I00
sbag1
(g19
g3
Ntp87
Rp88
(dp89
g23
I01
sg24
Nsg26
g34
sg28
g35
sg30
I00
sbag1
(g19
g3
Ntp90
Rp91
(dp92
g23
I01
sg24
Nsg26
g34
sg28
g35
sg30
I00
sbag1
(g19
g3
Ntp93
Rp94
(dp95
g23
I01
sg24
Nsg26
g34
sg28
g35
sg30
I00
sbag1
(g19
g3
Ntp96
Rp97
(dp98
g23
I01
sg24
Nsg26
g34
sg28
g35
sg30
I00
sbag1
(g19
g3
Ntp99
Rp100
(dp101
g23
I01
sg24
Nsg26
g34
sg28
g35
sg30
I00
sbag1
(g19
g3
Ntp102
Rp103
(dp104
g23
I00
sg24
Nsg26
g66
sg28
g67
sg30
I00
sbaa(lp105
g1
(g19
g3
Ntp106
Rp107
(dp108
g23
I00
sg24
g25
sg26
g27
sg28
g29
sg30
I01
sbag1
(g19
g3
Ntp109
Rp110
(dp111
g23
I01
sg24
Nsg26
g34
sg28
g35
sg30
I00
sbag1
(g19
g3
Ntp112
Rp113
(dp114
g23
I01
sg24
Nsg26
g34
sg28
g35
sg30
I00
sbag1
(g19
g3
Ntp115
Rp116
(dp117
g23
I01
sg24
Nsg26
g34
sg28
g35
sg30
I00
sbag1
(g19
g3
Ntp118
Rp119
(dp120
g23
I01
sg24
Nsg26
g34
sg28
g35
sg30
I00
sbag1
(g19
g3
Ntp121
Rp122
(dp123
g23
I01
sg24
Nsg26
g34
sg28
g35
sg30
I00
sbag1
(g19
g3
Ntp124
Rp125
(dp126
g23
I01
sg24
Nsg26
g34
sg28
g35
sg30
I00
sbag1
(g19
g3
Ntp127
Rp128
(dp129
g23
I00
sg24
g25
sg26
g27
sg28
g29
sg30
I01
sbag1
(g19
g3
Ntp130
Rp131
(dp132
g23
I01
sg24
Nsg26
g34
sg28
g35
sg30
I00
sbag1
(g19
g3
Ntp133
Rp134
(dp135
g23
I00
sg24
g25
sg26
g27
sg28
g29
sg30
I01
sbag1
(g19
g3
Ntp136
Rp137
(dp138
g23
I01
sg24
Nsg26
g34
sg28
g35
sg30
I00
sbag1
(g19
g3
Ntp139
Rp140
(dp141
g23
I00
sg24
Nsg26
g66
sg28
g67
sg30
I00
sbaa(lp142
g1
(g19
g3
Ntp143
Rp144
(dp145
g23
I01
sg24
Nsg26
g34
sg28
g35
sg30
I00
sbag1
(g19
g3
Ntp146
Rp147
(dp148
g23
I01
sg24
Nsg26
g34
sg28
g35
sg30
I00
sbag1
(g19
g3
Ntp149
Rp150
(dp151
g23
I01
sg24
Nsg26
g34
sg28
g35
sg30
I00
sbag1
(g19
g3
Ntp152
Rp153
(dp154
g23
I00
sg24
g25
sg26
g27
sg28
g29
sg30
I01
sbag1
(g19
g3
Ntp155
Rp156
(dp157
g23
I01
sg24
Nsg26
g34
sg28
g35
sg30
I00
sbag1
(g19
g3
Ntp158
Rp159
(dp160
g23
I01
sg24
Nsg26
g34
sg28
g35
sg30
I00
sbag1
(g19
g3
Ntp161
Rp162
(dp163
g23
I01
sg24
Nsg26
g34
sg28
g35
sg30
I00
sbag1
(g19
g3
Ntp164
Rp165
(dp166
g23
I01
sg24
Nsg26
g34
sg28
g35
sg30
I00
sbag1
(g19
g3
Ntp167
Rp168
(dp169
g23
I01
sg24
Nsg26
g34
sg28
g35
sg30
I00
sbag1
(g19
g3
Ntp170
Rp171
(dp172
g23
I01
sg24
Nsg26
g34
sg28
g35
sg30
I00
sbag1
(g19
g3
Ntp173
Rp174
(dp175
g23
I01
sg24
Nsg26
g34
sg28
g35
sg30
I00
sbag1
(g19
g3
Ntp176
Rp177
(dp178
g23
I00
sg24
Nsg26
g66
sg28
g67
sg30
I00
sbaa(lp179
g1
(g19
g3
Ntp180
Rp181
(dp182
g23
I00
sg24
g25
sg26
g27
sg28
g29
sg30
I01
sbag1
(g19
g3
Ntp183
Rp184
(dp185
g23
I01
sg24
Nsg26
g34
sg28
g35
sg30
I00
sbag1
(g19
g3
Ntp186
Rp187
(dp188
g23
I01
sg24
Nsg26
g34
sg28
g35
sg30
I00
sbag1
(g19
g3
Ntp189
Rp190
(dp191
g23
I01
sg24
Nsg26
g34
sg28
g35
sg30
I00
sbag1
(g19
g3
Ntp192
Rp193
(dp194
g23
I01
sg24
Nsg26
g34
sg28
g35
sg30
I00
sbag1
(g19
g3
Ntp195
Rp196
(dp197
g23
I01
sg24
Nsg26
g34
sg28
g35
sg30
I00
sbag1
(g19
g3
Ntp198
Rp199
(dp200
g23
I01
sg24
Nsg26
g34
sg28
g35
sg30
I00
sbag1
(g19
g3
Ntp201
Rp202
(dp203
g23
I01
sg24
Nsg26
g34
sg28
g35
sg30
I00
sbag1
(g19
g3
Ntp204
Rp205
(dp206
g23
I00
sg24
g25
sg26
g27
sg28
g29
sg30
I01
sbag1
(g19
g3
Ntp207
Rp208
(dp209
g23
I01
sg24
Nsg26
g34
sg28
g35
sg30
I00
sbag1
(g19
g3
Ntp210
Rp211
(dp212
g23
I01
sg24
Nsg26
g34
sg28
g35
sg30
I00
sbag1
(g19
g3
Ntp213
Rp214
(dp215
g23
I00
sg24
Nsg26
g66
sg28
g67
sg30
I00
sbaa(lp216
g1
(g19
g3
Ntp217
Rp218
(dp219
g23
I01
sg24
Nsg26
g34
sg28
g35
sg30
I00
sbag1
(g19
g3
Ntp220
Rp221
(dp222
g23
I01
sg24
Nsg26
g34
sg28
g35
sg30
I00
sbag1
(g19
g3
Ntp223
Rp224
(dp225
g23
I00
sg24
g25
sg26
g27
sg28
g29
sg30
I01
sbag1
(g19
g3
Ntp226
Rp227
(dp228
g23
I01
sg24
Nsg26
g34
sg28
g35
sg30
I00
sbag1
(g19
g3
Ntp229
Rp230
(dp231
g23
I01
sg24
Nsg26
g34
sg28
g35
sg30
I00
sbag1
(g19
g3
Ntp232
Rp233
(dp234
g23
I00
sg24
g25
sg26
g27
sg28
g29
sg30
I01
sbag1
(g19
g3
Ntp235
Rp236
(dp237
g23
I01
sg24
Nsg26
g34
sg28
g35
sg30
I00
sbag1
(g19
g3
Ntp238
Rp239
(dp240
g23
I01
sg24
Nsg26
g34
sg28
g35
sg30
I00
sbag1
(g19
g3
Ntp241
Rp242
(dp243
g23
I01
sg24
Nsg26
g34
sg28
g35
sg30
I00
sbag1
(g19
g3
Ntp244
Rp245
(dp246
g23
I01
sg24
Nsg26
g34
sg28
g35
sg30
I00
sbag1
(g19
g3
Ntp247
Rp248
(dp249
g23
I01
sg24
Nsg26
g34
sg28
g35
sg30
I00
sbag1
(g19
g3
Ntp250
Rp251
(dp252
g23
I00
sg24
Nsg26
g66
sg28
g67
sg30
I00
sbaa(lp253
g1
(g19
g3
Ntp254
Rp255
(dp256
g23
I01
sg24
Nsg26
g34
sg28
g35
sg30
I00
sbag1
(g19
g3
Ntp257
Rp258
(dp259
g23
I01
sg24
Nsg26
g34
sg28
g35
sg30
I00
sbag1
(g19
g3
Ntp260
Rp261
(dp262
g23
I01
sg24
Nsg26
g34
sg28
g35
sg30
I00
sbag1
(g19
g3
Ntp263
Rp264
(dp265
g23
I01
sg24
Nsg26
g34
sg28
g35
sg30
I00
sbag1
(g19
g3
Ntp266
Rp267
(dp268
g23
I01
sg24
Nsg26
g34
sg28
g35
sg30
I00
sbag1
(g19
g3
Ntp269
Rp270
(dp271
g23
I01
sg24
Nsg26
g34
sg28
g35
sg30
I00
sbag1
(g19
g3
Ntp272
Rp273
(dp274
g23
I01
sg24
Nsg26
g34
sg28
g35
sg30
I00
sbag1
(g19
g3
Ntp275
Rp276
(dp277
g23
I01
sg24
Nsg26
g34
sg28
g35
sg30
I00
sbag1
(g19
g3
Ntp278
Rp279
(dp280
g23
I00
sg24
g25
sg26
g27
sg28
g29
sg30
I01
sbag1
(g19
g3
Ntp281
Rp282
(dp283
g23
I01
sg24
Nsg26
g34
sg28
g35
sg30
I00
sbag1
(g19
g3
Ntp284
Rp285
(dp286
g23
I00
sg24
g25
sg26
g27
sg28
g29
sg30
I01
sbag1
(g19
g3
Ntp287
Rp288
(dp289
g23
I00
sg24
Nsg26
g66
sg28
g67
sg30
I00
sbaa(lp290
g1
(g19
g3
Ntp291
Rp292
(dp293
g23
I00
sg24
g25
sg26
g27
sg28
g29
sg30
I01
sbag1
(g19
g3
Ntp294
Rp295
(dp296
g23
I01
sg24
Nsg26
g34
sg28
g35
sg30
I00
sbag1
(g19
g3
Ntp297
Rp298
(dp299
g23
I00
sg24
g25
sg26
g27
sg28
g29
sg30
I01
sbag1
(g19
g3
Ntp300
Rp301
(dp302
g23
I01
sg24
Nsg26
g34
sg28
g35
sg30
I00
sbag1
(g19
g3
Ntp303
Rp304
(dp305
g23
I01
sg24
Nsg26
g34
sg28
g35
sg30
I00
sbag1
(g19
g3
Ntp306
Rp307
(dp308
g23
I00
sg24
g25
sg26
g27
sg28
g29
sg30
I01
sbag1
(g19
g3
Ntp309
Rp310
(dp311
g23
I01
sg24
Nsg26
g34
sg28
g35
sg30
I00
sbag1
(g19
g3
Ntp312
Rp313
(dp314
g23
I01
sg24
Nsg26
g34
sg28
g35
sg30
I00
sbag1
(g19
g3
Ntp315
Rp316
(dp317
g23
I01
sg24
Nsg26
g34
sg28
g35
sg30
I00
sbag1
(g19
g3
Ntp318
Rp319
(dp320
g23
I01
sg24
Nsg26
g34
sg28
g35
sg30
I00
sbag1
(g19
g3
Ntp321
Rp322
(dp323
g23
I01
sg24
Nsg26
g34
sg28
g35
sg30
I00
sbag1
(g19
g3
Ntp324
Rp325
(dp326
g23
I00
sg24
Nsg26
g66
sg28
g67
sg30
I00
sbaa(lp327
g1
(g19
g3
Ntp328
Rp329
(dp330
g23
I01
sg24
Nsg26
g34
sg28
g35
sg30
I00
sbag1
(g19
g3
Ntp331
Rp332
(dp333
g23
I01
sg24
Nsg26
g34
sg28
g35
sg30
I00
sbag1
(g19
g3
Ntp334
Rp335
(dp336
g23
I01
sg24
Nsg26
g34
sg28
g35
sg30
I00
sbag1
(g19
g3
Ntp337
Rp338
(dp339
g23
I01
sg24
Nsg26
g34
sg28
g35
sg30
I00
sbag1
(g19
g3
Ntp340
Rp341
(dp342
g23
I01
sg24
Nsg26
g34
sg28
g35
sg30
I00
sbag1
(g19
g3
Ntp343
Rp344
(dp345
g23
I00
sg24
g25
sg26
g27
sg28
g29
sg30
I01
sbag1
(g19
g3
Ntp346
Rp347
(dp348
g23
I00
sg24
g25
sg26
g27
sg28
g29
sg30
I01
sbag1
(g19
g3
Ntp349
Rp350
(dp351
g23
I01
sg24
Nsg26
g34
sg28
g35
sg30
I00
sbag1
(g19
g3
Ntp352
Rp353
(dp354
g23
I00
sg24
g25
sg26
g27
sg28
g29
sg30
I01
sbag1
(g19
g3
Ntp355
Rp356
(dp357
g23
I01
sg24
Nsg26
g34
sg28
g35
sg30
I00
sbag1
(g19
g3
Ntp358
Rp359
(dp360
g23
I01
sg24
Nsg26
g34
sg28
g35
sg30
I00
sbag1
(g19
g3
Ntp361
Rp362
(dp363
g23
I00
sg24
Nsg26
g66
sg28
g67
sg30
I00
sbaa(lp364
g1
(g19
g3
Ntp365
Rp366
(dp367
g23
I00
sg24
g25
sg26
g27
sg28
g29
sg30
I01
sbag1
(g19
g3
Ntp368
Rp369
(dp370
g23
I01
sg24
Nsg26
g34
sg28
g35
sg30
I00
sbag1
(g19
g3
Ntp371
Rp372
(dp373
g23
I00
sg24
g25
sg26
g27
sg28
g29
sg30
I01
sbag1
(g19
g3
Ntp374
Rp375
(dp376
g23
I01
sg24
Nsg26
g34
sg28
g35
sg30
I00
sbag1
(g19
g3
Ntp377
Rp378
(dp379
g23
I01
sg24
Nsg26
g34
sg28
g35
sg30
I00
sbag1
(g19
g3
Ntp380
Rp381
(dp382
g23
I01
sg24
Nsg26
g34
sg28
g35
sg30
I00
sbag1
(g19
g3
Ntp383
Rp384
(dp385
g23
I01
sg24
Nsg26
g34
sg28
g35
sg30
I00
sbag1
(g19
g3
Ntp386
Rp387
(dp388
g23
I01
sg24
Nsg26
g34
sg28
g35
sg30
I00
sbag1
(g19
g3
Ntp389
Rp390
(dp391
g23
I01
sg24
Nsg26
g34
sg28
g35
sg30
I00
sbag1
(g19
g3
Ntp392
Rp393
(dp394
g23
I01
sg24
Nsg26
g34
sg28
g35
sg30
I00
sbag1
(g19
g3
Ntp395
Rp396
(dp397
g23
I01
sg24
Nsg26
g34
sg28
g35
sg30
I00
sbag1
(g19
g3
Ntp398
Rp399
(dp400
g23
I00
sg24
Nsg26
g66
sg28
g67
sg30
I00
sbaa(lp401
g1
(g19
g3
Ntp402
Rp403
(dp404
g23
I01
sg24
Nsg26
g34
sg28
g35
sg30
I00
sbag1
(g19
g3
Ntp405
Rp406
(dp407
g23
I01
sg24
Nsg26
g34
sg28
g35
sg30
I00
sbag1
(g19
g3
Ntp408
Rp409
(dp410
g23
I01
sg24
Nsg26
g34
sg28
g35
sg30
I00
sbag1
(g19
g3
Ntp411
Rp412
(dp413
g23
I01
sg24
Nsg26
g34
sg28
g35
sg30
I00
sbag1
(g19
g3
Ntp414
Rp415
(dp416
g23
I00
sg24
g25
sg26
g27
sg28
g29
sg30
I01
sbag1
(g19
g3
Ntp417
Rp418
(dp419
g23
I01
sg24
Nsg26
g34
sg28
g35
sg30
I00
sbag1
(g19
g3
Ntp420
Rp421
(dp422
g23
I00
sg24
g25
sg26
g27
sg28
g29
sg30
I01
sbag1
(g19
g3
Ntp423
Rp424
(dp425
g23
I01
sg24
Nsg26
g34
sg28
g35
sg30
I00
sbag1
(g19
g3
Ntp426
Rp427
(dp428
g23
I00
sg24
g25
sg26
g27
sg28
g29
sg30
I01
sbag1
(g19
g3
Ntp429
Rp430
(dp431
g23
I01
sg24
Nsg26
g34
sg28
g35
sg30
I00
sbag1
(g19
g3
Ntp432
Rp433
(dp434
g23
I00
sg24
g25
sg26
g27
sg28
g29
sg30
I01
sbag1
(g19
g3
Ntp435
Rp436
(dp437
g23
I00
sg24
Nsg26
g66
sg28
g67
sg30
I00
sbaa(lp438
g1
(g19
g3
Ntp439
Rp440
(dp441
g23
I00
sg24
Nsg26
g66
sg28
g67
sg30
I00
sbag1
(g19
g3
Ntp442
Rp443
(dp444
g23
I00
sg24
Nsg26
g66
sg28
g67
sg30
I00
sbag1
(g19
g3
Ntp445
Rp446
(dp447
g23
I00
sg24
Nsg26
g66
sg28
g67
sg30
I00
sbag1
(g19
g3
Ntp448
Rp449
(dp450
g23
I00
sg24
Nsg26
g66
sg28
g67
sg30
I00
sbag1
(g19
g3
Ntp451
Rp452
(dp453
g23
I00
sg24
Nsg26
g66
sg28
g67
sg30
I00
sbag1
(g19
g3
Ntp454
Rp455
(dp456
g23
I00
sg24
Nsg26
g66
sg28
g67
sg30
I00
sbag1
(g19
g3
Ntp457
Rp458
(dp459
g23
I00
sg24
Nsg26
g66
sg28
g67
sg30
I00
sbag1
(g19
g3
Ntp460
Rp461
(dp462
g23
I00
sg24
Nsg26
g66
sg28
g67
sg30
I00
sbag1
(g19
g3
Ntp463
Rp464
(dp465
g23
I00
sg24
Nsg26
g66
sg28
g67
sg30
I00
sbag1
(g19
g3
Ntp466
Rp467
(dp468
g23
I00
sg24
Nsg26
g66
sg28
g67
sg30
I00
sbag1
(g19
g3
Ntp469
Rp470
(dp471
g23
I00
sg24
Nsg26
g66
sg28
g67
sg30
I00
sbag1
(g19
g3
Ntp472
Rp473
(dp474
g23
I00
sg24
Nsg26
g66
sg28
g67
sg30
I00
sbaasS'location'
p475
(I0
I1
tp476
sbs(I-1
I1
tp477
g1
(g12
g3
Ntp478
Rp479
(dp480
g16
(lp481
(lp482
g1
(g19
g3
Ntp483
Rp484
(dp485
g23
I01
sg24
Nsg26
g34
sg28
g35
sg30
I00
sbag1
(g19
g3
Ntp486
Rp487
(dp488
g23
I01
sg24
Nsg26
g34
sg28
g35
sg30
I00
sbag1
(g19
g3
Ntp489
Rp490
(dp491
g23
I01
sg24
Nsg26
g34
sg28
g35
sg30
I00
sbag1
(g19
g3
Ntp492
Rp493
(dp494
g23
I01
sg24
Nsg26
g34
sg28
g35
sg30
I00
sbag1
(g19
g3
Ntp495
Rp496
(dp497
g23
I01
sg24
Nsg26
g34
sg28
g35
sg30
I00
sbag1
(g19
g3
Ntp498
Rp499
(dp500
g23
I00
sg24
g25
sg26
g27
sg28
g29
sg30
I01
sbag1
(g19
g3
Ntp501
Rp502
(dp503
g23
I01
sg24
Nsg26
g34
sg28
g35
sg30
I00
sbag1
(g19
g3
Ntp504
Rp505
(dp506
g23
I00
sg24
g25
sg26
g27
sg28
g29
sg30
I01
sbag1
(g19
g3
Ntp507
Rp508
(dp509
g23
I01
sg24
Nsg26
g34
sg28
g35
sg30
I00
sbag1
(g19
g3
Ntp510
Rp511
(dp512
g23
I00
sg24
g25
sg26
g27
sg28
g29
sg30
I01
sbag1
(g19
g3
Ntp513
Rp514
(dp515
g23
I01
sg24
Nsg26
g34
sg28
g35
sg30
I00
sbag1
(g19
g3
Ntp516
Rp517
(dp518
g23
I00
sg24
Nsg26
g66
sg28
g67
sg30
I00
sbaa(lp519
g1
(g19
g3
Ntp520
Rp521
(dp522
g23
I00
sg24
g25
sg26
g27
sg28
g29
sg30
I01
sbag1
(g19
g3
Ntp523
Rp524
(dp525
g23
I01
sg24
Nsg26
g34
sg28
g35
sg30
I00
sbag1
(g19
g3
Ntp526
Rp527
(dp528
g23
I00
sg24
g25
sg26
g27
sg28
g29
sg30
I01
sbag1
(g19
g3
Ntp529
Rp530
(dp531
g23
I01
sg24
Nsg26
g34
sg28
g35
sg30
I00
sbag1
(g19
g3
Ntp532
Rp533
(dp534
g23
I01
sg24
Nsg26
g34
sg28
g35
sg30
I00
sbag1
(g19
g3
Ntp535
Rp536
(dp537
g23
I01
sg24
Nsg26
g34
sg28
g35
sg30
I00
sbag1
(g19
g3
Ntp538
Rp539
(dp540
g23
I01
sg24
Nsg26
g34
sg28
g35
sg30
I00
sbag1
(g19
g3
Ntp541
Rp542
(dp543
g23
I01
sg24
Nsg26
g34
sg28
g35
sg30
I00
sbag1
(g19
g3
Ntp544
Rp545
(dp546
g23
I01
sg24
Nsg26
g34
sg28
g35
sg30
I00
sbag1
(g19
g3
Ntp547
Rp548
(dp549
g23
I01
sg24
Nsg26
g34
sg28
g35
sg30
I00
sbag1
(g19
g3
Ntp550
Rp551
(dp552
g23
I01
sg24
Nsg26
g34
sg28
g35
sg30
I00
sbag1
(g19
g3
Ntp553
Rp554
(dp555
g23
I00
sg24
Nsg26
g66
sg28
g67
sg30
I00
sbaa(lp556
g1
(g19
g3
Ntp557
Rp558
(dp559
g23
I01
sg24
Nsg26
g34
sg28
g35
sg30
I00
sbag1
(g19
g3
Ntp560
Rp561
(dp562
g23
I01
sg24
Nsg26
g34
sg28
g35
sg30
I00
sbag1
(g19
g3
Ntp563
Rp564
(dp565
g23
I01
sg24
Nsg26
g34
sg28
g35
sg30
I00
sbag1
(g19
g3
Ntp566
Rp567
(dp568
g23
I01
sg24
Nsg26
g34
sg28
g35
sg30
I00
sbag1
(g19
g3
Ntp569
Rp570
(dp571
g23
I01
sg24
Nsg26
g34
sg28
g35
sg30
I00
sbag1
(g19
g3
Ntp572
Rp573
(dp574
g23
I01
sg24
Nsg26
g34
sg28
g35
sg30
I00
sbag1
(g19
g3
Ntp575
Rp576
(dp577
g23
I00
sg24
g25
sg26
g27
sg28
g29
sg30
I01
sbag1
(g19
g3
Ntp578
Rp579
(dp580
g23
I01
sg24
Nsg26
g34
sg28
g35
sg30
I00
sbag1
(g19
g3
Ntp581
Rp582
(dp583
g23
I01
sg24
Nsg26
g34
sg28
g35
sg30
I00
sbag1
(g19
g3
Ntp584
Rp585
(dp586
g23
I00
sg24
g25
sg26
g27
sg28
g29
sg30
I01
sbag1
(g19
g3
Ntp587
Rp588
(dp589
g23
I01
sg24
Nsg26
g34
sg28
g35
sg30
I00
sbag1
(g19
g3
Ntp590
Rp591
(dp592
g23
I00
sg24
Nsg26
g66
sg28
g67
sg30
I00
sbaa(lp593
g1
(g19
g3
Ntp594
Rp595
(dp596
g23
I01
sg24
Nsg26
g34
sg28
g35
sg30
I00
sbag1
(g19
g3
Ntp597
Rp598
(dp599
g23
I00
sg24
g25
sg26
g27
sg28
g29
sg30
I01
sbag1
(g19
g3
Ntp600
Rp601
(dp602
g23
I01
sg24
Nsg26
g34
sg28
g35
sg30
I00
sbag1
(g19
g3
Ntp603
Rp604
(dp605
g23
I01
sg24
Nsg26
g34
sg28
g35
sg30
I00
sbag1
(g19
g3
Ntp606
Rp607
(dp608
g23
I01
sg24
Nsg26
g34
sg28
g35
sg30
I00
sbag1
(g19
g3
Ntp609
Rp610
(dp611
g23
I01
sg24
Nsg26
g34
sg28
g35
sg30
I00
sbag1
(g19
g3
Ntp612
Rp613
(dp614
g23
I00
sg24
g25
sg26
g27
sg28
g29
sg30
I01
sbag1
(g19
g3
Ntp615
Rp616
(dp617
g23
I01
sg24
Nsg26
g34
sg28
g35
sg30
I00
sbag1
(g19
g3
Ntp618
Rp619
(dp620
g23
I01
sg24
Nsg26
g34
sg28
g35
sg30
I00
sbag1
(g19
g3
Ntp621
Rp622
(dp623
g23
I01
sg24
Nsg26
g34
sg28
g35
sg30
I00
sbag1
(g19
g3
Ntp624
Rp625
(dp626
g23
I01
sg24
Nsg26
g34
sg28
g35
sg30
I00
sbag1
(g19
g3
Ntp627
Rp628
(dp629
g23
I00
sg24
Nsg26
g66
sg28
g67
sg30
I00
sbaa(lp630
g1
(g19
g3
Ntp631
Rp632
(dp633
g23
I01
sg24
Nsg26
g34
sg28
g35
sg30
I00
sbag1
(g19
g3
Ntp634
Rp635
(dp636
g23
I01
sg24
Nsg26
g34
sg28
g35
sg30
I00
sbag1
(g19
g3
Ntp637
Rp638
(dp639
g23
I01
sg24
Nsg26
g34
sg28
g35
sg30
I00
sbag1
(g19
g3
Ntp640
Rp641
(dp642
g23
I00
sg24
g25
sg26
g27
sg28
g29
sg30
I01
sbag1
(g19
g3
Ntp643
Rp644
(dp645
g23
I01
sg24
Nsg26
g34
sg28
g35
sg30
I00
sbag1
(g19
g3
Ntp646
Rp647
(dp648
g23
I01
sg24
Nsg26
g34
sg28
g35
sg30
I00
sbag1
(g19
g3
Ntp649
Rp650
(dp651
g23
I01
sg24
Nsg26
g34
sg28
g35
sg30
I00
sbag1
(g19
g3
Ntp652
Rp653
(dp654
g23
I01
sg24
Nsg26
g34
sg28
g35
sg30
I00
sbag1
(g19
g3
Ntp655
Rp656
(dp657
g23
I00
sg24
g25
sg26
g27
sg28
g29
sg30
I01
sbag1
(g19
g3
Ntp658
Rp659
(dp660
g23
I01
sg24
Nsg26
g34
sg28
g35
sg30
I00
sbag1
(g19
g3
Ntp661
Rp662
(dp663
g23
I01
sg24
Nsg26
g34
sg28
g35
sg30
I00
sbag1
(g19
g3
Ntp664
Rp665
(dp666
g23
I00
sg24
Nsg26
g66
sg28
g67
sg30
I00
sbaa(lp667
g1
(g19
g3
Ntp668
Rp669
(dp670
g23
I00
sg24
g25
sg26
g27
sg28
g29
sg30
I01
sbag1
(g19
g3
Ntp671
Rp672
(dp673
g23
I01
sg24
Nsg26
g34
sg28
g35
sg30
I00
sbag1
(g19
g3
Ntp674
Rp675
(dp676
g23
I01
sg24
Nsg26
g34
sg28
g35
sg30
I00
sbag1
(g19
g3
Ntp677
Rp678
(dp679
g23
I01
sg24
Nsg26
g34
sg28
g35
sg30
I00
sbag1
(g19
g3
Ntp680
Rp681
(dp682
g23
I01
sg24
Nsg26
g34
sg28
g35
sg30
I00
sbag1
(g19
g3
Ntp683
Rp684
(dp685
g23
I01
sg24
Nsg26
g34
sg28
g35
sg30
I00
sbag1
(g19
g3
Ntp686
Rp687
(dp688
g23
I01
sg24
Nsg26
g34
sg28
g35
sg30
I00
sbag1
(g19
g3
Ntp689
Rp690
(dp691
g23
I01
sg24
Nsg26
g34
sg28
g35
sg30
I00
sbag1
(g19
g3
Ntp692
Rp693
(dp694
g23
I01
sg24
Nsg26
g34
sg28
g35
sg30
I00
sbag1
(g19
g3
Ntp695
Rp696
(dp697
g23
I01
sg24
Nsg26
g34
sg28
g35
sg30
I00
sbag1
(g19
g3
Ntp698
Rp699
(dp700
g23
I01
sg24
Nsg26
g34
sg28
g35
sg30
I00
sbag1
(g19
g3
Ntp701
Rp702
(dp703
g23
I00
sg24
Nsg26
g66
sg28
g67
sg30
I00
sbaa(lp704
g1
(g19
g3
Ntp705
Rp706
(dp707
g23
I01
sg24
Nsg26
g34
sg28
g35
sg30
I00
sbag1
(g19
g3
Ntp708
Rp709
(dp710
g23
I01
sg24
Nsg26
g34
sg28
g35
sg30
I00
sbag1
(g19
g3
Ntp711
Rp712
(dp713
g23
I01
sg24
Nsg26
g34
sg28
g35
sg30
I00
sbag1
(g19
g3
Ntp714
Rp715
(dp716
g23
I01
sg24
Nsg26
g34
sg28
g35
sg30
I00
sbag1
(g19
g3
Ntp717
Rp718
(dp719
g23
I01
sg24
Nsg26
g34
sg28
g35
sg30
I00
sbag1
(g19
g3
Ntp720
Rp721
(dp722
g23
I01
sg24
Nsg26
g34
sg28
g35
sg30
I00
sbag1
(g19
g3
Ntp723
Rp724
(dp725
g23
I01
sg24
Nsg26
g34
sg28
g35
sg30
I00
sbag1
(g19
g3
Ntp726
Rp727
(dp728
g23
I00
sg24
g25
sg26
g27
sg28
g29
sg30
I01
sbag1
(g19
g3
Ntp729
Rp730
(dp731
g23
I01
sg24
Nsg26
g34
sg28
g35
sg30
I00
sbag1
(g19
g3
Ntp732
Rp733
(dp734
g23
I01
sg24
Nsg26
g34
sg28
g35
sg30
I00
sbag1
(g19
g3
Ntp735
Rp736
(dp737
g23
I00
sg24
g25
sg26
g27
sg28
g29
sg30
I01
sbag1
(g19
g3
Ntp738
Rp739
(dp740
g23
I00
sg24
Nsg26
g66
sg28
g67
sg30
I00
sbaa(lp741
g1
(g19
g3
Ntp742
Rp743
(dp744
g23
I01
sg24
Nsg26
g34
sg28
g35
sg30
I00
sbag1
(g19
g3
Ntp745
Rp746
(dp747
g23
I00
sg24
g25
sg26
g27
sg28
g29
sg30
I01
sbag1
(g19
g3
Ntp748
Rp749
(dp750
g23
I01
sg24
Nsg26
g34
sg28
g35
sg30
I00
sbag1
(g19
g3
Ntp751
Rp752
(dp753
g23
I01
sg24
Nsg26
g34
sg28
g35
sg30
I00
sbag1
(g19
g3
Ntp754
Rp755
(dp756
g23
I01
sg24
Nsg26
g34
sg28
g35
sg30
I00
sbag1
(g19
g3
Ntp757
Rp758
(dp759
g23
I01
sg24
Nsg26
g34
sg28
g35
sg30
I00
sbag1
(g19
g3
Ntp760
Rp761
(dp762
g23
I01
sg24
Nsg26
g34
sg28
g35
sg30
I00
sbag1
(g19
g3
Ntp763
Rp764
(dp765
g23
I01
sg24
Nsg26
g34
sg28
g35
sg30
I00
sbag1
(g19
g3
Ntp766
Rp767
(dp768
g23
I01
sg24
Nsg26
g34
sg28
g35
sg30
I00
sbag1
(g19
g3
Ntp769
Rp770
(dp771
g23
I01
sg24
Nsg26
g34
sg28
g35
sg30
I00
sbag1
(g19
g3
Ntp772
Rp773
(dp774
g23
I01
sg24
Nsg26
g34
sg28
g35
sg30
I00
sbag1
(g19
g3
Ntp775
Rp776
(dp777
g23
I00
sg24
Nsg26
g66
sg28
g67
sg30
I00
sbaa(lp778
g1
(g19
g3
Ntp779
Rp780
(dp781
g23
I01
sg24
Nsg26
g34
sg28
g35
sg30
I00
sbag1
(g19
g3
Ntp782
Rp783
(dp784
g23
I01
sg24
Nsg26
g34
sg28
g35
sg30
I00
sbag1
(g19
g3
Ntp785
Rp786
(dp787
g23
I01
sg24
Nsg26
g34
sg28
g35
sg30
I00
sbag1
(g19
g3
Ntp788
Rp789
(dp790
g23
I00
sg24
g25
sg26
g27
sg28
g29
sg30
I01
sbag1
(g19
g3
Ntp791
Rp792
(dp793
g23
I01
sg24
Nsg26
g34
sg28
g35
sg30
I00
sbag1
(g19
g3
Ntp794
Rp795
(dp796
g23
I01
sg24
Nsg26
g34
sg28
g35
sg30
I00
sbag1
(g19
g3
Ntp797
Rp798
(dp799
g23
I00
sg24
g25
sg26
g27
sg28
g29
sg30
I01
sbag1
(g19
g3
Ntp800
Rp801
(dp802
g23
I01
sg24
Nsg26
g34
sg28
g35
sg30
I00
sbag1
(g19
g3
Ntp803
Rp804
(dp805
g23
I01
sg24
Nsg26
g34
sg28
g35
sg30
I00
sbag1
(g19
g3
Ntp806
Rp807
(dp808
g23
I00
sg24
g25
sg26
g27
sg28
g29
sg30
I01
sbag1
(g19
g3
Ntp809
Rp810
(dp811
g23
I01
sg24
Nsg26
g34
sg28
g35
sg30
I00
sbag1
(g19
g3
Ntp812
Rp813
(dp814
g23
I00
sg24
Nsg26
g66
sg28
g67
sg30
I00
sbaa(lp815
g1
(g19
g3
Ntp816
Rp817
(dp818
g23
I01
sg24
Nsg26
g34
sg28
g35
sg30
I00
sbag1
(g19
g3
Ntp819
Rp820
(dp821
g23
I01
sg24
Nsg26
g34
sg28
g35
sg30
I00
sbag1
(g19
g3
Ntp822
Rp823
(dp824
g23
I01
sg24
Nsg26
g34
sg28
g35
sg30
I00
sbag1
(g19
g3
Ntp825
Rp826
(dp827
g23
I01
sg24
Nsg26
g34
sg28
g35
sg30
I00
sbag1
(g19
g3
Ntp828
Rp829
(dp830
g23
I01
sg24
Nsg26
g34
sg28
g35
sg30
I00
sbag1
(g19
g3
Ntp831
Rp832
(dp833
g23
I01
sg24
Nsg26
g34
sg28
g35
sg30
I00
sbag1
(g19
g3
Ntp834
Rp835
(dp836
g23
I01
sg24
Nsg26
g34
sg28
g35
sg30
I00
sbag1
(g19
g3
Ntp837
Rp838
(dp839
g23
I01
sg24
Nsg26
g34
sg28
g35
sg30
I00
sbag1
(g19
g3
Ntp840
Rp841
(dp842
g23
I01
sg24
Nsg26
g34
sg28
g35
sg30
I00
sbag1
(g19
g3
Ntp843
Rp844
(dp845
g23
I01
sg24
Nsg26
g34
sg28
g35
sg30
I00
sbag1
(g19
g3
Ntp846
Rp847
(dp848
g23
I01
sg24
Nsg26
g34
sg28
g35
sg30
I00
sbag1
(g19
g3
Ntp849
Rp850
(dp851
g23
I00
sg24
Nsg26
g66
sg28
g67
sg30
I00
sbaa(lp852
g1
(g19
g3
Ntp853
Rp854
(dp855
g23
I00
sg24
g25
sg26
g27
sg28
g29
sg30
I01
sbag1
(g19
g3
Ntp856
Rp857
(dp858
g23
I01
sg24
Nsg26
g34
sg28
g35
sg30
I00
sbag1
(g19
g3
Ntp859
Rp860
(dp861
g23
I01
sg24
Nsg26
g34
sg28
g35
sg30
I00
sbag1
(g19
g3
Ntp862
Rp863
(dp864
g23
I01
sg24
Nsg26
g34
sg28
g35
sg30
I00
sbag1
(g19
g3
Ntp865
Rp866
(dp867
g23
I01
sg24
Nsg26
g34
sg28
g35
sg30
I00
sbag1
(g19
g3
Ntp868
Rp869
(dp870
g23
I01
sg24
Nsg26
g34
sg28
g35
sg30
I00
sbag1
(g19
g3
Ntp871
Rp872
(dp873
g23
I01
sg24
Nsg26
g34
sg28
g35
sg30
I00
sbag1
(g19
g3
Ntp874
Rp875
(dp876
g23
I00
sg24
g25
sg26
g27
sg28
g29
sg30
I01
sbag1
(g19
g3
Ntp877
Rp878
(dp879
g23
I01
sg24
Nsg26
g34
sg28
g35
sg30
I00
sbag1
(g19
g3
Ntp880
Rp881
(dp882
g23
I01
sg24
Nsg26
g34
sg28
g35
sg30
I00
sbag1
(g19
g3
Ntp883
Rp884
(dp885
g23
I01
sg24
Nsg26
g34
sg28
g35
sg30
I00
sbag1
(g19
g3
Ntp886
Rp887
(dp888
g23
I00
sg24
Nsg26
g66
sg28
g67
sg30
I00
sbaa(lp889
g1
(g19
g3
Ntp890
Rp891
(dp892
g23
I00
sg24
Nsg26
g66
sg28
g67
sg30
I00
sbag1
(g19
g3
Ntp893
Rp894
(dp895
g23
I00
sg24
Nsg26
g66
sg28
g67
sg30
I00
sbag1
(g19
g3
Ntp896
Rp897
(dp898
g23
I00
sg24
Nsg26
g66
sg28
g67
sg30
I00
sbag1
(g19
g3
Ntp899
Rp900
(dp901
g23
I00
sg24
Nsg26
g66
sg28
g67
sg30
I00
sbag1
(g19
g3
Ntp902
Rp903
(dp904
g23
I00
sg24
Nsg26
g66
sg28
g67
sg30
I00
sbag1
(g19
g3
Ntp905
Rp906
(dp907
g23
I00
sg24
Nsg26
g66
sg28
g67
sg30
I00
sbag1
(g19
g3
Ntp908
Rp909
(dp910
g23
I00
sg24
Nsg26
g66
sg28
g67
sg30
I00
sbag1
(g19
g3
Ntp911
Rp912
(dp913
g23
I00
sg24
Nsg26
g66
sg28
g67
sg30
I00
sbag1
(g19
g3
Ntp914
Rp915
(dp916
g23
I00
sg24
Nsg26
g66
sg28
g67
sg30
I00
sbag1
(g19
g3
Ntp917
Rp918
(dp919
g23
I00
sg24
Nsg26
g66
sg28
g67
sg30
I00
sbag1
(g19
g3
Ntp920
Rp921
(dp922
g23
I00
sg24
Nsg26
g66
sg28
g67
sg30
I00
sbag1
(g19
g3
Ntp923
Rp924
(dp925
g23
I00
sg24
Nsg26
g66
sg28
g67
sg30
I00
sbaasg475
(I-1
I1
tp926
sbs(I0
I0
tp927
g1
(g12
g3
Ntp928
Rp929
(dp930
g16
(lp931
(lp932
g1
(g19
g3
Ntp933
Rp934
(dp935
g23
I01
sg24
Nsg26
S'dirt.png'
p936
sg28
S'dirt'
p937
sg30
I00
sbag1
(g19
g3
Ntp938
Rp939
(dp940
g23
I01
sg24
Nsg26
g34
sg28
g35
sg30
I00
sbag1
(g19
g3
Ntp941
Rp942
(dp943
g23
I01
sg24
Nsg26
g936
sg28
g937
sg30
I00
sbag1
(g19
g3
Ntp944
Rp945
(dp946
g23
I01
sg24
Nsg26
g34
sg28
g35
sg30
I00
sbag1
(g19
g3
Ntp947
Rp948
(dp949
g23
I01
sg24
Nsg26
S'dirt.png'
p950
sg28
S'dirt'
p951
sg30
I00
sbag1
(g19
g3
Ntp952
Rp953
(dp954
g23
I01
sg24
Nsg26
g34
sg28
g35
sg30
I00
sbag1
(g19
g3
Ntp955
Rp956
(dp957
g23
I01
sg24
Nsg26
g34
sg28
g35
sg30
I00
sbag1
(g19
g3
Ntp958
Rp959
(dp960
g23
I00
sg24
g25
sg26
g27
sg28
g29
sg30
I01
sbag1
(g19
g3
Ntp961
Rp962
(dp963
g23
I01
sg24
Nsg26
g34
sg28
g35
sg30
I00
sbag1
(g19
g3
Ntp964
Rp965
(dp966
g23
I01
sg24
Nsg26
g34
sg28
g35
sg30
I00
sbag1
(g19
g3
Ntp967
Rp968
(dp969
g23
I01
sg24
Nsg26
g34
sg28
g35
sg30
I00
sbag1
(g19
g3
Ntp970
Rp971
(dp972
g23
I00
sg24
Nsg26
g66
sg28
g67
sg30
I00
sbaa(lp973
g1
(g19
g3
Ntp974
Rp975
(dp976
g23
I01
sg24
Nsg26
g34
sg28
g35
sg30
I00
sbag1
(g19
g3
Ntp977
Rp978
(dp979
g23
I01
sg24
Nsg26
g34
sg28
g35
sg30
I00
sbag1
(g19
g3
Ntp980
Rp981
(dp982
g23
I01
sg24
Nsg26
g34
sg28
g35
sg30
I00
sbag1
(g19
g3
Ntp983
Rp984
(dp985
g23
I01
sg24
Nsg26
g34
sg28
g35
sg30
I00
sbag1
(g19
g3
Ntp986
Rp987
(dp988
g23
I01
sg24
Nsg26
g34
sg28
g35
sg30
I00
sbag1
(g19
g3
Ntp989
Rp990
(dp991
g23
I01
sg24
Nsg26
g34
sg28
g35
sg30
I00
sbag1
(g19
g3
Ntp992
Rp993
(dp994
g23
I00
sg24
Nsg26
S'water.png'
p995
sg28
S'water'
p996
sg30
I00
sbag1
(g19
g3
Ntp997
Rp998
(dp999
g23
I00
sg24
Nsg26
g995
sg28
g996
sg30
I00
sbag1
(g19
g3
Ntp1000
Rp1001
(dp1002
g23
I00
sg24
Nsg26
g995
sg28
g996
sg30
I00
sbag1
(g19
g3
Ntp1003
Rp1004
(dp1005
g23
I01
sg24
Nsg26
g34
sg28
g35
sg30
I00
sbag1
(g19
g3
Ntp1006
Rp1007
(dp1008
g23
I00
sg24
g25
sg26
g27
sg28
g29
sg30
I01
sbag1
(g19
g3
Ntp1009
Rp1010
(dp1011
g23
I00
sg24
Nsg26
g66
sg28
g67
sg30
I00
sbaa(lp1012
g1
(g19
g3
Ntp1013
Rp1014
(dp1015
g23
I01
sg24
Nsg26
g34
sg28
g35
sg30
I00
sbag1
(g19
g3
Ntp1016
Rp1017
(dp1018
g23
I01
sg24
Nsg26
g936
sg28
g937
sg30
I00
sbag1
(g19
g3
Ntp1019
Rp1020
(dp1021
g23
I01
sg24
Nsg26
g34
sg28
g35
sg30
I00
sbag1
(g19
g3
Ntp1022
Rp1023
(dp1024
g23
I01
sg24
Nsg26
g34
sg28
g35
sg30
I00
sbag1
(g19
g3
Ntp1025
Rp1026
(dp1027
g23
I01
sg24
Nsg26
g34
sg28
g35
sg30
I00
sbag1
(g19
g3
Ntp1028
Rp1029
(dp1030
g23
I01
sg24
Nsg26
g34
sg28
g35
sg30
I00
sbag1
(g19
g3
Ntp1031
Rp1032
(dp1033
g23
I00
sg24
Nsg26
g995
sg28
g996
sg30
I00
sbag1
(g19
g3
Ntp1034
Rp1035
(dp1036
g23
I01
sg24
Nsg26
g34
sg28
g35
sg30
I00
sbag1
(g19
g3
Ntp1037
Rp1038
(dp1039
g23
I00
sg24
Nsg26
g995
sg28
g996
sg30
I00
sbag1
(g19
g3
Ntp1040
Rp1041
(dp1042
g23
I00
sg24
g25
sg26
g27
sg28
g29
sg30
I01
sbag1
(g19
g3
Ntp1043
Rp1044
(dp1045
g23
I01
sg24
Nsg26
g34
sg28
g35
sg30
I00
sbag1
(g19
g3
Ntp1046
Rp1047
(dp1048
g23
I00
sg24
Nsg26
g66
sg28
g67
sg30
I00
sbaa(lp1049
g1
(g19
g3
Ntp1050
Rp1051
(dp1052
g23
I01
sg24
Nsg26
g34
sg28
g35
sg30
I00
sbag1
(g19
g3
Ntp1053
Rp1054
(dp1055
g23
I01
sg24
Nsg26
g34
sg28
g35
sg30
I00
sbag1
(g19
g3
Ntp1056
Rp1057
(dp1058
g23
I01
sg24
Nsg26
g34
sg28
g35
sg30
I00
sbag1
(g19
g3
Ntp1059
Rp1060
(dp1061
g23
I01
sg24
Nsg26
g34
sg28
g35
sg30
I00
sbag1
(g19
g3
Ntp1062
Rp1063
(dp1064
g23
I01
sg24
Nsg26
g936
sg28
g937
sg30
I00
sbag1
(g19
g3
Ntp1065
Rp1066
(dp1067
g23
I01
sg24
Nsg26
g34
sg28
g35
sg30
I00
sbag1
(g19
g3
Ntp1068
Rp1069
(dp1070
g23
I01
sg24
Nsg26
g34
sg28
g35
sg30
I00
sbag1
(g19
g3
Ntp1071
Rp1072
(dp1073
g23
I01
sg24
Nsg26
g936
sg28
g937
sg30
I00
sbag1
(g19
g3
Ntp1074
Rp1075
(dp1076
g23
I01
sg24
Nsg26
g34
sg28
g35
sg30
I00
sbag1
(g19
g3
Ntp1077
Rp1078
(dp1079
g23
I00
sg24
Nsg26
g995
sg28
g996
sg30
I00
sbag1
(g19
g3
Ntp1080
Rp1081
(dp1082
g23
I00
sg24
Nsg26
g995
sg28
g996
sg30
I00
sbag1
(g19
g3
Ntp1083
Rp1084
(dp1085
g23
I00
sg24
Nsg26
g66
sg28
g67
sg30
I00
sbaa(lp1086
g1
(g19
g3
Ntp1087
Rp1088
(dp1089
g23
I01
sg24
Nsg26
g34
sg28
g35
sg30
I00
sbag1
(g19
g3
Ntp1090
Rp1091
(dp1092
g23
I01
sg24
Nsg26
g34
sg28
g35
sg30
I00
sbag1
(g19
g3
Ntp1093
Rp1094
(dp1095
g23
I01
sg24
Nsg26
g34
sg28
g35
sg30
I00
sbag1
(g19
g3
Ntp1096
Rp1097
(dp1098
g23
I01
sg24
Nsg26
g34
sg28
g35
sg30
I00
sbag1
(g19
g3
Ntp1099
Rp1100
(dp1101
g23
I01
sg24
Nsg26
g34
sg28
g35
sg30
I00
sbag1
(g19
g3
Ntp1102
Rp1103
(dp1104
g23
I00
sg24
g25
sg26
S'wood.png'
p1105
sg28
S'wood'
p1106
sg30
I01
sbag1
(g19
g3
Ntp1107
Rp1108
(dp1109
g23
I01
sg24
Nsg26
g34
sg28
g35
sg30
I00
sbag1
(g19
g3
Ntp1110
Rp1111
(dp1112
g23
I01
sg24
Nsg26
g34
sg28
g35
sg30
I00
sbag1
(g19
g3
Ntp1113
Rp1114
(dp1115
g23
I01
sg24
Nsg26
g34
sg28
g35
sg30
I00
sbag1
(g19
g3
Ntp1116
Rp1117
(dp1118
g23
I00
sg24
Nsg26
g995
sg28
g996
sg30
I00
sbag1
(g19
g3
Ntp1119
Rp1120
(dp1121
g23
I00
sg24
Nsg26
g995
sg28
g996
sg30
I00
sbag1
(g19
g3
Ntp1122
Rp1123
(dp1124
g23
I00
sg24
Nsg26
g66
sg28
g67
sg30
I00
sbaa(lp1125
g1
(g19
g3
Ntp1126
Rp1127
(dp1128
g23
I01
sg24
Nsg26
g34
sg28
g35
sg30
I00
sbag1
(g19
g3
Ntp1129
Rp1130
(dp1131
g23
I01
sg24
Nsg26
g34
sg28
g35
sg30
I00
sbag1
(g19
g3
Ntp1132
Rp1133
(dp1134
g23
I01
sg24
Nsg26
S'dirt.png'
p1135
sg28
S'dirt'
p1136
sg30
I00
sbag1
(g19
g3
Ntp1137
Rp1138
(dp1139
g23
I01
sg24
Nsg26
g34
sg28
g35
sg30
I00
sbag1
(g19
g3
Ntp1140
Rp1141
(dp1142
g23
I01
sg24
Nsg26
g1135
sg28
g1136
sg30
I00
sbag1
(g19
g3
Ntp1143
Rp1144
(dp1145
g23
I01
sg24
Nsg26
g34
sg28
g35
sg30
I00
sbag1
(g19
g3
Ntp1146
Rp1147
(dp1148
g23
I00
sg24
g25
sg26
g1105
sg28
g1106
sg30
I01
sbag1
(g19
g3
Ntp1149
Rp1150
(dp1151
g23
I01
sg24
Nsg26
S'dirt.png'
p1152
sg28
S'dirt'
p1153
sg30
I00
sbag1
(g19
g3
Ntp1154
Rp1155
(dp1156
g23
I01
sg24
Nsg26
g34
sg28
g35
sg30
I00
sbag1
(g19
g3
Ntp1157
Rp1158
(dp1159
g23
I01
sg24
Nsg26
g34
sg28
g35
sg30
I00
sbag1
(g19
g3
Ntp1160
Rp1161
(dp1162
g23
I01
sg24
Nsg26
g34
sg28
g35
sg30
I00
sbag1
(g19
g3
Ntp1163
Rp1164
(dp1165
g23
I00
sg24
Nsg26
g66
sg28
g67
sg30
I00
sbaa(lp1166
g1
(g19
g3
Ntp1167
Rp1168
(dp1169
g23
I01
sg24
Nsg26
g34
sg28
g35
sg30
I00
sbag1
(g19
g3
Ntp1170
Rp1171
(dp1172
g23
I01
sg24
Nsg26
g34
sg28
g35
sg30
I00
sbag1
(g19
g3
Ntp1173
Rp1174
(dp1175
g23
I01
sg24
Nsg26
g34
sg28
g35
sg30
I00
sbag1
(g19
g3
Ntp1176
Rp1177
(dp1178
g23
I01
sg24
Nsg26
g34
sg28
g35
sg30
I00
sbag1
(g19
g3
Ntp1179
Rp1180
(dp1181
g23
I01
sg24
Nsg26
g34
sg28
g35
sg30
I00
sbag1
(g19
g3
Ntp1182
Rp1183
(dp1184
g23
I01
sg24
Nsg26
g34
sg28
g35
sg30
I00
sbag1
(g19
g3
Ntp1185
Rp1186
(dp1187
g23
I01
sg24
Nsg26
g34
sg28
g35
sg30
I00
sbag1
(g19
g3
Ntp1188
Rp1189
(dp1190
g23
I01
sg24
Nsg26
g34
sg28
g35
sg30
I00
sbag1
(g19
g3
Ntp1191
Rp1192
(dp1193
g23
I01
sg24
Nsg26
g34
sg28
g35
sg30
I00
sbag1
(g19
g3
Ntp1194
Rp1195
(dp1196
g23
I01
sg24
Nsg26
g950
sg28
g951
sg30
I00
sbag1
(g19
g3
Ntp1197
Rp1198
(dp1199
g23
I01
sg24
Nsg26
g34
sg28
g35
sg30
I00
sbag1
(g19
g3
Ntp1200
Rp1201
(dp1202
g23
I00
sg24
Nsg26
g66
sg28
g67
sg30
I00
sbaa(lp1203
g1
(g19
g3
Ntp1204
Rp1205
(dp1206
g23
I01
sg24
Nsg26
g950
sg28
g951
sg30
I00
sbag1
(g19
g3
Ntp1207
Rp1208
(dp1209
g23
I01
sg24
Nsg26
g34
sg28
g35
sg30
I00
sbag1
(g19
g3
Ntp1210
Rp1211
(dp1212
g23
I01
sg24
Nsg26
g34
sg28
g35
sg30
I00
sbag1
(g19
g3
Ntp1213
Rp1214
(dp1215
g23
I01
sg24
Nsg26
g1135
sg28
g1136
sg30
I00
sbag1
(g19
g3
Ntp1216
Rp1217
(dp1218
g23
I01
sg24
Nsg26
g34
sg28
g35
sg30
I00
sbag1
(g19
g3
Ntp1219
Rp1220
(dp1221
g23
I01
sg24
Nsg26
g1135
sg28
g1136
sg30
I00
sbag1
(g19
g3
Ntp1222
Rp1223
(dp1224
g23
I01
sg24
Nsg26
g34
sg28
g35
sg30
I00
sbag1
(g19
g3
Ntp1225
Rp1226
(dp1227
g23
I01
sg24
Nsg26
g34
sg28
g35
sg30
I00
sbag1
(g19
g3
Ntp1228
Rp1229
(dp1230
g23
I01
sg24
Nsg26
g34
sg28
g35
sg30
I00
sbag1
(g19
g3
Ntp1231
Rp1232
(dp1233
g23
I01
sg24
Nsg26
g34
sg28
g35
sg30
I00
sbag1
(g19
g3
Ntp1234
Rp1235
(dp1236
g23
I01
sg24
Nsg26
g34
sg28
g35
sg30
I00
sbag1
(g19
g3
Ntp1237
Rp1238
(dp1239
g23
I00
sg24
Nsg26
g66
sg28
g67
sg30
I00
sbaa(lp1240
g1
(g19
g3
Ntp1241
Rp1242
(dp1243
g23
I01
sg24
Nsg26
g34
sg28
g35
sg30
I00
sbag1
(g19
g3
Ntp1244
Rp1245
(dp1246
g23
I01
sg24
Nsg26
g34
sg28
g35
sg30
I00
sbag1
(g19
g3
Ntp1247
Rp1248
(dp1249
g23
I01
sg24
Nsg26
g34
sg28
g35
sg30
I00
sbag1
(g19
g3
Ntp1250
Rp1251
(dp1252
g23
I01
sg24
Nsg26
g34
sg28
g35
sg30
I00
sbag1
(g19
g3
Ntp1253
Rp1254
(dp1255
g23
I01
sg24
Nsg26
g34
sg28
g35
sg30
I00
sbag1
(g19
g3
Ntp1256
Rp1257
(dp1258
g23
I01
sg24
Nsg26
g34
sg28
g35
sg30
I00
sbag1
(g19
g3
Ntp1259
Rp1260
(dp1261
g23
I01
sg24
Nsg26
g34
sg28
g35
sg30
I00
sbag1
(g19
g3
Ntp1262
Rp1263
(dp1264
g23
I01
sg24
Nsg26
g1135
sg28
g1136
sg30
I00
sbag1
(g19
g3
Ntp1265
Rp1266
(dp1267
g23
I01
sg24
Nsg26
g34
sg28
g35
sg30
I00
sbag1
(g19
g3
Ntp1268
Rp1269
(dp1270
g23
I01
sg24
Nsg26
g34
sg28
g35
sg30
I00
sbag1
(g19
g3
Ntp1271
Rp1272
(dp1273
g23
I01
sg24
Nsg26
g950
sg28
g951
sg30
I00
sbag1
(g19
g3
Ntp1274
Rp1275
(dp1276
g23
I00
sg24
Nsg26
g66
sg28
g67
sg30
I00
sbaa(lp1277
g1
(g19
g3
Ntp1278
Rp1279
(dp1280
g23
I01
sg24
Nsg26
g950
sg28
g951
sg30
I00
sbag1
(g19
g3
Ntp1281
Rp1282
(dp1283
g23
I01
sg24
Nsg26
g34
sg28
g35
sg30
I00
sbag1
(g19
g3
Ntp1284
Rp1285
(dp1286
g23
I01
sg24
Nsg26
g34
sg28
g35
sg30
I00
sbag1
(g19
g3
Ntp1287
Rp1288
(dp1289
g23
I01
sg24
Nsg26
g950
sg28
g951
sg30
I00
sbag1
(g19
g3
Ntp1290
Rp1291
(dp1292
g23
I01
sg24
Nsg26
g34
sg28
g35
sg30
I00
sbag1
(g19
g3
Ntp1293
Rp1294
(dp1295
g23
I01
sg24
Nsg26
g34
sg28
g35
sg30
I00
sbag1
(g19
g3
Ntp1296
Rp1297
(dp1298
g23
I01
sg24
Nsg26
g34
sg28
g35
sg30
I00
sbag1
(g19
g3
Ntp1299
Rp1300
(dp1301
g23
I01
sg24
Nsg26
g34
sg28
g35
sg30
I00
sbag1
(g19
g3
Ntp1302
Rp1303
(dp1304
g23
I01
sg24
Nsg26
g34
sg28
g35
sg30
I00
sbag1
(g19
g3
Ntp1305
Rp1306
(dp1307
g23
I01
sg24
Nsg26
g34
sg28
g35
sg30
I00
sbag1
(g19
g3
Ntp1308
Rp1309
(dp1310
g23
I01
sg24
Nsg26
g34
sg28
g35
sg30
I00
sbag1
(g19
g3
Ntp1311
Rp1312
(dp1313
g23
I00
sg24
Nsg26
g66
sg28
g67
sg30
I00
sbaa(lp1314
g1
(g19
g3
Ntp1315
Rp1316
(dp1317
g23
I01
sg24
Nsg26
g34
sg28
g35
sg30
I00
sbag1
(g19
g3
Ntp1318
Rp1319
(dp1320
g23
I01
sg24
Nsg26
g34
sg28
g35
sg30
I00
sbag1
(g19
g3
Ntp1321
Rp1322
(dp1323
g23
I01
sg24
Nsg26
g34
sg28
g35
sg30
I00
sbag1
(g19
g3
Ntp1324
Rp1325
(dp1326
g23
I01
sg24
Nsg26
g34
sg28
g35
sg30
I00
sbag1
(g19
g3
Ntp1327
Rp1328
(dp1329
g23
I01
sg24
Nsg26
g34
sg28
g35
sg30
I00
sbag1
(g19
g3
Ntp1330
Rp1331
(dp1332
g23
I01
sg24
Nsg26
g34
sg28
g35
sg30
I00
sbag1
(g19
g3
Ntp1333
Rp1334
(dp1335
g23
I01
sg24
Nsg26
g34
sg28
g35
sg30
I00
sbag1
(g19
g3
Ntp1336
Rp1337
(dp1338
g23
I01
sg24
Nsg26
g950
sg28
g951
sg30
I00
sbag1
(g19
g3
Ntp1339
Rp1340
(dp1341
g23
I01
sg24
Nsg26
g34
sg28
g35
sg30
I00
sbag1
(g19
g3
Ntp1342
Rp1343
(dp1344
g23
I01
sg24
Nsg26
g950
sg28
g951
sg30
I00
sbag1
(g19
g3
Ntp1345
Rp1346
(dp1347
g23
I01
sg24
Nsg26
g34
sg28
g35
sg30
I00
sbag1
(g19
g3
Ntp1348
Rp1349
(dp1350
g23
I00
sg24
Nsg26
g66
sg28
g67
sg30
I00
sbaa(lp1351
g1
(g19
g3
Ntp1352
Rp1353
(dp1354
g23
I00
sg24
Nsg26
g66
sg28
g67
sg30
I00
sbag1
(g19
g3
Ntp1355
Rp1356
(dp1357
g23
I00
sg24
Nsg26
g66
sg28
g67
sg30
I00
sbag1
(g19
g3
Ntp1358
Rp1359
(dp1360
g23
I00
sg24
Nsg26
g66
sg28
g67
sg30
I00
sbag1
(g19
g3
Ntp1361
Rp1362
(dp1363
g23
I00
sg24
Nsg26
g66
sg28
g67
sg30
I00
sbag1
(g19
g3
Ntp1364
Rp1365
(dp1366
g23
I00
sg24
Nsg26
g66
sg28
g67
sg30
I00
sbag1
(g19
g3
Ntp1367
Rp1368
(dp1369
g23
I00
sg24
Nsg26
g66
sg28
g67
sg30
I00
sbag1
(g19
g3
Ntp1370
Rp1371
(dp1372
g23
I00
sg24
Nsg26
g66
sg28
g67
sg30
I00
sbag1
(g19
g3
Ntp1373
Rp1374
(dp1375
g23
I00
sg24
Nsg26
g66
sg28
g67
sg30
I00
sbag1
(g19
g3
Ntp1376
Rp1377
(dp1378
g23
I00
sg24
Nsg26
g66
sg28
g67
sg30
I00
sbag1
(g19
g3
Ntp1379
Rp1380
(dp1381
g23
I00
sg24
Nsg26
g66
sg28
g67
sg30
I00
sbag1
(g19
g3
Ntp1382
Rp1383
(dp1384
g23
I00
sg24
Nsg26
g66
sg28
g67
sg30
I00
sbag1
(g19
g3
Ntp1385
Rp1386
(dp1387
g23
I00
sg24
Nsg26
g66
sg28
g67
sg30
I00
sbaasg475
(I0
I0
tp1388
sbs(I-1
I0
tp1389
g1
(g12
g3
Ntp1390
Rp1391
(dp1392
g16
(lp1393
(lp1394
g1
(g19
g3
Ntp1395
Rp1396
(dp1397
g23
I01
sg24
Nsg26
g34
sg28
g35
sg30
I00
sbag1
(g19
g3
Ntp1398
Rp1399
(dp1400
g23
I00
sg24
g25
sg26
g27
sg28
g29
sg30
I01
sbag1
(g19
g3
Ntp1401
Rp1402
(dp1403
g23
I01
sg24
Nsg26
g34
sg28
g35
sg30
I00
sbag1
(g19
g3
Ntp1404
Rp1405
(dp1406
g23
I00
sg24
g25
sg26
g27
sg28
g29
sg30
I01
sbag1
(g19
g3
Ntp1407
Rp1408
(dp1409
g23
I01
sg24
Nsg26
g34
sg28
g35
sg30
I00
sbag1
(g19
g3
Ntp1410
Rp1411
(dp1412
g23
I00
sg24
g25
sg26
g27
sg28
g29
sg30
I01
sbag1
(g19
g3
Ntp1413
Rp1414
(dp1415
g23
I01
sg24
Nsg26
g34
sg28
g35
sg30
I00
sbag1
(g19
g3
Ntp1416
Rp1417
(dp1418
g23
I01
sg24
Nsg26
g34
sg28
g35
sg30
I00
sbag1
(g19
g3
Ntp1419
Rp1420
(dp1421
g23
I01
sg24
Nsg26
g34
sg28
g35
sg30
I00
sbag1
(g19
g3
Ntp1422
Rp1423
(dp1424
g23
I01
sg24
Nsg26
g34
sg28
g35
sg30
I00
sbag1
(g19
g3
Ntp1425
Rp1426
(dp1427
g23
I00
sg24
g25
sg26
g27
sg28
g29
sg30
I01
sbag1
(g19
g3
Ntp1428
Rp1429
(dp1430
g23
I00
sg24
Nsg26
g66
sg28
g67
sg30
I00
sbaa(lp1431
g1
(g19
g3
Ntp1432
Rp1433
(dp1434
g23
I01
sg24
Nsg26
g34
sg28
g35
sg30
I00
sbag1
(g19
g3
Ntp1435
Rp1436
(dp1437
g23
I01
sg24
Nsg26
g34
sg28
g35
sg30
I00
sbag1
(g19
g3
Ntp1438
Rp1439
(dp1440
g23
I01
sg24
Nsg26
g34
sg28
g35
sg30
I00
sbag1
(g19
g3
Ntp1441
Rp1442
(dp1443
g23
I01
sg24
Nsg26
g34
sg28
g35
sg30
I00
sbag1
(g19
g3
Ntp1444
Rp1445
(dp1446
g23
I01
sg24
Nsg26
g34
sg28
g35
sg30
I00
sbag1
(g19
g3
Ntp1447
Rp1448
(dp1449
g23
I01
sg24
Nsg26
g34
sg28
g35
sg30
I00
sbag1
(g19
g3
Ntp1450
Rp1451
(dp1452
g23
I01
sg24
Nsg26
g34
sg28
g35
sg30
I00
sbag1
(g19
g3
Ntp1453
Rp1454
(dp1455
g23
I00
sg24
g25
sg26
g27
sg28
g29
sg30
I01
sbag1
(g19
g3
Ntp1456
Rp1457
(dp1458
g23
I00
sg24
g25
sg26
g27
sg28
g29
sg30
I01
sbag1
(g19
g3
Ntp1459
Rp1460
(dp1461
g23
I01
sg24
Nsg26
g34
sg28
g35
sg30
I00
sbag1
(g19
g3
Ntp1462
Rp1463
(dp1464
g23
I01
sg24
Nsg26
g34
sg28
g35
sg30
I00
sbag1
(g19
g3
Ntp1465
Rp1466
(dp1467
g23
I00
sg24
Nsg26
g66
sg28
g67
sg30
I00
sbaa(lp1468
g1
(g19
g3
Ntp1469
Rp1470
(dp1471
g23
I01
sg24
Nsg26
g34
sg28
g35
sg30
I00
sbag1
(g19
g3
Ntp1472
Rp1473
(dp1474
g23
I01
sg24
Nsg26
g34
sg28
g35
sg30
I00
sbag1
(g19
g3
Ntp1475
Rp1476
(dp1477
g23
I00
sg24
g25
sg26
g27
sg28
g29
sg30
I01
sbag1
(g19
g3
Ntp1478
Rp1479
(dp1480
g23
I01
sg24
Nsg26
g34
sg28
g35
sg30
I00
sbag1
(g19
g3
Ntp1481
Rp1482
(dp1483
g23
I01
sg24
Nsg26
g34
sg28
g35
sg30
I00
sbag1
(g19
g3
Ntp1484
Rp1485
(dp1486
g23
I01
sg24
Nsg26
g34
sg28
g35
sg30
I00
sbag1
(g19
g3
Ntp1487
Rp1488
(dp1489
g23
I01
sg24
Nsg26
g34
sg28
g35
sg30
I00
sbag1
(g19
g3
Ntp1490
Rp1491
(dp1492
g23
I01
sg24
Nsg26
g34
sg28
g35
sg30
I00
sbag1
(g19
g3
Ntp1493
Rp1494
(dp1495
g23
I00
sg24
Nsg26
g995
sg28
g996
sg30
I00
sbag1
(g19
g3
Ntp1496
Rp1497
(dp1498
g23
I00
sg24
Nsg26
g995
sg28
g996
sg30
I00
sbag1
(g19
g3
Ntp1499
Rp1500
(dp1501
g23
I01
sg24
Nsg26
g34
sg28
g35
sg30
I00
sbag1
(g19
g3
Ntp1502
Rp1503
(dp1504
g23
I00
sg24
Nsg26
g66
sg28
g67
sg30
I00
sbaa(lp1505
g1
(g19
g3
Ntp1506
Rp1507
(dp1508
g23
I00
sg24
g25
sg26
g27
sg28
g29
sg30
I01
sbag1
(g19
g3
Ntp1509
Rp1510
(dp1511
g23
I01
sg24
Nsg26
g34
sg28
g35
sg30
I00
sbag1
(g19
g3
Ntp1512
Rp1513
(dp1514
g23
I01
sg24
Nsg26
g34
sg28
g35
sg30
I00
sbag1
(g19
g3
Ntp1515
Rp1516
(dp1517
g23
I01
sg24
Nsg26
g34
sg28
g35
sg30
I00
sbag1
(g19
g3
Ntp1518
Rp1519
(dp1520
g23
I01
sg24
Nsg26
g34
sg28
g35
sg30
I00
sbag1
(g19
g3
Ntp1521
Rp1522
(dp1523
g23
I00
sg24
g25
sg26
g27
sg28
g29
sg30
I01
sbag1
(g19
g3
Ntp1524
Rp1525
(dp1526
g23
I01
sg24
Nsg26
g34
sg28
g35
sg30
I00
sbag1
(g19
g3
Ntp1527
Rp1528
(dp1529
g23
I00
sg24
Nsg26
g995
sg28
g996
sg30
I00
sbag1
(g19
g3
Ntp1530
Rp1531
(dp1532
g23
I01
sg24
Nsg26
g34
sg28
g35
sg30
I00
sbag1
(g19
g3
Ntp1533
Rp1534
(dp1535
g23
I01
sg24
Nsg26
g34
sg28
g35
sg30
I00
sbag1
(g19
g3
Ntp1536
Rp1537
(dp1538
g23
I01
sg24
Nsg26
g34
sg28
g35
sg30
I00
sbag1
(g19
g3
Ntp1539
Rp1540
(dp1541
g23
I00
sg24
Nsg26
g66
sg28
g67
sg30
I00
sbaa(lp1542
g1
(g19
g3
Ntp1543
Rp1544
(dp1545
g23
I01
sg24
Nsg26
g34
sg28
g35
sg30
I00
sbag1
(g19
g3
Ntp1546
Rp1547
(dp1548
g23
I01
sg24
Nsg26
g34
sg28
g35
sg30
I00
sbag1
(g19
g3
Ntp1549
Rp1550
(dp1551
g23
I01
sg24
Nsg26
g34
sg28
g35
sg30
I00
sbag1
(g19
g3
Ntp1552
Rp1553
(dp1554
g23
I01
sg24
Nsg26
g34
sg28
g35
sg30
I00
sbag1
(g19
g3
Ntp1555
Rp1556
(dp1557
g23
I01
sg24
Nsg26
g34
sg28
g35
sg30
I00
sbag1
(g19
g3
Ntp1558
Rp1559
(dp1560
g23
I01
sg24
Nsg26
g34
sg28
g35
sg30
I00
sbag1
(g19
g3
Ntp1561
Rp1562
(dp1563
g23
I01
sg24
Nsg26
g34
sg28
g35
sg30
I00
sbag1
(g19
g3
Ntp1564
Rp1565
(dp1566
g23
I01
sg24
Nsg26
g34
sg28
g35
sg30
I00
sbag1
(g19
g3
Ntp1567
Rp1568
(dp1569
g23
I01
sg24
Nsg26
g34
sg28
g35
sg30
I00
sbag1
(g19
g3
Ntp1570
Rp1571
(dp1572
g23
I00
sg24
g25
sg26
g27
sg28
g29
sg30
I01
sbag1
(g19
g3
Ntp1573
Rp1574
(dp1575
g23
I01
sg24
Nsg26
g34
sg28
g35
sg30
I00
sbag1
(g19
g3
Ntp1576
Rp1577
(dp1578
g23
I00
sg24
Nsg26
g66
sg28
g67
sg30
I00
sbaa(lp1579
g1
(g19
g3
Ntp1580
Rp1581
(dp1582
g23
I00
sg24
g25
sg26
g27
sg28
g29
sg30
I01
sbag1
(g19
g3
Ntp1583
Rp1584
(dp1585
g23
I01
sg24
Nsg26
g34
sg28
g35
sg30
I00
sbag1
(g19
g3
Ntp1586
Rp1587
(dp1588
g23
I00
sg24
g25
sg26
g27
sg28
g29
sg30
I01
sbag1
(g19
g3
Ntp1589
Rp1590
(dp1591
g23
I01
sg24
Nsg26
g34
sg28
g35
sg30
I00
sbag1
(g19
g3
Ntp1592
Rp1593
(dp1594
g23
I00
sg24
g25
sg26
g27
sg28
g29
sg30
I01
sbag1
(g19
g3
Ntp1595
Rp1596
(dp1597
g23
I01
sg24
Nsg26
g34
sg28
g35
sg30
I00
sbag1
(g19
g3
Ntp1598
Rp1599
(dp1600
g23
I00
sg24
g25
sg26
g27
sg28
g29
sg30
I01
sbag1
(g19
g3
Ntp1601
Rp1602
(dp1603
g23
I01
sg24
Nsg26
g34
sg28
g35
sg30
I00
sbag1
(g19
g3
Ntp1604
Rp1605
(dp1606
g23
I01
sg24
Nsg26
g34
sg28
g35
sg30
I00
sbag1
(g19
g3
Ntp1607
Rp1608
(dp1609
g23
I01
sg24
Nsg26
g34
sg28
g35
sg30
I00
sbag1
(g19
g3
Ntp1610
Rp1611
(dp1612
g23
I01
sg24
Nsg26
g34
sg28
g35
sg30
I00
sbag1
(g19
g3
Ntp1613
Rp1614
(dp1615
g23
I00
sg24
Nsg26
g66
sg28
g67
sg30
I00
sbaa(lp1616
g1
(g19
g3
Ntp1617
Rp1618
(dp1619
g23
I01
sg24
Nsg26
g34
sg28
g35
sg30
I00
sbag1
(g19
g3
Ntp1620
Rp1621
(dp1622
g23
I01
sg24
Nsg26
g34
sg28
g35
sg30
I00
sbag1
(g19
g3
Ntp1623
Rp1624
(dp1625
g23
I01
sg24
Nsg26
g34
sg28
g35
sg30
I00
sbag1
(g19
g3
Ntp1626
Rp1627
(dp1628
g23
I01
sg24
Nsg26
g34
sg28
g35
sg30
I00
sbag1
(g19
g3
Ntp1629
Rp1630
(dp1631
g23
I01
sg24
Nsg26
g34
sg28
g35
sg30
I00
sbag1
(g19
g3
Ntp1632
Rp1633
(dp1634
g23
I01
sg24
Nsg26
g34
sg28
g35
sg30
I00
sbag1
(g19
g3
Ntp1635
Rp1636
(dp1637
g23
I01
sg24
Nsg26
g34
sg28
g35
sg30
I00
sbag1
(g19
g3
Ntp1638
Rp1639
(dp1640
g23
I01
sg24
Nsg26
g34
sg28
g35
sg30
I00
sbag1
(g19
g3
Ntp1641
Rp1642
(dp1643
g23
I00
sg24
g25
sg26
g27
sg28
g29
sg30
I01
sbag1
(g19
g3
Ntp1644
Rp1645
(dp1646
g23
I01
sg24
Nsg26
g34
sg28
g35
sg30
I00
sbag1
(g19
g3
Ntp1647
Rp1648
(dp1649
g23
I01
sg24
Nsg26
g34
sg28
g35
sg30
I00
sbag1
(g19
g3
Ntp1650
Rp1651
(dp1652
g23
I00
sg24
Nsg26
g66
sg28
g67
sg30
I00
sbaa(lp1653
g1
(g19
g3
Ntp1654
Rp1655
(dp1656
g23
I00
sg24
g25
sg26
g27
sg28
g29
sg30
I01
sbag1
(g19
g3
Ntp1657
Rp1658
(dp1659
g23
I01
sg24
Nsg26
g34
sg28
g35
sg30
I00
sbag1
(g19
g3
Ntp1660
Rp1661
(dp1662
g23
I00
sg24
g25
sg26
g27
sg28
g29
sg30
I01
sbag1
(g19
g3
Ntp1663
Rp1664
(dp1665
g23
I01
sg24
Nsg26
g34
sg28
g35
sg30
I00
sbag1
(g19
g3
Ntp1666
Rp1667
(dp1668
g23
I01
sg24
Nsg26
g34
sg28
g35
sg30
I00
sbag1
(g19
g3
Ntp1669
Rp1670
(dp1671
g23
I01
sg24
Nsg26
g34
sg28
g35
sg30
I00
sbag1
(g19
g3
Ntp1672
Rp1673
(dp1674
g23
I01
sg24
Nsg26
g34
sg28
g35
sg30
I00
sbag1
(g19
g3
Ntp1675
Rp1676
(dp1677
g23
I01
sg24
Nsg26
g34
sg28
g35
sg30
I00
sbag1
(g19
g3
Ntp1678
Rp1679
(dp1680
g23
I01
sg24
Nsg26
g34
sg28
g35
sg30
I00
sbag1
(g19
g3
Ntp1681
Rp1682
(dp1683
g23
I01
sg24
Nsg26
g34
sg28
g35
sg30
I00
sbag1
(g19
g3
Ntp1684
Rp1685
(dp1686
g23
I01
sg24
Nsg26
g34
sg28
g35
sg30
I00
sbag1
(g19
g3
Ntp1687
Rp1688
(dp1689
g23
I00
sg24
Nsg26
g66
sg28
g67
sg30
I00
sbaa(lp1690
g1
(g19
g3
Ntp1691
Rp1692
(dp1693
g23
I01
sg24
Nsg26
g34
sg28
g35
sg30
I00
sbag1
(g19
g3
Ntp1694
Rp1695
(dp1696
g23
I01
sg24
Nsg26
g34
sg28
g35
sg30
I00
sbag1
(g19
g3
Ntp1697
Rp1698
(dp1699
g23
I01
sg24
Nsg26
g34
sg28
g35
sg30
I00
sbag1
(g19
g3
Ntp1700
Rp1701
(dp1702
g23
I01
sg24
Nsg26
g34
sg28
g35
sg30
I00
sbag1
(g19
g3
Ntp1703
Rp1704
(dp1705
g23
I00
sg24
g25
sg26
g27
sg28
g29
sg30
I01
sbag1
(g19
g3
Ntp1706
Rp1707
(dp1708
g23
I01
sg24
Nsg26
g34
sg28
g35
sg30
I00
sbag1
(g19
g3
Ntp1709
Rp1710
(dp1711
g23
I01
sg24
Nsg26
g34
sg28
g35
sg30
I00
sbag1
(g19
g3
Ntp1712
Rp1713
(dp1714
g23
I00
sg24
g25
sg26
g27
sg28
g29
sg30
I01
sbag1
(g19
g3
Ntp1715
Rp1716
(dp1717
g23
I01
sg24
Nsg26
g34
sg28
g35
sg30
I00
sbag1
(g19
g3
Ntp1718
Rp1719
(dp1720
g23
I01
sg24
Nsg26
g34
sg28
g35
sg30
I00
sbag1
(g19
g3
Ntp1721
Rp1722
(dp1723
g23
I01
sg24
Nsg26
g34
sg28
g35
sg30
I00
sbag1
(g19
g3
Ntp1724
Rp1725
(dp1726
g23
I00
sg24
Nsg26
g66
sg28
g67
sg30
I00
sbaa(lp1727
g1
(g19
g3
Ntp1728
Rp1729
(dp1730
g23
I00
sg24
g25
sg26
g27
sg28
g29
sg30
I01
sbag1
(g19
g3
Ntp1731
Rp1732
(dp1733
g23
I01
sg24
Nsg26
g34
sg28
g35
sg30
I00
sbag1
(g19
g3
Ntp1734
Rp1735
(dp1736
g23
I01
sg24
Nsg26
g34
sg28
g35
sg30
I00
sbag1
(g19
g3
Ntp1737
Rp1738
(dp1739
g23
I01
sg24
Nsg26
g34
sg28
g35
sg30
I00
sbag1
(g19
g3
Ntp1740
Rp1741
(dp1742
g23
I01
sg24
Nsg26
g34
sg28
g35
sg30
I00
sbag1
(g19
g3
Ntp1743
Rp1744
(dp1745
g23
I01
sg24
Nsg26
g34
sg28
g35
sg30
I00
sbag1
(g19
g3
Ntp1746
Rp1747
(dp1748
g23
I01
sg24
Nsg26
g34
sg28
g35
sg30
I00
sbag1
(g19
g3
Ntp1749
Rp1750
(dp1751
g23
I01
sg24
Nsg26
g34
sg28
g35
sg30
I00
sbag1
(g19
g3
Ntp1752
Rp1753
(dp1754
g23
I01
sg24
Nsg26
g34
sg28
g35
sg30
I00
sbag1
(g19
g3
Ntp1755
Rp1756
(dp1757
g23
I01
sg24
Nsg26
g34
sg28
g35
sg30
I00
sbag1
(g19
g3
Ntp1758
Rp1759
(dp1760
g23
I01
sg24
Nsg26
g34
sg28
g35
sg30
I00
sbag1
(g19
g3
Ntp1761
Rp1762
(dp1763
g23
I00
sg24
Nsg26
g66
sg28
g67
sg30
I00
sbaa(lp1764
g1
(g19
g3
Ntp1765
Rp1766
(dp1767
g23
I01
sg24
Nsg26
g34
sg28
g35
sg30
I00
sbag1
(g19
g3
Ntp1768
Rp1769
(dp1770
g23
I01
sg24
Nsg26
g34
sg28
g35
sg30
I00
sbag1
(g19
g3
Ntp1771
Rp1772
(dp1773
g23
I00
sg24
g25
sg26
g27
sg28
g29
sg30
I01
sbag1
(g19
g3
Ntp1774
Rp1775
(dp1776
g23
I01
sg24
Nsg26
g34
sg28
g35
sg30
I00
sbag1
(g19
g3
Ntp1777
Rp1778
(dp1779
g23
I01
sg24
Nsg26
g34
sg28
g35
sg30
I00
sbag1
(g19
g3
Ntp1780
Rp1781
(dp1782
g23
I01
sg24
Nsg26
g34
sg28
g35
sg30
I00
sbag1
(g19
g3
Ntp1783
Rp1784
(dp1785
g23
I00
sg24
g25
sg26
g27
sg28
g29
sg30
I01
sbag1
(g19
g3
Ntp1786
Rp1787
(dp1788
g23
I01
sg24
Nsg26
g34
sg28
g35
sg30
I00
sbag1
(g19
g3
Ntp1789
Rp1790
(dp1791
g23
I01
sg24
Nsg26
g34
sg28
g35
sg30
I00
sbag1
(g19
g3
Ntp1792
Rp1793
(dp1794
g23
I01
sg24
Nsg26
g34
sg28
g35
sg30
I00
sbag1
(g19
g3
Ntp1795
Rp1796
(dp1797
g23
I00
sg24
g25
sg26
g27
sg28
g29
sg30
I01
sbag1
(g19
g3
Ntp1798
Rp1799
(dp1800
g23
I00
sg24
Nsg26
g66
sg28
g67
sg30
I00
sbaa(lp1801
g1
(g19
g3
Ntp1802
Rp1803
(dp1804
g23
I00
sg24
Nsg26
g66
sg28
g67
sg30
I00
sbag1
(g19
g3
Ntp1805
Rp1806
(dp1807
g23
I00
sg24
Nsg26
g66
sg28
g67
sg30
I00
sbag1
(g19
g3
Ntp1808
Rp1809
(dp1810
g23
I00
sg24
Nsg26
g66
sg28
g67
sg30
I00
sbag1
(g19
g3
Ntp1811
Rp1812
(dp1813
g23
I00
sg24
Nsg26
g66
sg28
g67
sg30
I00
sbag1
(g19
g3
Ntp1814
Rp1815
(dp1816
g23
I00
sg24
Nsg26
g66
sg28
g67
sg30
I00
sbag1
(g19
g3
Ntp1817
Rp1818
(dp1819
g23
I00
sg24
Nsg26
g66
sg28
g67
sg30
I00
sbag1
(g19
g3
Ntp1820
Rp1821
(dp1822
g23
I00
sg24
Nsg26
g66
sg28
g67
sg30
I00
sbag1
(g19
g3
Ntp1823
Rp1824
(dp1825
g23
I00
sg24
Nsg26
g66
sg28
g67
sg30
I00
sbag1
(g19
g3
Ntp1826
Rp1827
(dp1828
g23
I00
sg24
Nsg26
g66
sg28
g67
sg30
I00
sbag1
(g19
g3
Ntp1829
Rp1830
(dp1831
g23
I00
sg24
Nsg26
g66
sg28
g67
sg30
I00
sbag1
(g19
g3
Ntp1832
Rp1833
(dp1834
g23
I00
sg24
Nsg26
g66
sg28
g67
sg30
I00
sbag1
(g19
g3
Ntp1835
Rp1836
(dp1837
g23
I00
sg24
Nsg26
g66
sg28
g67
sg30
I00
sbaasg475
(I-1
I0
tp1838
sbs(I-1
I-1
tp1839
g1
(g12
g3
Ntp1840
Rp1841
(dp1842
g16
(lp1843
(lp1844
g1
(g19
g3
Ntp1845
Rp1846
(dp1847
g23
I01
sg24
Nsg26
g34
sg28
g35
sg30
I00
sbag1
(g19
g3
Ntp1848
Rp1849
(dp1850
g23
I01
sg24
Nsg26
g34
sg28
g35
sg30
I00
sbag1
(g19
g3
Ntp1851
Rp1852
(dp1853
g23
I01
sg24
Nsg26
g34
sg28
g35
sg30
I00
sbag1
(g19
g3
Ntp1854
Rp1855
(dp1856
g23
I01
sg24
Nsg26
g34
sg28
g35
sg30
I00
sbag1
(g19
g3
Ntp1857
Rp1858
(dp1859
g23
I01
sg24
Nsg26
g34
sg28
g35
sg30
I00
sbag1
(g19
g3
Ntp1860
Rp1861
(dp1862
g23
I01
sg24
Nsg26
g34
sg28
g35
sg30
I00
sbag1
(g19
g3
Ntp1863
Rp1864
(dp1865
g23
I00
sg24
g25
sg26
g27
sg28
g29
sg30
I01
sbag1
(g19
g3
Ntp1866
Rp1867
(dp1868
g23
I01
sg24
Nsg26
g34
sg28
g35
sg30
I00
sbag1
(g19
g3
Ntp1869
Rp1870
(dp1871
g23
I01
sg24
Nsg26
g34
sg28
g35
sg30
I00
sbag1
(g19
g3
Ntp1872
Rp1873
(dp1874
g23
I01
sg24
Nsg26
g34
sg28
g35
sg30
I00
sbag1
(g19
g3
Ntp1875
Rp1876
(dp1877
g23
I00
sg24
g25
sg26
g27
sg28
g29
sg30
I01
sbag1
(g19
g3
Ntp1878
Rp1879
(dp1880
g23
I00
sg24
Nsg26
g66
sg28
g67
sg30
I00
sbaa(lp1881
g1
(g19
g3
Ntp1882
Rp1883
(dp1884
g23
I01
sg24
Nsg26
g34
sg28
g35
sg30
I00
sbag1
(g19
g3
Ntp1885
Rp1886
(dp1887
g23
I00
sg24
g25
sg26
g27
sg28
g29
sg30
I01
sbag1
(g19
g3
Ntp1888
Rp1889
(dp1890
g23
I01
sg24
Nsg26
g34
sg28
g35
sg30
I00
sbag1
(g19
g3
Ntp1891
Rp1892
(dp1893
g23
I01
sg24
Nsg26
g34
sg28
g35
sg30
I00
sbag1
(g19
g3
Ntp1894
Rp1895
(dp1896
g23
I01
sg24
Nsg26
g34
sg28
g35
sg30
I00
sbag1
(g19
g3
Ntp1897
Rp1898
(dp1899
g23
I01
sg24
Nsg26
g34
sg28
g35
sg30
I00
sbag1
(g19
g3
Ntp1900
Rp1901
(dp1902
g23
I01
sg24
Nsg26
g34
sg28
g35
sg30
I00
sbag1
(g19
g3
Ntp1903
Rp1904
(dp1905
g23
I01
sg24
Nsg26
g34
sg28
g35
sg30
I00
sbag1
(g19
g3
Ntp1906
Rp1907
(dp1908
g23
I00
sg24
g25
sg26
g27
sg28
g29
sg30
I01
sbag1
(g19
g3
Ntp1909
Rp1910
(dp1911
g23
I01
sg24
Nsg26
g34
sg28
g35
sg30
I00
sbag1
(g19
g3
Ntp1912
Rp1913
(dp1914
g23
I01
sg24
Nsg26
g34
sg28
g35
sg30
I00
sbag1
(g19
g3
Ntp1915
Rp1916
(dp1917
g23
I00
sg24
Nsg26
g66
sg28
g67
sg30
I00
sbaa(lp1918
g1
(g19
g3
Ntp1919
Rp1920
(dp1921
g23
I01
sg24
Nsg26
g34
sg28
g35
sg30
I00
sbag1
(g19
g3
Ntp1922
Rp1923
(dp1924
g23
I01
sg24
Nsg26
g34
sg28
g35
sg30
I00
sbag1
(g19
g3
Ntp1925
Rp1926
(dp1927
g23
I01
sg24
Nsg26
g34
sg28
g35
sg30
I00
sbag1
(g19
g3
Ntp1928
Rp1929
(dp1930
g23
I00
sg24
g25
sg26
g27
sg28
g29
sg30
I01
sbag1
(g19
g3
Ntp1931
Rp1932
(dp1933
g23
I01
sg24
Nsg26
g34
sg28
g35
sg30
I00
sbag1
(g19
g3
Ntp1934
Rp1935
(dp1936
g23
I01
sg24
Nsg26
g34
sg28
g35
sg30
I00
sbag1
(g19
g3
Ntp1937
Rp1938
(dp1939
g23
I00
sg24
g25
sg26
g27
sg28
g29
sg30
I01
sbag1
(g19
g3
Ntp1940
Rp1941
(dp1942
g23
I01
sg24
Nsg26
g34
sg28
g35
sg30
I00
sbag1
(g19
g3
Ntp1943
Rp1944
(dp1945
g23
I01
sg24
Nsg26
g34
sg28
g35
sg30
I00
sbag1
(g19
g3
Ntp1946
Rp1947
(dp1948
g23
I01
sg24
Nsg26
g34
sg28
g35
sg30
I00
sbag1
(g19
g3
Ntp1949
Rp1950
(dp1951
g23
I01
sg24
Nsg26
g34
sg28
g35
sg30
I00
sbag1
(g19
g3
Ntp1952
Rp1953
(dp1954
g23
I00
sg24
Nsg26
g66
sg28
g67
sg30
I00
sbaa(lp1955
g1
(g19
g3
Ntp1956
Rp1957
(dp1958
g23
I01
sg24
Nsg26
g34
sg28
g35
sg30
I00
sbag1
(g19
g3
Ntp1959
Rp1960
(dp1961
g23
I00
sg24
g25
sg26
g27
sg28
g29
sg30
I01
sbag1
(g19
g3
Ntp1962
Rp1963
(dp1964
g23
I01
sg24
Nsg26
g34
sg28
g35
sg30
I00
sbag1
(g19
g3
Ntp1965
Rp1966
(dp1967
g23
I01
sg24
Nsg26
g34
sg28
g35
sg30
I00
sbag1
(g19
g3
Ntp1968
Rp1969
(dp1970
g23
I01
sg24
Nsg26
g34
sg28
g35
sg30
I00
sbag1
(g19
g3
Ntp1971
Rp1972
(dp1973
g23
I01
sg24
Nsg26
g34
sg28
g35
sg30
I00
sbag1
(g19
g3
Ntp1974
Rp1975
(dp1976
g23
I01
sg24
Nsg26
g34
sg28
g35
sg30
I00
sbag1
(g19
g3
Ntp1977
Rp1978
(dp1979
g23
I01
sg24
Nsg26
g34
sg28
g35
sg30
I00
sbag1
(g19
g3
Ntp1980
Rp1981
(dp1982
g23
I01
sg24
Nsg26
g34
sg28
g35
sg30
I00
sbag1
(g19
g3
Ntp1983
Rp1984
(dp1985
g23
I01
sg24
Nsg26
g34
sg28
g35
sg30
I00
sbag1
(g19
g3
Ntp1986
Rp1987
(dp1988
g23
I01
sg24
Nsg26
g34
sg28
g35
sg30
I00
sbag1
(g19
g3
Ntp1989
Rp1990
(dp1991
g23
I00
sg24
Nsg26
g66
sg28
g67
sg30
I00
sbaa(lp1992
g1
(g19
g3
Ntp1993
Rp1994
(dp1995
g23
I01
sg24
Nsg26
g34
sg28
g35
sg30
I00
sbag1
(g19
g3
Ntp1996
Rp1997
(dp1998
g23
I01
sg24
Nsg26
g34
sg28
g35
sg30
I00
sbag1
(g19
g3
Ntp1999
Rp2000
(dp2001
g23
I01
sg24
Nsg26
g34
sg28
g35
sg30
I00
sbag1
(g19
g3
Ntp2002
Rp2003
(dp2004
g23
I01
sg24
Nsg26
g34
sg28
g35
sg30
I00
sbag1
(g19
g3
Ntp2005
Rp2006
(dp2007
g23
I00
sg24
g25
sg26
g27
sg28
g29
sg30
I01
sbag1
(g19
g3
Ntp2008
Rp2009
(dp2010
g23
I01
sg24
Nsg26
g34
sg28
g35
sg30
I00
sbag1
(g19
g3
Ntp2011
Rp2012
(dp2013
g23
I00
sg24
g25
sg26
g27
sg28
g29
sg30
I01
sbag1
(g19
g3
Ntp2014
Rp2015
(dp2016
g23
I01
sg24
Nsg26
g34
sg28
g35
sg30
I00
sbag1
(g19
g3
Ntp2017
Rp2018
(dp2019
g23
I01
sg24
Nsg26
g34
sg28
g35
sg30
I00
sbag1
(g19
g3
Ntp2020
Rp2021
(dp2022
g23
I00
sg24
g25
sg26
g27
sg28
g29
sg30
I01
sbag1
(g19
g3
Ntp2023
Rp2024
(dp2025
g23
I01
sg24
Nsg26
g34
sg28
g35
sg30
I00
sbag1
(g19
g3
Ntp2026
Rp2027
(dp2028
g23
I00
sg24
Nsg26
g66
sg28
g67
sg30
I00
sbaa(lp2029
g1
(g19
g3
Ntp2030
Rp2031
(dp2032
g23
I00
sg24
g25
sg26
g27
sg28
g29
sg30
I01
sbag1
(g19
g3
Ntp2033
Rp2034
(dp2035
g23
I01
sg24
Nsg26
g34
sg28
g35
sg30
I00
sbag1
(g19
g3
Ntp2036
Rp2037
(dp2038
g23
I01
sg24
Nsg26
g34
sg28
g35
sg30
I00
sbag1
(g19
g3
Ntp2039
Rp2040
(dp2041
g23
I01
sg24
Nsg26
g34
sg28
g35
sg30
I00
sbag1
(g19
g3
Ntp2042
Rp2043
(dp2044
g23
I01
sg24
Nsg26
g34
sg28
g35
sg30
I00
sbag1
(g19
g3
Ntp2045
Rp2046
(dp2047
g23
I01
sg24
Nsg26
g34
sg28
g35
sg30
I00
sbag1
(g19
g3
Ntp2048
Rp2049
(dp2050
g23
I01
sg24
Nsg26
g34
sg28
g35
sg30
I00
sbag1
(g19
g3
Ntp2051
Rp2052
(dp2053
g23
I01
sg24
Nsg26
g34
sg28
g35
sg30
I00
sbag1
(g19
g3
Ntp2054
Rp2055
(dp2056
g23
I01
sg24
Nsg26
g34
sg28
g35
sg30
I00
sbag1
(g19
g3
Ntp2057
Rp2058
(dp2059
g23
I01
sg24
Nsg26
g34
sg28
g35
sg30
I00
sbag1
(g19
g3
Ntp2060
Rp2061
(dp2062
g23
I01
sg24
Nsg26
g34
sg28
g35
sg30
I00
sbag1
(g19
g3
Ntp2063
Rp2064
(dp2065
g23
I00
sg24
Nsg26
g66
sg28
g67
sg30
I00
sbaa(lp2066
g1
(g19
g3
Ntp2067
Rp2068
(dp2069
g23
I01
sg24
Nsg26
g34
sg28
g35
sg30
I00
sbag1
(g19
g3
Ntp2070
Rp2071
(dp2072
g23
I01
sg24
Nsg26
g34
sg28
g35
sg30
I00
sbag1
(g19
g3
Ntp2073
Rp2074
(dp2075
g23
I01
sg24
Nsg26
g34
sg28
g35
sg30
I00
sbag1
(g19
g3
Ntp2076
Rp2077
(dp2078
g23
I00
sg24
g25
sg26
g27
sg28
g29
sg30
I01
sbag1
(g19
g3
Ntp2079
Rp2080
(dp2081
g23
I01
sg24
Nsg26
g34
sg28
g35
sg30
I00
sbag1
(g19
g3
Ntp2082
Rp2083
(dp2084
g23
I01
sg24
Nsg26
g34
sg28
g35
sg30
I00
sbag1
(g19
g3
Ntp2085
Rp2086
(dp2087
g23
I01
sg24
Nsg26
g34
sg28
g35
sg30
I00
sbag1
(g19
g3
Ntp2088
Rp2089
(dp2090
g23
I01
sg24
Nsg26
g34
sg28
g35
sg30
I00
sbag1
(g19
g3
Ntp2091
Rp2092
(dp2093
g23
I00
sg24
g25
sg26
g27
sg28
g29
sg30
I01
sbag1
(g19
g3
Ntp2094
Rp2095
(dp2096
g23
I01
sg24
Nsg26
g34
sg28
g35
sg30
I00
sbag1
(g19
g3
Ntp2097
Rp2098
(dp2099
g23
I01
sg24
Nsg26
g34
sg28
g35
sg30
I00
sbag1
(g19
g3
Ntp2100
Rp2101
(dp2102
g23
I00
sg24
Nsg26
g66
sg28
g67
sg30
I00
sbaa(lp2103
g1
(g19
g3
Ntp2104
Rp2105
(dp2106
g23
I01
sg24
Nsg26
g34
sg28
g35
sg30
I00
sbag1
(g19
g3
Ntp2107
Rp2108
(dp2109
g23
I01
sg24
Nsg26
g34
sg28
g35
sg30
I00
sbag1
(g19
g3
Ntp2110
Rp2111
(dp2112
g23
I01
sg24
Nsg26
g34
sg28
g35
sg30
I00
sbag1
(g19
g3
Ntp2113
Rp2114
(dp2115
g23
I01
sg24
Nsg26
g34
sg28
g35
sg30
I00
sbag1
(g19
g3
Ntp2116
Rp2117
(dp2118
g23
I01
sg24
Nsg26
g34
sg28
g35
sg30
I00
sbag1
(g19
g3
Ntp2119
Rp2120
(dp2121
g23
I00
sg24
g25
sg26
g27
sg28
g29
sg30
I01
sbag1
(g19
g3
Ntp2122
Rp2123
(dp2124
g23
I01
sg24
Nsg26
g34
sg28
g35
sg30
I00
sbag1
(g19
g3
Ntp2125
Rp2126
(dp2127
g23
I01
sg24
Nsg26
g34
sg28
g35
sg30
I00
sbag1
(g19
g3
Ntp2128
Rp2129
(dp2130
g23
I01
sg24
Nsg26
g34
sg28
g35
sg30
I00
sbag1
(g19
g3
Ntp2131
Rp2132
(dp2133
g23
I01
sg24
Nsg26
g34
sg28
g35
sg30
I00
sbag1
(g19
g3
Ntp2134
Rp2135
(dp2136
g23
I01
sg24
Nsg26
g34
sg28
g35
sg30
I00
sbag1
(g19
g3
Ntp2137
Rp2138
(dp2139
g23
I00
sg24
Nsg26
g66
sg28
g67
sg30
I00
sbaa(lp2140
g1
(g19
g3
Ntp2141
Rp2142
(dp2143
g23
I01
sg24
Nsg26
g34
sg28
g35
sg30
I00
sbag1
(g19
g3
Ntp2144
Rp2145
(dp2146
g23
I00
sg24
g25
sg26
g27
sg28
g29
sg30
I01
sbag1
(g19
g3
Ntp2147
Rp2148
(dp2149
g23
I01
sg24
Nsg26
g34
sg28
g35
sg30
I00
sbag1
(g19
g3
Ntp2150
Rp2151
(dp2152
g23
I01
sg24
Nsg26
g34
sg28
g35
sg30
I00
sbag1
(g19
g3
Ntp2153
Rp2154
(dp2155
g23
I01
sg24
Nsg26
g34
sg28
g35
sg30
I00
sbag1
(g19
g3
Ntp2156
Rp2157
(dp2158
g23
I01
sg24
Nsg26
g34
sg28
g35
sg30
I00
sbag1
(g19
g3
Ntp2159
Rp2160
(dp2161
g23
I01
sg24
Nsg26
g34
sg28
g35
sg30
I00
sbag1
(g19
g3
Ntp2162
Rp2163
(dp2164
g23
I00
sg24
g25
sg26
g27
sg28
g29
sg30
I01
sbag1
(g19
g3
Ntp2165
Rp2166
(dp2167
g23
I01
sg24
Nsg26
g34
sg28
g35
sg30
I00
sbag1
(g19
g3
Ntp2168
Rp2169
(dp2170
g23
I00
sg24
g25
sg26
g27
sg28
g29
sg30
I01
sbag1
(g19
g3
Ntp2171
Rp2172
(dp2173
g23
I01
sg24
Nsg26
g34
sg28
g35
sg30
I00
sbag1
(g19
g3
Ntp2174
Rp2175
(dp2176
g23
I00
sg24
Nsg26
g66
sg28
g67
sg30
I00
sbaa(lp2177
g1
(g19
g3
Ntp2178
Rp2179
(dp2180
g23
I01
sg24
Nsg26
g34
sg28
g35
sg30
I00
sbag1
(g19
g3
Ntp2181
Rp2182
(dp2183
g23
I01
sg24
Nsg26
g34
sg28
g35
sg30
I00
sbag1
(g19
g3
Ntp2184
Rp2185
(dp2186
g23
I01
sg24
Nsg26
g34
sg28
g35
sg30
I00
sbag1
(g19
g3
Ntp2187
Rp2188
(dp2189
g23
I01
sg24
Nsg26
g34
sg28
g35
sg30
I00
sbag1
(g19
g3
Ntp2190
Rp2191
(dp2192
g23
I00
sg24
g25
sg26
g27
sg28
g29
sg30
I01
sbag1
(g19
g3
Ntp2193
Rp2194
(dp2195
g23
I01
sg24
Nsg26
g34
sg28
g35
sg30
I00
sbag1
(g19
g3
Ntp2196
Rp2197
(dp2198
g23
I01
sg24
Nsg26
g34
sg28
g35
sg30
I00
sbag1
(g19
g3
Ntp2199
Rp2200
(dp2201
g23
I01
sg24
Nsg26
g34
sg28
g35
sg30
I00
sbag1
(g19
g3
Ntp2202
Rp2203
(dp2204
g23
I01
sg24
Nsg26
g34
sg28
g35
sg30
I00
sbag1
(g19
g3
Ntp2205
Rp2206
(dp2207
g23
I01
sg24
Nsg26
g34
sg28
g35
sg30
I00
sbag1
(g19
g3
Ntp2208
Rp2209
(dp2210
g23
I01
sg24
Nsg26
g34
sg28
g35
sg30
I00
sbag1
(g19
g3
Ntp2211
Rp2212
(dp2213
g23
I00
sg24
Nsg26
g66
sg28
g67
sg30
I00
sbaa(lp2214
g1
(g19
g3
Ntp2215
Rp2216
(dp2217
g23
I00
sg24
g25
sg26
g27
sg28
g29
sg30
I01
sbag1
(g19
g3
Ntp2218
Rp2219
(dp2220
g23
I01
sg24
Nsg26
g34
sg28
g35
sg30
I00
sbag1
(g19
g3
Ntp2221
Rp2222
(dp2223
g23
I00
sg24
g25
sg26
g27
sg28
g29
sg30
I01
sbag1
(g19
g3
Ntp2224
Rp2225
(dp2226
g23
I01
sg24
Nsg26
g34
sg28
g35
sg30
I00
sbag1
(g19
g3
Ntp2227
Rp2228
(dp2229
g23
I01
sg24
Nsg26
g34
sg28
g35
sg30
I00
sbag1
(g19
g3
Ntp2230
Rp2231
(dp2232
g23
I01
sg24
Nsg26
g34
sg28
g35
sg30
I00
sbag1
(g19
g3
Ntp2233
Rp2234
(dp2235
g23
I01
sg24
Nsg26
g34
sg28
g35
sg30
I00
sbag1
(g19
g3
Ntp2236
Rp2237
(dp2238
g23
I01
sg24
Nsg26
g34
sg28
g35
sg30
I00
sbag1
(g19
g3
Ntp2239
Rp2240
(dp2241
g23
I00
sg24
g25
sg26
g27
sg28
g29
sg30
I01
sbag1
(g19
g3
Ntp2242
Rp2243
(dp2244
g23
I01
sg24
Nsg26
g34
sg28
g35
sg30
I00
sbag1
(g19
g3
Ntp2245
Rp2246
(dp2247
g23
I00
sg24
g25
sg26
g27
sg28
g29
sg30
I01
sbag1
(g19
g3
Ntp2248
Rp2249
(dp2250
g23
I00
sg24
Nsg26
g66
sg28
g67
sg30
I00
sbaa(lp2251
g1
(g19
g3
Ntp2252
Rp2253
(dp2254
g23
I00
sg24
Nsg26
g66
sg28
g67
sg30
I00
sbag1
(g19
g3
Ntp2255
Rp2256
(dp2257
g23
I00
sg24
Nsg26
g66
sg28
g67
sg30
I00
sbag1
(g19
g3
Ntp2258
Rp2259
(dp2260
g23
I00
sg24
Nsg26
g66
sg28
g67
sg30
I00
sbag1
(g19
g3
Ntp2261
Rp2262
(dp2263
g23
I00
sg24
Nsg26
g66
sg28
g67
sg30
I00
sbag1
(g19
g3
Ntp2264
Rp2265
(dp2266
g23
I00
sg24
Nsg26
g66
sg28
g67
sg30
I00
sbag1
(g19
g3
Ntp2267
Rp2268
(dp2269
g23
I00
sg24
Nsg26
g66
sg28
g67
sg30
I00
sbag1
(g19
g3
Ntp2270
Rp2271
(dp2272
g23
I00
sg24
Nsg26
g66
sg28
g67
sg30
I00
sbag1
(g19
g3
Ntp2273
Rp2274
(dp2275
g23
I00
sg24
Nsg26
g66
sg28
g67
sg30
I00
sbag1
(g19
g3
Ntp2276
Rp2277
(dp2278
g23
I00
sg24
Nsg26
g66
sg28
g67
sg30
I00
sbag1
(g19
g3
Ntp2279
Rp2280
(dp2281
g23
I00
sg24
Nsg26
g66
sg28
g67
sg30
I00
sbag1
(g19
g3
Ntp2282
Rp2283
(dp2284
g23
I00
sg24
Nsg26
g66
sg28
g67
sg30
I00
sbag1
(g19
g3
Ntp2285
Rp2286
(dp2287
g23
I00
sg24
Nsg26
g66
sg28
g67
sg30
I00
sbaasg475
(I-1
I-1
tp2288
sbs(I0
I-1
tp2289
g1
(g12
g3
Ntp2290
Rp2291
(dp2292
g16
(lp2293
(lp2294
g1
(g19
g3
Ntp2295
Rp2296
(dp2297
g23
I00
sg24
g25
sg26
g27
sg28
g29
sg30
I01
sbag1
(g19
g3
Ntp2298
Rp2299
(dp2300
g23
I01
sg24
Nsg26
g34
sg28
g35
sg30
I00
sbag1
(g19
g3
Ntp2301
Rp2302
(dp2303
g23
I01
sg24
Nsg26
g34
sg28
g35
sg30
I00
sbag1
(g19
g3
Ntp2304
Rp2305
(dp2306
g23
I00
sg24
g25
sg26
g27
sg28
g29
sg30
I01
sbag1
(g19
g3
Ntp2307
Rp2308
(dp2309
g23
I01
sg24
Nsg26
g34
sg28
g35
sg30
I00
sbag1
(g19
g3
Ntp2310
Rp2311
(dp2312
g23
I00
sg24
g25
sg26
g27
sg28
g29
sg30
I01
sbag1
(g19
g3
Ntp2313
Rp2314
(dp2315
g23
I01
sg24
Nsg26
g34
sg28
g35
sg30
I00
sbag1
(g19
g3
Ntp2316
Rp2317
(dp2318
g23
I01
sg24
Nsg26
g34
sg28
g35
sg30
I00
sbag1
(g19
g3
Ntp2319
Rp2320
(dp2321
g23
I00
sg24
g25
sg26
g27
sg28
g29
sg30
I01
sbag1
(g19
g3
Ntp2322
Rp2323
(dp2324
g23
I01
sg24
Nsg26
g34
sg28
g35
sg30
I00
sbag1
(g19
g3
Ntp2325
Rp2326
(dp2327
g23
I01
sg24
Nsg26
g34
sg28
g35
sg30
I00
sbag1
(g19
g3
Ntp2328
Rp2329
(dp2330
g23
I00
sg24
Nsg26
g66
sg28
g67
sg30
I00
sbaa(lp2331
g1
(g19
g3
Ntp2332
Rp2333
(dp2334
g23
I01
sg24
Nsg26
g34
sg28
g35
sg30
I00
sbag1
(g19
g3
Ntp2335
Rp2336
(dp2337
g23
I01
sg24
Nsg26
g34
sg28
g35
sg30
I00
sbag1
(g19
g3
Ntp2338
Rp2339
(dp2340
g23
I01
sg24
Nsg26
g34
sg28
g35
sg30
I00
sbag1
(g19
g3
Ntp2341
Rp2342
(dp2343
g23
I01
sg24
Nsg26
g34
sg28
g35
sg30
I00
sbag1
(g19
g3
Ntp2344
Rp2345
(dp2346
g23
I01
sg24
Nsg26
g34
sg28
g35
sg30
I00
sbag1
(g19
g3
Ntp2347
Rp2348
(dp2349
g23
I01
sg24
Nsg26
g34
sg28
g35
sg30
I00
sbag1
(g19
g3
Ntp2350
Rp2351
(dp2352
g23
I01
sg24
Nsg26
g34
sg28
g35
sg30
I00
sbag1
(g19
g3
Ntp2353
Rp2354
(dp2355
g23
I01
sg24
Nsg26
g34
sg28
g35
sg30
I00
sbag1
(g19
g3
Ntp2356
Rp2357
(dp2358
g23
I01
sg24
Nsg26
g34
sg28
g35
sg30
I00
sbag1
(g19
g3
Ntp2359
Rp2360
(dp2361
g23
I01
sg24
Nsg26
g34
sg28
g35
sg30
I00
sbag1
(g19
g3
Ntp2362
Rp2363
(dp2364
g23
I00
sg24
g25
sg26
g27
sg28
g29
sg30
I01
sbag1
(g19
g3
Ntp2365
Rp2366
(dp2367
g23
I00
sg24
Nsg26
g66
sg28
g67
sg30
I00
sbaa(lp2368
g1
(g19
g3
Ntp2369
Rp2370
(dp2371
g23
I01
sg24
Nsg26
g34
sg28
g35
sg30
I00
sbag1
(g19
g3
Ntp2372
Rp2373
(dp2374
g23
I01
sg24
Nsg26
g34
sg28
g35
sg30
I00
sbag1
(g19
g3
Ntp2375
Rp2376
(dp2377
g23
I01
sg24
Nsg26
g34
sg28
g35
sg30
I00
sbag1
(g19
g3
Ntp2378
Rp2379
(dp2380
g23
I00
sg24
g25
sg26
g27
sg28
g29
sg30
I01
sbag1
(g19
g3
Ntp2381
Rp2382
(dp2383
g23
I01
sg24
Nsg26
g34
sg28
g35
sg30
I00
sbag1
(g19
g3
Ntp2384
Rp2385
(dp2386
g23
I01
sg24
Nsg26
g34
sg28
g35
sg30
I00
sbag1
(g19
g3
Ntp2387
Rp2388
(dp2389
g23
I00
sg24
g25
sg26
g27
sg28
g29
sg30
I01
sbag1
(g19
g3
Ntp2390
Rp2391
(dp2392
g23
I01
sg24
Nsg26
g34
sg28
g35
sg30
I00
sbag1
(g19
g3
Ntp2393
Rp2394
(dp2395
g23
I01
sg24
Nsg26
g34
sg28
g35
sg30
I00
sbag1
(g19
g3
Ntp2396
Rp2397
(dp2398
g23
I01
sg24
Nsg26
g34
sg28
g35
sg30
I00
sbag1
(g19
g3
Ntp2399
Rp2400
(dp2401
g23
I01
sg24
Nsg26
g34
sg28
g35
sg30
I00
sbag1
(g19
g3
Ntp2402
Rp2403
(dp2404
g23
I00
sg24
Nsg26
g66
sg28
g67
sg30
I00
sbaa(lp2405
g1
(g19
g3
Ntp2406
Rp2407
(dp2408
g23
I00
sg24
g25
sg26
g27
sg28
g29
sg30
I01
sbag1
(g19
g3
Ntp2409
Rp2410
(dp2411
g23
I01
sg24
Nsg26
g34
sg28
g35
sg30
I00
sbag1
(g19
g3
Ntp2412
Rp2413
(dp2414
g23
I01
sg24
Nsg26
g34
sg28
g35
sg30
I00
sbag1
(g19
g3
Ntp2415
Rp2416
(dp2417
g23
I01
sg24
Nsg26
g34
sg28
g35
sg30
I00
sbag1
(g19
g3
Ntp2418
Rp2419
(dp2420
g23
I01
sg24
Nsg26
g34
sg28
g35
sg30
I00
sbag1
(g19
g3
Ntp2421
Rp2422
(dp2423
g23
I01
sg24
Nsg26
g34
sg28
g35
sg30
I00
sbag1
(g19
g3
Ntp2424
Rp2425
(dp2426
g23
I01
sg24
Nsg26
g34
sg28
g35
sg30
I00
sbag1
(g19
g3
Ntp2427
Rp2428
(dp2429
g23
I01
sg24
Nsg26
g34
sg28
g35
sg30
I00
sbag1
(g19
g3
Ntp2430
Rp2431
(dp2432
g23
I00
sg24
g25
sg26
g27
sg28
g29
sg30
I01
sbag1
(g19
g3
Ntp2433
Rp2434
(dp2435
g23
I01
sg24
Nsg26
g34
sg28
g35
sg30
I00
sbag1
(g19
g3
Ntp2436
Rp2437
(dp2438
g23
I01
sg24
Nsg26
g34
sg28
g35
sg30
I00
sbag1
(g19
g3
Ntp2439
Rp2440
(dp2441
g23
I00
sg24
Nsg26
g66
sg28
g67
sg30
I00
sbaa(lp2442
g1
(g19
g3
Ntp2443
Rp2444
(dp2445
g23
I01
sg24
Nsg26
g34
sg28
g35
sg30
I00
sbag1
(g19
g3
Ntp2446
Rp2447
(dp2448
g23
I01
sg24
Nsg26
g34
sg28
g35
sg30
I00
sbag1
(g19
g3
Ntp2449
Rp2450
(dp2451
g23
I01
sg24
Nsg26
g34
sg28
g35
sg30
I00
sbag1
(g19
g3
Ntp2452
Rp2453
(dp2454
g23
I01
sg24
Nsg26
g34
sg28
g35
sg30
I00
sbag1
(g19
g3
Ntp2455
Rp2456
(dp2457
g23
I00
sg24
g25
sg26
g27
sg28
g29
sg30
I01
sbag1
(g19
g3
Ntp2458
Rp2459
(dp2460
g23
I01
sg24
Nsg26
g34
sg28
g35
sg30
I00
sbag1
(g19
g3
Ntp2461
Rp2462
(dp2463
g23
I01
sg24
Nsg26
g34
sg28
g35
sg30
I00
sbag1
(g19
g3
Ntp2464
Rp2465
(dp2466
g23
I00
sg24
g25
sg26
g27
sg28
g29
sg30
I01
sbag1
(g19
g3
Ntp2467
Rp2468
(dp2469
g23
I01
sg24
Nsg26
g34
sg28
g35
sg30
I00
sbag1
(g19
g3
Ntp2470
Rp2471
(dp2472
g23
I01
sg24
Nsg26
g34
sg28
g35
sg30
I00
sbag1
(g19
g3
Ntp2473
Rp2474
(dp2475
g23
I01
sg24
Nsg26
g34
sg28
g35
sg30
I00
sbag1
(g19
g3
Ntp2476
Rp2477
(dp2478
g23
I00
sg24
Nsg26
g66
sg28
g67
sg30
I00
sbaa(lp2479
g1
(g19
g3
Ntp2480
Rp2481
(dp2482
g23
I01
sg24
Nsg26
g34
sg28
g35
sg30
I00
sbag1
(g19
g3
Ntp2483
Rp2484
(dp2485
g23
I01
sg24
Nsg26
g34
sg28
g35
sg30
I00
sbag1
(g19
g3
Ntp2486
Rp2487
(dp2488
g23
I01
sg24
Nsg26
g34
sg28
g35
sg30
I00
sbag1
(g19
g3
Ntp2489
Rp2490
(dp2491
g23
I01
sg24
Nsg26
g34
sg28
g35
sg30
I00
sbag1
(g19
g3
Ntp2492
Rp2493
(dp2494
g23
I01
sg24
Nsg26
g34
sg28
g35
sg30
I00
sbag1
(g19
g3
Ntp2495
Rp2496
(dp2497
g23
I01
sg24
Nsg26
g34
sg28
g35
sg30
I00
sbag1
(g19
g3
Ntp2498
Rp2499
(dp2500
g23
I01
sg24
Nsg26
g34
sg28
g35
sg30
I00
sbag1
(g19
g3
Ntp2501
Rp2502
(dp2503
g23
I00
sg24
g25
sg26
g27
sg28
g29
sg30
I01
sbag1
(g19
g3
Ntp2504
Rp2505
(dp2506
g23
I00
sg24
Nsg26
g995
sg28
g996
sg30
I00
sbag1
(g19
g3
Ntp2507
Rp2508
(dp2509
g23
I01
sg24
Nsg26
g34
sg28
g35
sg30
I00
sbag1
(g19
g3
Ntp2510
Rp2511
(dp2512
g23
I00
sg24
g25
sg26
g27
sg28
g29
sg30
I01
sbag1
(g19
g3
Ntp2513
Rp2514
(dp2515
g23
I00
sg24
Nsg26
g66
sg28
g67
sg30
I00
sbaa(lp2516
g1
(g19
g3
Ntp2517
Rp2518
(dp2519
g23
I01
sg24
Nsg26
g34
sg28
g35
sg30
I00
sbag1
(g19
g3
Ntp2520
Rp2521
(dp2522
g23
I01
sg24
Nsg26
g34
sg28
g35
sg30
I00
sbag1
(g19
g3
Ntp2523
Rp2524
(dp2525
g23
I01
sg24
Nsg26
g34
sg28
g35
sg30
I00
sbag1
(g19
g3
Ntp2526
Rp2527
(dp2528
g23
I01
sg24
Nsg26
g34
sg28
g35
sg30
I00
sbag1
(g19
g3
Ntp2529
Rp2530
(dp2531
g23
I00
sg24
g25
sg26
g27
sg28
g29
sg30
I01
sbag1
(g19
g3
Ntp2532
Rp2533
(dp2534
g23
I01
sg24
Nsg26
g34
sg28
g35
sg30
I00
sbag1
(g19
g3
Ntp2535
Rp2536
(dp2537
g23
I01
sg24
Nsg26
g34
sg28
g35
sg30
I00
sbag1
(g19
g3
Ntp2538
Rp2539
(dp2540
g23
I01
sg24
Nsg26
g34
sg28
g35
sg30
I00
sbag1
(g19
g3
Ntp2541
Rp2542
(dp2543
g23
I00
sg24
Nsg26
g995
sg28
g996
sg30
I00
sbag1
(g19
g3
Ntp2544
Rp2545
(dp2546
g23
I00
sg24
g25
sg26
g27
sg28
g29
sg30
I01
sbag1
(g19
g3
Ntp2547
Rp2548
(dp2549
g23
I01
sg24
Nsg26
g34
sg28
g35
sg30
I00
sbag1
(g19
g3
Ntp2550
Rp2551
(dp2552
g23
I00
sg24
Nsg26
g66
sg28
g67
sg30
I00
sbaa(lp2553
g1
(g19
g3
Ntp2554
Rp2555
(dp2556
g23
I00
sg24
g25
sg26
g27
sg28
g29
sg30
I01
sbag1
(g19
g3
Ntp2557
Rp2558
(dp2559
g23
I01
sg24
Nsg26
g34
sg28
g35
sg30
I00
sbag1
(g19
g3
Ntp2560
Rp2561
(dp2562
g23
I00
sg24
g25
sg26
g27
sg28
g29
sg30
I01
sbag1
(g19
g3
Ntp2563
Rp2564
(dp2565
g23
I01
sg24
Nsg26
g34
sg28
g35
sg30
I00
sbag1
(g19
g3
Ntp2566
Rp2567
(dp2568
g23
I01
sg24
Nsg26
g34
sg28
g35
sg30
I00
sbag1
(g19
g3
Ntp2569
Rp2570
(dp2571
g23
I01
sg24
Nsg26
g34
sg28
g35
sg30
I00
sbag1
(g19
g3
Ntp2572
Rp2573
(dp2574
g23
I01
sg24
Nsg26
g34
sg28
g35
sg30
I00
sbag1
(g19
g3
Ntp2575
Rp2576
(dp2577
g23
I01
sg24
Nsg26
g34
sg28
g35
sg30
I00
sbag1
(g19
g3
Ntp2578
Rp2579
(dp2580
g23
I00
sg24
g25
sg26
g27
sg28
g29
sg30
I01
sbag1
(g19
g3
Ntp2581
Rp2582
(dp2583
g23
I00
sg24
Nsg26
g995
sg28
g996
sg30
I00
sbag1
(g19
g3
Ntp2584
Rp2585
(dp2586
g23
I01
sg24
Nsg26
g34
sg28
g35
sg30
I00
sbag1
(g19
g3
Ntp2587
Rp2588
(dp2589
g23
I00
sg24
Nsg26
g66
sg28
g67
sg30
I00
sbaa(lp2590
g1
(g19
g3
Ntp2591
Rp2592
(dp2593
g23
I01
sg24
Nsg26
g34
sg28
g35
sg30
I00
sbag1
(g19
g3
Ntp2594
Rp2595
(dp2596
g23
I01
sg24
Nsg26
g34
sg28
g35
sg30
I00
sbag1
(g19
g3
Ntp2597
Rp2598
(dp2599
g23
I01
sg24
Nsg26
g34
sg28
g35
sg30
I00
sbag1
(g19
g3
Ntp2600
Rp2601
(dp2602
g23
I01
sg24
Nsg26
g34
sg28
g35
sg30
I00
sbag1
(g19
g3
Ntp2603
Rp2604
(dp2605
g23
I00
sg24
g25
sg26
g27
sg28
g29
sg30
I01
sbag1
(g19
g3
Ntp2606
Rp2607
(dp2608
g23
I01
sg24
Nsg26
g34
sg28
g35
sg30
I00
sbag1
(g19
g3
Ntp2609
Rp2610
(dp2611
g23
I00
sg24
g25
sg26
g27
sg28
g29
sg30
I01
sbag1
(g19
g3
Ntp2612
Rp2613
(dp2614
g23
I01
sg24
Nsg26
g34
sg28
g35
sg30
I00
sbag1
(g19
g3
Ntp2615
Rp2616
(dp2617
g23
I00
sg24
Nsg26
g995
sg28
g996
sg30
I00
sbag1
(g19
g3
Ntp2618
Rp2619
(dp2620
g23
I01
sg24
Nsg26
g34
sg28
g35
sg30
I00
sbag1
(g19
g3
Ntp2621
Rp2622
(dp2623
g23
I00
sg24
Nsg26
g995
sg28
g996
sg30
I00
sbag1
(g19
g3
Ntp2624
Rp2625
(dp2626
g23
I00
sg24
Nsg26
g66
sg28
g67
sg30
I00
sbaa(lp2627
g1
(g19
g3
Ntp2628
Rp2629
(dp2630
g23
I00
sg24
g25
sg26
g27
sg28
g29
sg30
I01
sbag1
(g19
g3
Ntp2631
Rp2632
(dp2633
g23
I01
sg24
Nsg26
g34
sg28
g35
sg30
I00
sbag1
(g19
g3
Ntp2634
Rp2635
(dp2636
g23
I01
sg24
Nsg26
g34
sg28
g35
sg30
I00
sbag1
(g19
g3
Ntp2637
Rp2638
(dp2639
g23
I01
sg24
Nsg26
g34
sg28
g35
sg30
I00
sbag1
(g19
g3
Ntp2640
Rp2641
(dp2642
g23
I01
sg24
Nsg26
g34
sg28
g35
sg30
I00
sbag1
(g19
g3
Ntp2643
Rp2644
(dp2645
g23
I01
sg24
Nsg26
g34
sg28
g35
sg30
I00
sbag1
(g19
g3
Ntp2646
Rp2647
(dp2648
g23
I01
sg24
Nsg26
g34
sg28
g35
sg30
I00
sbag1
(g19
g3
Ntp2649
Rp2650
(dp2651
g23
I01
sg24
Nsg26
g34
sg28
g35
sg30
I00
sbag1
(g19
g3
Ntp2652
Rp2653
(dp2654
g23
I01
sg24
Nsg26
g34
sg28
g35
sg30
I00
sbag1
(g19
g3
Ntp2655
Rp2656
(dp2657
g23
I00
sg24
g25
sg26
g27
sg28
g29
sg30
I01
sbag1
(g19
g3
Ntp2658
Rp2659
(dp2660
g23
I00
sg24
g25
sg26
g27
sg28
g29
sg30
I01
sbag1
(g19
g3
Ntp2661
Rp2662
(dp2663
g23
I00
sg24
Nsg26
g66
sg28
g67
sg30
I00
sbaa(lp2664
g1
(g19
g3
Ntp2665
Rp2666
(dp2667
g23
I01
sg24
Nsg26
g34
sg28
g35
sg30
I00
sbag1
(g19
g3
Ntp2668
Rp2669
(dp2670
g23
I01
sg24
Nsg26
g34
sg28
g35
sg30
I00
sbag1
(g19
g3
Ntp2671
Rp2672
(dp2673
g23
I00
sg24
g25
sg26
g27
sg28
g29
sg30
I01
sbag1
(g19
g3
Ntp2674
Rp2675
(dp2676
g23
I01
sg24
Nsg26
g34
sg28
g35
sg30
I00
sbag1
(g19
g3
Ntp2677
Rp2678
(dp2679
g23
I00
sg24
g25
sg26
g27
sg28
g29
sg30
I01
sbag1
(g19
g3
Ntp2680
Rp2681
(dp2682
g23
I01
sg24
Nsg26
g34
sg28
g35
sg30
I00
sbag1
(g19
g3
Ntp2683
Rp2684
(dp2685
g23
I01
sg24
Nsg26
g34
sg28
g35
sg30
I00
sbag1
(g19
g3
Ntp2686
Rp2687
(dp2688
g23
I00
sg24
g25
sg26
g27
sg28
g29
sg30
I01
sbag1
(g19
g3
Ntp2689
Rp2690
(dp2691
g23
I01
sg24
Nsg26
g34
sg28
g35
sg30
I00
sbag1
(g19
g3
Ntp2692
Rp2693
(dp2694
g23
I01
sg24
Nsg26
g34
sg28
g35
sg30
I00
sbag1
(g19
g3
Ntp2695
Rp2696
(dp2697
g23
I01
sg24
Nsg26
g34
sg28
g35
sg30
I00
sbag1
(g19
g3
Ntp2698
Rp2699
(dp2700
g23
I00
sg24
Nsg26
g66
sg28
g67
sg30
I00
sbaa(lp2701
g1
(g19
g3
Ntp2702
Rp2703
(dp2704
g23
I00
sg24
Nsg26
g66
sg28
g67
sg30
I00
sbag1
(g19
g3
Ntp2705
Rp2706
(dp2707
g23
I00
sg24
Nsg26
g66
sg28
g67
sg30
I00
sbag1
(g19
g3
Ntp2708
Rp2709
(dp2710
g23
I00
sg24
Nsg26
g66
sg28
g67
sg30
I00
sbag1
(g19
g3
Ntp2711
Rp2712
(dp2713
g23
I00
sg24
Nsg26
g66
sg28
g67
sg30
I00
sbag1
(g19
g3
Ntp2714
Rp2715
(dp2716
g23
I00
sg24
Nsg26
g66
sg28
g67
sg30
I00
sbag1
(g19
g3
Ntp2717
Rp2718
(dp2719
g23
I00
sg24
Nsg26
g66
sg28
g67
sg30
I00
sbag1
(g19
g3
Ntp2720
Rp2721
(dp2722
g23
I00
sg24
Nsg26
g66
sg28
g67
sg30
I00
sbag1
(g19
g3
Ntp2723
Rp2724
(dp2725
g23
I00
sg24
Nsg26
g66
sg28
g67
sg30
I00
sbag1
(g19
g3
Ntp2726
Rp2727
(dp2728
g23
I00
sg24
Nsg26
g66
sg28
g67
sg30
I00
sbag1
(g19
g3
Ntp2729
Rp2730
(dp2731
g23
I00
sg24
Nsg26
g66
sg28
g67
sg30
I00
sbag1
(g19
g3
Ntp2732
Rp2733
(dp2734
g23
I00
sg24
Nsg26
g66
sg28
g67
sg30
I00
sbag1
(g19
g3
Ntp2735
Rp2736
(dp2737
g23
I00
sg24
Nsg26
g66
sg28
g67
sg30
I00
sbaasg475
(I0
I-1
tp2738
sbs(I1
I0
tp2739
g1
(g12
g3
Ntp2740
Rp2741
(dp2742
g16
(lp2743
(lp2744
g1
(g19
g3
Ntp2745
Rp2746
(dp2747
g23
I00
sg24
g25
sg26
g27
sg28
g29
sg30
I01
sbag1
(g19
g3
Ntp2748
Rp2749
(dp2750
g23
I01
sg24
Nsg26
g34
sg28
g35
sg30
I00
sbag1
(g19
g3
Ntp2751
Rp2752
(dp2753
g23
I00
sg24
g25
sg26
g27
sg28
g29
sg30
I01
sbag1
(g19
g3
Ntp2754
Rp2755
(dp2756
g23
I01
sg24
Nsg26
g34
sg28
g35
sg30
I00
sbag1
(g19
g3
Ntp2757
Rp2758
(dp2759
g23
I00
sg24
g25
sg26
g27
sg28
g29
sg30
I01
sbag1
(g19
g3
Ntp2760
Rp2761
(dp2762
g23
I01
sg24
Nsg26
g34
sg28
g35
sg30
I00
sbag1
(g19
g3
Ntp2763
Rp2764
(dp2765
g23
I00
sg24
g25
sg26
g27
sg28
g29
sg30
I01
sbag1
(g19
g3
Ntp2766
Rp2767
(dp2768
g23
I01
sg24
Nsg26
g34
sg28
g35
sg30
I00
sbag1
(g19
g3
Ntp2769
Rp2770
(dp2771
g23
I01
sg24
Nsg26
g34
sg28
g35
sg30
I00
sbag1
(g19
g3
Ntp2772
Rp2773
(dp2774
g23
I00
sg24
g25
sg26
g27
sg28
g29
sg30
I01
sbag1
(g19
g3
Ntp2775
Rp2776
(dp2777
g23
I01
sg24
Nsg26
g34
sg28
g35
sg30
I00
sbag1
(g19
g3
Ntp2778
Rp2779
(dp2780
g23
I00
sg24
Nsg26
g66
sg28
g67
sg30
I00
sbaa(lp2781
g1
(g19
g3
Ntp2782
Rp2783
(dp2784
g23
I01
sg24
Nsg26
g34
sg28
g35
sg30
I00
sbag1
(g19
g3
Ntp2785
Rp2786
(dp2787
g23
I01
sg24
Nsg26
g34
sg28
g35
sg30
I00
sbag1
(g19
g3
Ntp2788
Rp2789
(dp2790
g23
I01
sg24
Nsg26
g34
sg28
g35
sg30
I00
sbag1
(g19
g3
Ntp2791
Rp2792
(dp2793
g23
I01
sg24
Nsg26
g34
sg28
g35
sg30
I00
sbag1
(g19
g3
Ntp2794
Rp2795
(dp2796
g23
I01
sg24
Nsg26
g34
sg28
g35
sg30
I00
sbag1
(g19
g3
Ntp2797
Rp2798
(dp2799
g23
I01
sg24
Nsg26
g34
sg28
g35
sg30
I00
sbag1
(g19
g3
Ntp2800
Rp2801
(dp2802
g23
I01
sg24
Nsg26
g34
sg28
g35
sg30
I00
sbag1
(g19
g3
Ntp2803
Rp2804
(dp2805
g23
I01
sg24
Nsg26
g34
sg28
g35
sg30
I00
sbag1
(g19
g3
Ntp2806
Rp2807
(dp2808
g23
I01
sg24
Nsg26
g34
sg28
g35
sg30
I00
sbag1
(g19
g3
Ntp2809
Rp2810
(dp2811
g23
I01
sg24
Nsg26
g34
sg28
g35
sg30
I00
sbag1
(g19
g3
Ntp2812
Rp2813
(dp2814
g23
I01
sg24
Nsg26
g34
sg28
g35
sg30
I00
sbag1
(g19
g3
Ntp2815
Rp2816
(dp2817
g23
I00
sg24
Nsg26
g66
sg28
g67
sg30
I00
sbaa(lp2818
g1
(g19
g3
Ntp2819
Rp2820
(dp2821
g23
I00
sg24
g25
sg26
g27
sg28
g29
sg30
I01
sbag1
(g19
g3
Ntp2822
Rp2823
(dp2824
g23
I01
sg24
Nsg26
g34
sg28
g35
sg30
I00
sbag1
(g19
g3
Ntp2825
Rp2826
(dp2827
g23
I00
sg24
g25
sg26
g27
sg28
g29
sg30
I01
sbag1
(g19
g3
Ntp2828
Rp2829
(dp2830
g23
I01
sg24
Nsg26
g34
sg28
g35
sg30
I00
sbag1
(g19
g3
Ntp2831
Rp2832
(dp2833
g23
I00
sg24
g25
sg26
g27
sg28
g29
sg30
I01
sbag1
(g19
g3
Ntp2834
Rp2835
(dp2836
g23
I01
sg24
Nsg26
g34
sg28
g35
sg30
I00
sbag1
(g19
g3
Ntp2837
Rp2838
(dp2839
g23
I00
sg24
g25
sg26
g27
sg28
g29
sg30
I01
sbag1
(g19
g3
Ntp2840
Rp2841
(dp2842
g23
I01
sg24
Nsg26
g34
sg28
g35
sg30
I00
sbag1
(g19
g3
Ntp2843
Rp2844
(dp2845
g23
I01
sg24
Nsg26
g34
sg28
g35
sg30
I00
sbag1
(g19
g3
Ntp2846
Rp2847
(dp2848
g23
I01
sg24
Nsg26
g34
sg28
g35
sg30
I00
sbag1
(g19
g3
Ntp2849
Rp2850
(dp2851
g23
I00
sg24
g25
sg26
g27
sg28
g29
sg30
I01
sbag1
(g19
g3
Ntp2852
Rp2853
(dp2854
g23
I00
sg24
Nsg26
g66
sg28
g67
sg30
I00
sbaa(lp2855
g1
(g19
g3
Ntp2856
Rp2857
(dp2858
g23
I01
sg24
Nsg26
g34
sg28
g35
sg30
I00
sbag1
(g19
g3
Ntp2859
Rp2860
(dp2861
g23
I01
sg24
Nsg26
g34
sg28
g35
sg30
I00
sbag1
(g19
g3
Ntp2862
Rp2863
(dp2864
g23
I01
sg24
Nsg26
g34
sg28
g35
sg30
I00
sbag1
(g19
g3
Ntp2865
Rp2866
(dp2867
g23
I01
sg24
Nsg26
g34
sg28
g35
sg30
I00
sbag1
(g19
g3
Ntp2868
Rp2869
(dp2870
g23
I01
sg24
Nsg26
g34
sg28
g35
sg30
I00
sbag1
(g19
g3
Ntp2871
Rp2872
(dp2873
g23
I01
sg24
Nsg26
g34
sg28
g35
sg30
I00
sbag1
(g19
g3
Ntp2874
Rp2875
(dp2876
g23
I01
sg24
Nsg26
g34
sg28
g35
sg30
I00
sbag1
(g19
g3
Ntp2877
Rp2878
(dp2879
g23
I01
sg24
Nsg26
g34
sg28
g35
sg30
I00
sbag1
(g19
g3
Ntp2880
Rp2881
(dp2882
g23
I00
sg24
g25
sg26
g27
sg28
g29
sg30
I01
sbag1
(g19
g3
Ntp2883
Rp2884
(dp2885
g23
I01
sg24
Nsg26
g34
sg28
g35
sg30
I00
sbag1
(g19
g3
Ntp2886
Rp2887
(dp2888
g23
I01
sg24
Nsg26
g34
sg28
g35
sg30
I00
sbag1
(g19
g3
Ntp2889
Rp2890
(dp2891
g23
I00
sg24
Nsg26
g66
sg28
g67
sg30
I00
sbaa(lp2892
g1
(g19
g3
Ntp2893
Rp2894
(dp2895
g23
I00
sg24
g25
sg26
g27
sg28
g29
sg30
I01
sbag1
(g19
g3
Ntp2896
Rp2897
(dp2898
g23
I01
sg24
Nsg26
g34
sg28
g35
sg30
I00
sbag1
(g19
g3
Ntp2899
Rp2900
(dp2901
g23
I00
sg24
g25
sg26
g27
sg28
g29
sg30
I01
sbag1
(g19
g3
Ntp2902
Rp2903
(dp2904
g23
I01
sg24
Nsg26
g34
sg28
g35
sg30
I00
sbag1
(g19
g3
Ntp2905
Rp2906
(dp2907
g23
I01
sg24
Nsg26
g34
sg28
g35
sg30
I00
sbag1
(g19
g3
Ntp2908
Rp2909
(dp2910
g23
I00
sg24
g25
sg26
g27
sg28
g29
sg30
I01
sbag1
(g19
g3
Ntp2911
Rp2912
(dp2913
g23
I01
sg24
Nsg26
g34
sg28
g35
sg30
I00
sbag1
(g19
g3
Ntp2914
Rp2915
(dp2916
g23
I01
sg24
Nsg26
g34
sg28
g35
sg30
I00
sbag1
(g19
g3
Ntp2917
Rp2918
(dp2919
g23
I01
sg24
Nsg26
g34
sg28
g35
sg30
I00
sbag1
(g19
g3
Ntp2920
Rp2921
(dp2922
g23
I01
sg24
Nsg26
g34
sg28
g35
sg30
I00
sbag1
(g19
g3
Ntp2923
Rp2924
(dp2925
g23
I01
sg24
Nsg26
g34
sg28
g35
sg30
I00
sbag1
(g19
g3
Ntp2926
Rp2927
(dp2928
g23
I00
sg24
Nsg26
g66
sg28
g67
sg30
I00
sbaa(lp2929
g1
(g19
g3
Ntp2930
Rp2931
(dp2932
g23
I01
sg24
Nsg26
g34
sg28
g35
sg30
I00
sbag1
(g19
g3
Ntp2933
Rp2934
(dp2935
g23
I01
sg24
Nsg26
g34
sg28
g35
sg30
I00
sbag1
(g19
g3
Ntp2936
Rp2937
(dp2938
g23
I01
sg24
Nsg26
g34
sg28
g35
sg30
I00
sbag1
(g19
g3
Ntp2939
Rp2940
(dp2941
g23
I01
sg24
Nsg26
g34
sg28
g35
sg30
I00
sbag1
(g19
g3
Ntp2942
Rp2943
(dp2944
g23
I01
sg24
Nsg26
g34
sg28
g35
sg30
I00
sbag1
(g19
g3
Ntp2945
Rp2946
(dp2947
g23
I01
sg24
Nsg26
g34
sg28
g35
sg30
I00
sbag1
(g19
g3
Ntp2948
Rp2949
(dp2950
g23
I00
sg24
g25
sg26
g27
sg28
g29
sg30
I01
sbag1
(g19
g3
Ntp2951
Rp2952
(dp2953
g23
I00
sg24
Nsg26
g995
sg28
g996
sg30
I00
sbag1
(g19
g3
Ntp2954
Rp2955
(dp2956
g23
I01
sg24
Nsg26
g34
sg28
g35
sg30
I00
sbag1
(g19
g3
Ntp2957
Rp2958
(dp2959
g23
I00
sg24
g25
sg26
g27
sg28
g29
sg30
I01
sbag1
(g19
g3
Ntp2960
Rp2961
(dp2962
g23
I01
sg24
Nsg26
g34
sg28
g35
sg30
I00
sbag1
(g19
g3
Ntp2963
Rp2964
(dp2965
g23
I00
sg24
Nsg26
g66
sg28
g67
sg30
I00
sbaa(lp2966
g1
(g19
g3
Ntp2967
Rp2968
(dp2969
g23
I00
sg24
g25
sg26
g27
sg28
g29
sg30
I01
sbag1
(g19
g3
Ntp2970
Rp2971
(dp2972
g23
I01
sg24
Nsg26
g34
sg28
g35
sg30
I00
sbag1
(g19
g3
Ntp2973
Rp2974
(dp2975
g23
I01
sg24
Nsg26
g34
sg28
g35
sg30
I00
sbag1
(g19
g3
Ntp2976
Rp2977
(dp2978
g23
I00
sg24
g25
sg26
g27
sg28
g29
sg30
I01
sbag1
(g19
g3
Ntp2979
Rp2980
(dp2981
g23
I01
sg24
Nsg26
g34
sg28
g35
sg30
I00
sbag1
(g19
g3
Ntp2982
Rp2983
(dp2984
g23
I01
sg24
Nsg26
g34
sg28
g35
sg30
I00
sbag1
(g19
g3
Ntp2985
Rp2986
(dp2987
g23
I01
sg24
Nsg26
g34
sg28
g35
sg30
I00
sbag1
(g19
g3
Ntp2988
Rp2989
(dp2990
g23
I01
sg24
Nsg26
g34
sg28
g35
sg30
I00
sbag1
(g19
g3
Ntp2991
Rp2992
(dp2993
g23
I00
sg24
g25
sg26
g27
sg28
g29
sg30
I01
sbag1
(g19
g3
Ntp2994
Rp2995
(dp2996
g23
I01
sg24
Nsg26
g34
sg28
g35
sg30
I00
sbag1
(g19
g3
Ntp2997
Rp2998
(dp2999
g23
I01
sg24
Nsg26
g34
sg28
g35
sg30
I00
sbag1
(g19
g3
Ntp3000
Rp3001
(dp3002
g23
I00
sg24
Nsg26
g66
sg28
g67
sg30
I00
sbaa(lp3003
g1
(g19
g3
Ntp3004
Rp3005
(dp3006
g23
I01
sg24
Nsg26
g34
sg28
g35
sg30
I00
sbag1
(g19
g3
Ntp3007
Rp3008
(dp3009
g23
I01
sg24
Nsg26
g34
sg28
g35
sg30
I00
sbag1
(g19
g3
Ntp3010
Rp3011
(dp3012
g23
I01
sg24
Nsg26
g34
sg28
g35
sg30
I00
sbag1
(g19
g3
Ntp3013
Rp3014
(dp3015
g23
I01
sg24
Nsg26
g34
sg28
g35
sg30
I00
sbag1
(g19
g3
Ntp3016
Rp3017
(dp3018
g23
I01
sg24
Nsg26
g34
sg28
g35
sg30
I00
sbag1
(g19
g3
Ntp3019
Rp3020
(dp3021
g23
I00
sg24
g25
sg26
g27
sg28
g29
sg30
I01
sbag1
(g19
g3
Ntp3022
Rp3023
(dp3024
g23
I01
sg24
Nsg26
g34
sg28
g35
sg30
I00
sbag1
(g19
g3
Ntp3025
Rp3026
(dp3027
g23
I01
sg24
Nsg26
g34
sg28
g35
sg30
I00
sbag1
(g19
g3
Ntp3028
Rp3029
(dp3030
g23
I01
sg24
Nsg26
g34
sg28
g35
sg30
I00
sbag1
(g19
g3
Ntp3031
Rp3032
(dp3033
g23
I01
sg24
Nsg26
g34
sg28
g35
sg30
I00
sbag1
(g19
g3
Ntp3034
Rp3035
(dp3036
g23
I01
sg24
Nsg26
g34
sg28
g35
sg30
I00
sbag1
(g19
g3
Ntp3037
Rp3038
(dp3039
g23
I00
sg24
Nsg26
g66
sg28
g67
sg30
I00
sbaa(lp3040
g1
(g19
g3
Ntp3041
Rp3042
(dp3043
g23
I01
sg24
Nsg26
g34
sg28
g35
sg30
I00
sbag1
(g19
g3
Ntp3044
Rp3045
(dp3046
g23
I01
sg24
Nsg26
g34
sg28
g35
sg30
I00
sbag1
(g19
g3
Ntp3047
Rp3048
(dp3049
g23
I01
sg24
Nsg26
g34
sg28
g35
sg30
I00
sbag1
(g19
g3
Ntp3050
Rp3051
(dp3052
g23
I01
sg24
Nsg26
g34
sg28
g35
sg30
I00
sbag1
(g19
g3
Ntp3053
Rp3054
(dp3055
g23
I01
sg24
Nsg26
g34
sg28
g35
sg30
I00
sbag1
(g19
g3
Ntp3056
Rp3057
(dp3058
g23
I01
sg24
Nsg26
g34
sg28
g35
sg30
I00
sbag1
(g19
g3
Ntp3059
Rp3060
(dp3061
g23
I01
sg24
Nsg26
g34
sg28
g35
sg30
I00
sbag1
(g19
g3
Ntp3062
Rp3063
(dp3064
g23
I00
sg24
g25
sg26
g27
sg28
g29
sg30
I01
sbag1
(g19
g3
Ntp3065
Rp3066
(dp3067
g23
I01
sg24
Nsg26
g34
sg28
g35
sg30
I00
sbag1
(g19
g3
Ntp3068
Rp3069
(dp3070
g23
I00
sg24
g25
sg26
g27
sg28
g29
sg30
I01
sbag1
(g19
g3
Ntp3071
Rp3072
(dp3073
g23
I01
sg24
Nsg26
g34
sg28
g35
sg30
I00
sbag1
(g19
g3
Ntp3074
Rp3075
(dp3076
g23
I00
sg24
Nsg26
g66
sg28
g67
sg30
I00
sbaa(lp3077
g1
(g19
g3
Ntp3078
Rp3079
(dp3080
g23
I01
sg24
Nsg26
g34
sg28
g35
sg30
I00
sbag1
(g19
g3
Ntp3081
Rp3082
(dp3083
g23
I01
sg24
Nsg26
g34
sg28
g35
sg30
I00
sbag1
(g19
g3
Ntp3084
Rp3085
(dp3086
g23
I01
sg24
Nsg26
g34
sg28
g35
sg30
I00
sbag1
(g19
g3
Ntp3087
Rp3088
(dp3089
g23
I01
sg24
Nsg26
g34
sg28
g35
sg30
I00
sbag1
(g19
g3
Ntp3090
Rp3091
(dp3092
g23
I01
sg24
Nsg26
g34
sg28
g35
sg30
I00
sbag1
(g19
g3
Ntp3093
Rp3094
(dp3095
g23
I00
sg24
g25
sg26
g27
sg28
g29
sg30
I01
sbag1
(g19
g3
Ntp3096
Rp3097
(dp3098
g23
I01
sg24
Nsg26
g34
sg28
g35
sg30
I00
sbag1
(g19
g3
Ntp3099
Rp3100
(dp3101
g23
I01
sg24
Nsg26
g34
sg28
g35
sg30
I00
sbag1
(g19
g3
Ntp3102
Rp3103
(dp3104
g23
I01
sg24
Nsg26
g34
sg28
g35
sg30
I00
sbag1
(g19
g3
Ntp3105
Rp3106
(dp3107
g23
I01
sg24
Nsg26
g34
sg28
g35
sg30
I00
sbag1
(g19
g3
Ntp3108
Rp3109
(dp3110
g23
I01
sg24
Nsg26
g34
sg28
g35
sg30
I00
sbag1
(g19
g3
Ntp3111
Rp3112
(dp3113
g23
I00
sg24
Nsg26
g66
sg28
g67
sg30
I00
sbaa(lp3114
g1
(g19
g3
Ntp3115
Rp3116
(dp3117
g23
I01
sg24
Nsg26
g34
sg28
g35
sg30
I00
sbag1
(g19
g3
Ntp3118
Rp3119
(dp3120
g23
I01
sg24
Nsg26
g34
sg28
g35
sg30
I00
sbag1
(g19
g3
Ntp3121
Rp3122
(dp3123
g23
I01
sg24
Nsg26
g34
sg28
g35
sg30
I00
sbag1
(g19
g3
Ntp3124
Rp3125
(dp3126
g23
I00
sg24
g25
sg26
g27
sg28
g29
sg30
I01
sbag1
(g19
g3
Ntp3127
Rp3128
(dp3129
g23
I01
sg24
Nsg26
g34
sg28
g35
sg30
I00
sbag1
(g19
g3
Ntp3130
Rp3131
(dp3132
g23
I01
sg24
Nsg26
g34
sg28
g35
sg30
I00
sbag1
(g19
g3
Ntp3133
Rp3134
(dp3135
g23
I01
sg24
Nsg26
g34
sg28
g35
sg30
I00
sbag1
(g19
g3
Ntp3136
Rp3137
(dp3138
g23
I01
sg24
Nsg26
g34
sg28
g35
sg30
I00
sbag1
(g19
g3
Ntp3139
Rp3140
(dp3141
g23
I01
sg24
Nsg26
g34
sg28
g35
sg30
I00
sbag1
(g19
g3
Ntp3142
Rp3143
(dp3144
g23
I01
sg24
Nsg26
g34
sg28
g35
sg30
I00
sbag1
(g19
g3
Ntp3145
Rp3146
(dp3147
g23
I00
sg24
g25
sg26
g27
sg28
g29
sg30
I01
sbag1
(g19
g3
Ntp3148
Rp3149
(dp3150
g23
I00
sg24
Nsg26
g66
sg28
g67
sg30
I00
sbaa(lp3151
g1
(g19
g3
Ntp3152
Rp3153
(dp3154
g23
I00
sg24
Nsg26
g66
sg28
g67
sg30
I00
sbag1
(g19
g3
Ntp3155
Rp3156
(dp3157
g23
I00
sg24
Nsg26
g66
sg28
g67
sg30
I00
sbag1
(g19
g3
Ntp3158
Rp3159
(dp3160
g23
I00
sg24
Nsg26
g66
sg28
g67
sg30
I00
sbag1
(g19
g3
Ntp3161
Rp3162
(dp3163
g23
I00
sg24
Nsg26
g66
sg28
g67
sg30
I00
sbag1
(g19
g3
Ntp3164
Rp3165
(dp3166
g23
I00
sg24
Nsg26
g66
sg28
g67
sg30
I00
sbag1
(g19
g3
Ntp3167
Rp3168
(dp3169
g23
I00
sg24
Nsg26
g66
sg28
g67
sg30
I00
sbag1
(g19
g3
Ntp3170
Rp3171
(dp3172
g23
I00
sg24
Nsg26
g66
sg28
g67
sg30
I00
sbag1
(g19
g3
Ntp3173
Rp3174
(dp3175
g23
I00
sg24
Nsg26
g66
sg28
g67
sg30
I00
sbag1
(g19
g3
Ntp3176
Rp3177
(dp3178
g23
I00
sg24
Nsg26
g66
sg28
g67
sg30
I00
sbag1
(g19
g3
Ntp3179
Rp3180
(dp3181
g23
I00
sg24
Nsg26
g66
sg28
g67
sg30
I00
sbag1
(g19
g3
Ntp3182
Rp3183
(dp3184
g23
I00
sg24
Nsg26
g66
sg28
g67
sg30
I00
sbag1
(g19
g3
Ntp3185
Rp3186
(dp3187
g23
I00
sg24
Nsg26
g66
sg28
g67
sg30
I00
sbaasg475
(I1
I0
tp3188
sbs(I1
I-1
tp3189
g1
(g12
g3
Ntp3190
Rp3191
(dp3192
g16
(lp3193
(lp3194
g1
(g19
g3
Ntp3195
Rp3196
(dp3197
g23
I01
sg24
Nsg26
g34
sg28
g35
sg30
I00
sbag1
(g19
g3
Ntp3198
Rp3199
(dp3200
g23
I01
sg24
Nsg26
g34
sg28
g35
sg30
I00
sbag1
(g19
g3
Ntp3201
Rp3202
(dp3203
g23
I01
sg24
Nsg26
g34
sg28
g35
sg30
I00
sbag1
(g19
g3
Ntp3204
Rp3205
(dp3206
g23
I00
sg24
g25
sg26
g27
sg28
g29
sg30
I01
sbag1
(g19
g3
Ntp3207
Rp3208
(dp3209
g23
I01
sg24
Nsg26
g34
sg28
g35
sg30
I00
sbag1
(g19
g3
Ntp3210
Rp3211
(dp3212
g23
I00
sg24
g25
sg26
g27
sg28
g29
sg30
I01
sbag1
(g19
g3
Ntp3213
Rp3214
(dp3215
g23
I01
sg24
Nsg26
g34
sg28
g35
sg30
I00
sbag1
(g19
g3
Ntp3216
Rp3217
(dp3218
g23
I00
sg24
g25
sg26
g27
sg28
g29
sg30
I01
sbag1
(g19
g3
Ntp3219
Rp3220
(dp3221
g23
I01
sg24
Nsg26
g34
sg28
g35
sg30
I00
sbag1
(g19
g3
Ntp3222
Rp3223
(dp3224
g23
I00
sg24
g25
sg26
g27
sg28
g29
sg30
I01
sbag1
(g19
g3
Ntp3225
Rp3226
(dp3227
g23
I01
sg24
Nsg26
g34
sg28
g35
sg30
I00
sbag1
(g19
g3
Ntp3228
Rp3229
(dp3230
g23
I00
sg24
Nsg26
g66
sg28
g67
sg30
I00
sbaa(lp3231
g1
(g19
g3
Ntp3232
Rp3233
(dp3234
g23
I01
sg24
Nsg26
g34
sg28
g35
sg30
I00
sbag1
(g19
g3
Ntp3235
Rp3236
(dp3237
g23
I00
sg24
g25
sg26
g27
sg28
g29
sg30
I01
sbag1
(g19
g3
Ntp3238
Rp3239
(dp3240
g23
I01
sg24
Nsg26
g34
sg28
g35
sg30
I00
sbag1
(g19
g3
Ntp3241
Rp3242
(dp3243
g23
I01
sg24
Nsg26
g34
sg28
g35
sg30
I00
sbag1
(g19
g3
Ntp3244
Rp3245
(dp3246
g23
I01
sg24
Nsg26
g34
sg28
g35
sg30
I00
sbag1
(g19
g3
Ntp3247
Rp3248
(dp3249
g23
I01
sg24
Nsg26
g34
sg28
g35
sg30
I00
sbag1
(g19
g3
Ntp3250
Rp3251
(dp3252
g23
I01
sg24
Nsg26
g34
sg28
g35
sg30
I00
sbag1
(g19
g3
Ntp3253
Rp3254
(dp3255
g23
I01
sg24
Nsg26
g34
sg28
g35
sg30
I00
sbag1
(g19
g3
Ntp3256
Rp3257
(dp3258
g23
I01
sg24
Nsg26
g34
sg28
g35
sg30
I00
sbag1
(g19
g3
Ntp3259
Rp3260
(dp3261
g23
I01
sg24
Nsg26
g34
sg28
g35
sg30
I00
sbag1
(g19
g3
Ntp3262
Rp3263
(dp3264
g23
I01
sg24
Nsg26
g34
sg28
g35
sg30
I00
sbag1
(g19
g3
Ntp3265
Rp3266
(dp3267
g23
I00
sg24
Nsg26
g66
sg28
g67
sg30
I00
sbaa(lp3268
g1
(g19
g3
Ntp3269
Rp3270
(dp3271
g23
I01
sg24
Nsg26
g34
sg28
g35
sg30
I00
sbag1
(g19
g3
Ntp3272
Rp3273
(dp3274
g23
I01
sg24
Nsg26
g34
sg28
g35
sg30
I00
sbag1
(g19
g3
Ntp3275
Rp3276
(dp3277
g23
I01
sg24
Nsg26
g34
sg28
g35
sg30
I00
sbag1
(g19
g3
Ntp3278
Rp3279
(dp3280
g23
I00
sg24
g25
sg26
g27
sg28
g29
sg30
I01
sbag1
(g19
g3
Ntp3281
Rp3282
(dp3283
g23
I01
sg24
Nsg26
g34
sg28
g35
sg30
I00
sbag1
(g19
g3
Ntp3284
Rp3285
(dp3286
g23
I00
sg24
g25
sg26
g27
sg28
g29
sg30
I01
sbag1
(g19
g3
Ntp3287
Rp3288
(dp3289
g23
I01
sg24
Nsg26
g34
sg28
g35
sg30
I00
sbag1
(g19
g3
Ntp3290
Rp3291
(dp3292
g23
I00
sg24
g25
sg26
g27
sg28
g29
sg30
I01
sbag1
(g19
g3
Ntp3293
Rp3294
(dp3295
g23
I01
sg24
Nsg26
g34
sg28
g35
sg30
I00
sbag1
(g19
g3
Ntp3296
Rp3297
(dp3298
g23
I00
sg24
Nsg26
g995
sg28
g996
sg30
I00
sbag1
(g19
g3
Ntp3299
Rp3300
(dp3301
g23
I01
sg24
Nsg26
g34
sg28
g35
sg30
I00
sbag1
(g19
g3
Ntp3302
Rp3303
(dp3304
g23
I00
sg24
Nsg26
g66
sg28
g67
sg30
I00
sbaa(lp3305
g1
(g19
g3
Ntp3306
Rp3307
(dp3308
g23
I01
sg24
Nsg26
g34
sg28
g35
sg30
I00
sbag1
(g19
g3
Ntp3309
Rp3310
(dp3311
g23
I00
sg24
g25
sg26
g27
sg28
g29
sg30
I01
sbag1
(g19
g3
Ntp3312
Rp3313
(dp3314
g23
I01
sg24
Nsg26
g34
sg28
g35
sg30
I00
sbag1
(g19
g3
Ntp3315
Rp3316
(dp3317
g23
I01
sg24
Nsg26
g34
sg28
g35
sg30
I00
sbag1
(g19
g3
Ntp3318
Rp3319
(dp3320
g23
I01
sg24
Nsg26
g34
sg28
g35
sg30
I00
sbag1
(g19
g3
Ntp3321
Rp3322
(dp3323
g23
I01
sg24
Nsg26
g34
sg28
g35
sg30
I00
sbag1
(g19
g3
Ntp3324
Rp3325
(dp3326
g23
I01
sg24
Nsg26
g34
sg28
g35
sg30
I00
sbag1
(g19
g3
Ntp3327
Rp3328
(dp3329
g23
I00
sg24
Nsg26
g995
sg28
g996
sg30
I00
sbag1
(g19
g3
Ntp3330
Rp3331
(dp3332
g23
I01
sg24
Nsg26
g34
sg28
g35
sg30
I00
sbag1
(g19
g3
Ntp3333
Rp3334
(dp3335
g23
I00
sg24
g25
sg26
g27
sg28
g29
sg30
I01
sbag1
(g19
g3
Ntp3336
Rp3337
(dp3338
g23
I01
sg24
Nsg26
g34
sg28
g35
sg30
I00
sbag1
(g19
g3
Ntp3339
Rp3340
(dp3341
g23
I00
sg24
Nsg26
g66
sg28
g67
sg30
I00
sbaa(lp3342
g1
(g19
g3
Ntp3343
Rp3344
(dp3345
g23
I01
sg24
Nsg26
g34
sg28
g35
sg30
I00
sbag1
(g19
g3
Ntp3346
Rp3347
(dp3348
g23
I01
sg24
Nsg26
g34
sg28
g35
sg30
I00
sbag1
(g19
g3
Ntp3349
Rp3350
(dp3351
g23
I01
sg24
Nsg26
g34
sg28
g35
sg30
I00
sbag1
(g19
g3
Ntp3352
Rp3353
(dp3354
g23
I01
sg24
Nsg26
g34
sg28
g35
sg30
I00
sbag1
(g19
g3
Ntp3355
Rp3356
(dp3357
g23
I01
sg24
Nsg26
g34
sg28
g35
sg30
I00
sbag1
(g19
g3
Ntp3358
Rp3359
(dp3360
g23
I01
sg24
Nsg26
g34
sg28
g35
sg30
I00
sbag1
(g19
g3
Ntp3361
Rp3362
(dp3363
g23
I01
sg24
Nsg26
g34
sg28
g35
sg30
I00
sbag1
(g19
g3
Ntp3364
Rp3365
(dp3366
g23
I00
sg24
g25
sg26
g27
sg28
g29
sg30
I01
sbag1
(g19
g3
Ntp3367
Rp3368
(dp3369
g23
I00
sg24
g25
sg26
g27
sg28
g29
sg30
I01
sbag1
(g19
g3
Ntp3370
Rp3371
(dp3372
g23
I01
sg24
Nsg26
g34
sg28
g35
sg30
I00
sbag1
(g19
g3
Ntp3373
Rp3374
(dp3375
g23
I01
sg24
Nsg26
g34
sg28
g35
sg30
I00
sbag1
(g19
g3
Ntp3376
Rp3377
(dp3378
g23
I00
sg24
Nsg26
g66
sg28
g67
sg30
I00
sbaa(lp3379
g1
(g19
g3
Ntp3380
Rp3381
(dp3382
g23
I01
sg24
Nsg26
g34
sg28
g35
sg30
I00
sbag1
(g19
g3
Ntp3383
Rp3384
(dp3385
g23
I00
sg24
g25
sg26
g27
sg28
g29
sg30
I01
sbag1
(g19
g3
Ntp3386
Rp3387
(dp3388
g23
I01
sg24
Nsg26
g34
sg28
g35
sg30
I00
sbag1
(g19
g3
Ntp3389
Rp3390
(dp3391
g23
I01
sg24
Nsg26
g34
sg28
g35
sg30
I00
sbag1
(g19
g3
Ntp3392
Rp3393
(dp3394
g23
I01
sg24
Nsg26
g34
sg28
g35
sg30
I00
sbag1
(g19
g3
Ntp3395
Rp3396
(dp3397
g23
I00
sg24
g25
sg26
g27
sg28
g29
sg30
I01
sbag1
(g19
g3
Ntp3398
Rp3399
(dp3400
g23
I01
sg24
Nsg26
g34
sg28
g35
sg30
I00
sbag1
(g19
g3
Ntp3401
Rp3402
(dp3403
g23
I01
sg24
Nsg26
g34
sg28
g35
sg30
I00
sbag1
(g19
g3
Ntp3404
Rp3405
(dp3406
g23
I01
sg24
Nsg26
g34
sg28
g35
sg30
I00
sbag1
(g19
g3
Ntp3407
Rp3408
(dp3409
g23
I01
sg24
Nsg26
g34
sg28
g35
sg30
I00
sbag1
(g19
g3
Ntp3410
Rp3411
(dp3412
g23
I01
sg24
Nsg26
g34
sg28
g35
sg30
I00
sbag1
(g19
g3
Ntp3413
Rp3414
(dp3415
g23
I00
sg24
Nsg26
g66
sg28
g67
sg30
I00
sbaa(lp3416
g1
(g19
g3
Ntp3417
Rp3418
(dp3419
g23
I01
sg24
Nsg26
g34
sg28
g35
sg30
I00
sbag1
(g19
g3
Ntp3420
Rp3421
(dp3422
g23
I01
sg24
Nsg26
g34
sg28
g35
sg30
I00
sbag1
(g19
g3
Ntp3423
Rp3424
(dp3425
g23
I01
sg24
Nsg26
g34
sg28
g35
sg30
I00
sbag1
(g19
g3
Ntp3426
Rp3427
(dp3428
g23
I00
sg24
g25
sg26
g27
sg28
g29
sg30
I01
sbag1
(g19
g3
Ntp3429
Rp3430
(dp3431
g23
I01
sg24
Nsg26
g34
sg28
g35
sg30
I00
sbag1
(g19
g3
Ntp3432
Rp3433
(dp3434
g23
I01
sg24
Nsg26
g34
sg28
g35
sg30
I00
sbag1
(g19
g3
Ntp3435
Rp3436
(dp3437
g23
I01
sg24
Nsg26
g34
sg28
g35
sg30
I00
sbag1
(g19
g3
Ntp3438
Rp3439
(dp3440
g23
I00
sg24
g25
sg26
g27
sg28
g29
sg30
I01
sbag1
(g19
g3
Ntp3441
Rp3442
(dp3443
g23
I01
sg24
Nsg26
g34
sg28
g35
sg30
I00
sbag1
(g19
g3
Ntp3444
Rp3445
(dp3446
g23
I00
sg24
g25
sg26
g27
sg28
g29
sg30
I01
sbag1
(g19
g3
Ntp3447
Rp3448
(dp3449
g23
I01
sg24
Nsg26
g34
sg28
g35
sg30
I00
sbag1
(g19
g3
Ntp3450
Rp3451
(dp3452
g23
I00
sg24
Nsg26
g66
sg28
g67
sg30
I00
sbaa(lp3453
g1
(g19
g3
Ntp3454
Rp3455
(dp3456
g23
I00
sg24
g25
sg26
g27
sg28
g29
sg30
I01
sbag1
(g19
g3
Ntp3457
Rp3458
(dp3459
g23
I01
sg24
Nsg26
g34
sg28
g35
sg30
I00
sbag1
(g19
g3
Ntp3460
Rp3461
(dp3462
g23
I01
sg24
Nsg26
g34
sg28
g35
sg30
I00
sbag1
(g19
g3
Ntp3463
Rp3464
(dp3465
g23
I01
sg24
Nsg26
g34
sg28
g35
sg30
I00
sbag1
(g19
g3
Ntp3466
Rp3467
(dp3468
g23
I01
sg24
Nsg26
g34
sg28
g35
sg30
I00
sbag1
(g19
g3
Ntp3469
Rp3470
(dp3471
g23
I00
sg24
g25
sg26
g27
sg28
g29
sg30
I01
sbag1
(g19
g3
Ntp3472
Rp3473
(dp3474
g23
I01
sg24
Nsg26
g34
sg28
g35
sg30
I00
sbag1
(g19
g3
Ntp3475
Rp3476
(dp3477
g23
I01
sg24
Nsg26
g34
sg28
g35
sg30
I00
sbag1
(g19
g3
Ntp3478
Rp3479
(dp3480
g23
I01
sg24
Nsg26
g34
sg28
g35
sg30
I00
sbag1
(g19
g3
Ntp3481
Rp3482
(dp3483
g23
I01
sg24
Nsg26
g34
sg28
g35
sg30
I00
sbag1
(g19
g3
Ntp3484
Rp3485
(dp3486
g23
I01
sg24
Nsg26
g34
sg28
g35
sg30
I00
sbag1
(g19
g3
Ntp3487
Rp3488
(dp3489
g23
I00
sg24
Nsg26
g66
sg28
g67
sg30
I00
sbaa(lp3490
g1
(g19
g3
Ntp3491
Rp3492
(dp3493
g23
I01
sg24
Nsg26
g34
sg28
g35
sg30
I00
sbag1
(g19
g3
Ntp3494
Rp3495
(dp3496
g23
I01
sg24
Nsg26
g34
sg28
g35
sg30
I00
sbag1
(g19
g3
Ntp3497
Rp3498
(dp3499
g23
I00
sg24
g25
sg26
g27
sg28
g29
sg30
I01
sbag1
(g19
g3
Ntp3500
Rp3501
(dp3502
g23
I01
sg24
Nsg26
g34
sg28
g35
sg30
I00
sbag1
(g19
g3
Ntp3503
Rp3504
(dp3505
g23
I01
sg24
Nsg26
g34
sg28
g35
sg30
I00
sbag1
(g19
g3
Ntp3506
Rp3507
(dp3508
g23
I01
sg24
Nsg26
g34
sg28
g35
sg30
I00
sbag1
(g19
g3
Ntp3509
Rp3510
(dp3511
g23
I01
sg24
Nsg26
g34
sg28
g35
sg30
I00
sbag1
(g19
g3
Ntp3512
Rp3513
(dp3514
g23
I00
sg24
g25
sg26
g27
sg28
g29
sg30
I01
sbag1
(g19
g3
Ntp3515
Rp3516
(dp3517
g23
I01
sg24
Nsg26
g34
sg28
g35
sg30
I00
sbag1
(g19
g3
Ntp3518
Rp3519
(dp3520
g23
I01
sg24
Nsg26
g34
sg28
g35
sg30
I00
sbag1
(g19
g3
Ntp3521
Rp3522
(dp3523
g23
I00
sg24
g25
sg26
g27
sg28
g29
sg30
I01
sbag1
(g19
g3
Ntp3524
Rp3525
(dp3526
g23
I00
sg24
Nsg26
g66
sg28
g67
sg30
I00
sbaa(lp3527
g1
(g19
g3
Ntp3528
Rp3529
(dp3530
g23
I01
sg24
Nsg26
g34
sg28
g35
sg30
I00
sbag1
(g19
g3
Ntp3531
Rp3532
(dp3533
g23
I01
sg24
Nsg26
g34
sg28
g35
sg30
I00
sbag1
(g19
g3
Ntp3534
Rp3535
(dp3536
g23
I01
sg24
Nsg26
g34
sg28
g35
sg30
I00
sbag1
(g19
g3
Ntp3537
Rp3538
(dp3539
g23
I01
sg24
Nsg26
g34
sg28
g35
sg30
I00
sbag1
(g19
g3
Ntp3540
Rp3541
(dp3542
g23
I01
sg24
Nsg26
g34
sg28
g35
sg30
I00
sbag1
(g19
g3
Ntp3543
Rp3544
(dp3545
g23
I00
sg24
g25
sg26
g27
sg28
g29
sg30
I01
sbag1
(g19
g3
Ntp3546
Rp3547
(dp3548
g23
I01
sg24
Nsg26
g34
sg28
g35
sg30
I00
sbag1
(g19
g3
Ntp3549
Rp3550
(dp3551
g23
I01
sg24
Nsg26
g34
sg28
g35
sg30
I00
sbag1
(g19
g3
Ntp3552
Rp3553
(dp3554
g23
I01
sg24
Nsg26
g34
sg28
g35
sg30
I00
sbag1
(g19
g3
Ntp3555
Rp3556
(dp3557
g23
I01
sg24
Nsg26
g34
sg28
g35
sg30
I00
sbag1
(g19
g3
Ntp3558
Rp3559
(dp3560
g23
I01
sg24
Nsg26
g34
sg28
g35
sg30
I00
sbag1
(g19
g3
Ntp3561
Rp3562
(dp3563
g23
I00
sg24
Nsg26
g66
sg28
g67
sg30
I00
sbaa(lp3564
g1
(g19
g3
Ntp3565
Rp3566
(dp3567
g23
I01
sg24
Nsg26
g34
sg28
g35
sg30
I00
sbag1
(g19
g3
Ntp3568
Rp3569
(dp3570
g23
I00
sg24
g25
sg26
g27
sg28
g29
sg30
I01
sbag1
(g19
g3
Ntp3571
Rp3572
(dp3573
g23
I01
sg24
Nsg26
g34
sg28
g35
sg30
I00
sbag1
(g19
g3
Ntp3574
Rp3575
(dp3576
g23
I01
sg24
Nsg26
g34
sg28
g35
sg30
I00
sbag1
(g19
g3
Ntp3577
Rp3578
(dp3579
g23
I01
sg24
Nsg26
g34
sg28
g35
sg30
I00
sbag1
(g19
g3
Ntp3580
Rp3581
(dp3582
g23
I01
sg24
Nsg26
g34
sg28
g35
sg30
I00
sbag1
(g19
g3
Ntp3583
Rp3584
(dp3585
g23
I01
sg24
Nsg26
g34
sg28
g35
sg30
I00
sbag1
(g19
g3
Ntp3586
Rp3587
(dp3588
g23
I01
sg24
Nsg26
g34
sg28
g35
sg30
I00
sbag1
(g19
g3
Ntp3589
Rp3590
(dp3591
g23
I00
sg24
g25
sg26
g27
sg28
g29
sg30
I01
sbag1
(g19
g3
Ntp3592
Rp3593
(dp3594
g23
I01
sg24
Nsg26
g34
sg28
g35
sg30
I00
sbag1
(g19
g3
Ntp3595
Rp3596
(dp3597
g23
I01
sg24
Nsg26
g34
sg28
g35
sg30
I00
sbag1
(g19
g3
Ntp3598
Rp3599
(dp3600
g23
I00
sg24
Nsg26
g66
sg28
g67
sg30
I00
sbaa(lp3601
g1
(g19
g3
Ntp3602
Rp3603
(dp3604
g23
I00
sg24
Nsg26
g66
sg28
g67
sg30
I00
sbag1
(g19
g3
Ntp3605
Rp3606
(dp3607
g23
I00
sg24
Nsg26
g66
sg28
g67
sg30
I00
sbag1
(g19
g3
Ntp3608
Rp3609
(dp3610
g23
I00
sg24
Nsg26
g66
sg28
g67
sg30
I00
sbag1
(g19
g3
Ntp3611
Rp3612
(dp3613
g23
I00
sg24
Nsg26
g66
sg28
g67
sg30
I00
sbag1
(g19
g3
Ntp3614
Rp3615
(dp3616
g23
I00
sg24
Nsg26
g66
sg28
g67
sg30
I00
sbag1
(g19
g3
Ntp3617
Rp3618
(dp3619
g23
I00
sg24
Nsg26
g66
sg28
g67
sg30
I00
sbag1
(g19
g3
Ntp3620
Rp3621
(dp3622
g23
I00
sg24
Nsg26
g66
sg28
g67
sg30
I00
sbag1
(g19
g3
Ntp3623
Rp3624
(dp3625
g23
I00
sg24
Nsg26
g66
sg28
g67
sg30
I00
sbag1
(g19
g3
Ntp3626
Rp3627
(dp3628
g23
I00
sg24
Nsg26
g66
sg28
g67
sg30
I00
sbag1
(g19
g3
Ntp3629
Rp3630
(dp3631
g23
I00
sg24
Nsg26
g66
sg28
g67
sg30
I00
sbag1
(g19
g3
Ntp3632
Rp3633
(dp3634
g23
I00
sg24
Nsg26
g66
sg28
g67
sg30
I00
sbag1
(g19
g3
Ntp3635
Rp3636
(dp3637
g23
I00
sg24
Nsg26
g66
sg28
g67
sg30
I00
sbaasg475
(I1
I-1
tp3638
sbs(I1
I1
tp3639
g1
(g12
g3
Ntp3640
Rp3641
(dp3642
g16
(lp3643
(lp3644
g1
(g19
g3
Ntp3645
Rp3646
(dp3647
g23
I01
sg24
Nsg26
g34
sg28
g35
sg30
I00
sbag1
(g19
g3
Ntp3648
Rp3649
(dp3650
g23
I01
sg24
Nsg26
g34
sg28
g35
sg30
I00
sbag1
(g19
g3
Ntp3651
Rp3652
(dp3653
g23
I01
sg24
Nsg26
g34
sg28
g35
sg30
I00
sbag1
(g19
g3
Ntp3654
Rp3655
(dp3656
g23
I00
sg24
g25
sg26
g27
sg28
g29
sg30
I01
sbag1
(g19
g3
Ntp3657
Rp3658
(dp3659
g23
I01
sg24
Nsg26
g34
sg28
g35
sg30
I00
sbag1
(g19
g3
Ntp3660
Rp3661
(dp3662
g23
I01
sg24
Nsg26
g34
sg28
g35
sg30
I00
sbag1
(g19
g3
Ntp3663
Rp3664
(dp3665
g23
I00
sg24
g25
sg26
g27
sg28
g29
sg30
I01
sbag1
(g19
g3
Ntp3666
Rp3667
(dp3668
g23
I01
sg24
Nsg26
g34
sg28
g35
sg30
I00
sbag1
(g19
g3
Ntp3669
Rp3670
(dp3671
g23
I01
sg24
Nsg26
g34
sg28
g35
sg30
I00
sbag1
(g19
g3
Ntp3672
Rp3673
(dp3674
g23
I01
sg24
Nsg26
g34
sg28
g35
sg30
I00
sbag1
(g19
g3
Ntp3675
Rp3676
(dp3677
g23
I01
sg24
Nsg26
g34
sg28
g35
sg30
I00
sbag1
(g19
g3
Ntp3678
Rp3679
(dp3680
g23
I00
sg24
Nsg26
g66
sg28
g67
sg30
I00
sbaa(lp3681
g1
(g19
g3
Ntp3682
Rp3683
(dp3684
g23
I00
sg24
g25
sg26
g27
sg28
g29
sg30
I01
sbag1
(g19
g3
Ntp3685
Rp3686
(dp3687
g23
I01
sg24
Nsg26
g34
sg28
g35
sg30
I00
sbag1
(g19
g3
Ntp3688
Rp3689
(dp3690
g23
I01
sg24
Nsg26
g34
sg28
g35
sg30
I00
sbag1
(g19
g3
Ntp3691
Rp3692
(dp3693
g23
I01
sg24
Nsg26
g34
sg28
g35
sg30
I00
sbag1
(g19
g3
Ntp3694
Rp3695
(dp3696
g23
I01
sg24
Nsg26
g34
sg28
g35
sg30
I00
sbag1
(g19
g3
Ntp3697
Rp3698
(dp3699
g23
I00
sg24
Nsg26
g995
sg28
g996
sg30
I00
sbag1
(g19
g3
Ntp3700
Rp3701
(dp3702
g23
I00
sg24
g25
sg26
g27
sg28
g29
sg30
I01
sbag1
(g19
g3
Ntp3703
Rp3704
(dp3705
g23
I01
sg24
Nsg26
g34
sg28
g35
sg30
I00
sbag1
(g19
g3
Ntp3706
Rp3707
(dp3708
g23
I00
sg24
g25
sg26
g27
sg28
g29
sg30
I01
sbag1
(g19
g3
Ntp3709
Rp3710
(dp3711
g23
I01
sg24
Nsg26
g34
sg28
g35
sg30
I00
sbag1
(g19
g3
Ntp3712
Rp3713
(dp3714
g23
I01
sg24
Nsg26
g34
sg28
g35
sg30
I00
sbag1
(g19
g3
Ntp3715
Rp3716
(dp3717
g23
I00
sg24
Nsg26
g66
sg28
g67
sg30
I00
sbaa(lp3718
g1
(g19
g3
Ntp3719
Rp3720
(dp3721
g23
I01
sg24
Nsg26
g34
sg28
g35
sg30
I00
sbag1
(g19
g3
Ntp3722
Rp3723
(dp3724
g23
I01
sg24
Nsg26
g34
sg28
g35
sg30
I00
sbag1
(g19
g3
Ntp3725
Rp3726
(dp3727
g23
I01
sg24
Nsg26
g34
sg28
g35
sg30
I00
sbag1
(g19
g3
Ntp3728
Rp3729
(dp3730
g23
I01
sg24
Nsg26
g34
sg28
g35
sg30
I00
sbag1
(g19
g3
Ntp3731
Rp3732
(dp3733
g23
I01
sg24
Nsg26
g34
sg28
g35
sg30
I00
sbag1
(g19
g3
Ntp3734
Rp3735
(dp3736
g23
I01
sg24
Nsg26
g34
sg28
g35
sg30
I00
sbag1
(g19
g3
Ntp3737
Rp3738
(dp3739
g23
I01
sg24
Nsg26
g34
sg28
g35
sg30
I00
sbag1
(g19
g3
Ntp3740
Rp3741
(dp3742
g23
I01
sg24
Nsg26
g34
sg28
g35
sg30
I00
sbag1
(g19
g3
Ntp3743
Rp3744
(dp3745
g23
I01
sg24
Nsg26
g34
sg28
g35
sg30
I00
sbag1
(g19
g3
Ntp3746
Rp3747
(dp3748
g23
I01
sg24
Nsg26
g34
sg28
g35
sg30
I00
sbag1
(g19
g3
Ntp3749
Rp3750
(dp3751
g23
I01
sg24
Nsg26
g34
sg28
g35
sg30
I00
sbag1
(g19
g3
Ntp3752
Rp3753
(dp3754
g23
I00
sg24
Nsg26
g66
sg28
g67
sg30
I00
sbaa(lp3755
g1
(g19
g3
Ntp3756
Rp3757
(dp3758
g23
I00
sg24
g25
sg26
g27
sg28
g29
sg30
I01
sbag1
(g19
g3
Ntp3759
Rp3760
(dp3761
g23
I01
sg24
Nsg26
g34
sg28
g35
sg30
I00
sbag1
(g19
g3
Ntp3762
Rp3763
(dp3764
g23
I01
sg24
Nsg26
g34
sg28
g35
sg30
I00
sbag1
(g19
g3
Ntp3765
Rp3766
(dp3767
g23
I00
sg24
g25
sg26
g27
sg28
g29
sg30
I01
sbag1
(g19
g3
Ntp3768
Rp3769
(dp3770
g23
I01
sg24
Nsg26
g34
sg28
g35
sg30
I00
sbag1
(g19
g3
Ntp3771
Rp3772
(dp3773
g23
I01
sg24
Nsg26
g34
sg28
g35
sg30
I00
sbag1
(g19
g3
Ntp3774
Rp3775
(dp3776
g23
I01
sg24
Nsg26
g34
sg28
g35
sg30
I00
sbag1
(g19
g3
Ntp3777
Rp3778
(dp3779
g23
I00
sg24
g25
sg26
g27
sg28
g29
sg30
I01
sbag1
(g19
g3
Ntp3780
Rp3781
(dp3782
g23
I01
sg24
Nsg26
g34
sg28
g35
sg30
I00
sbag1
(g19
g3
Ntp3783
Rp3784
(dp3785
g23
I01
sg24
Nsg26
g34
sg28
g35
sg30
I00
sbag1
(g19
g3
Ntp3786
Rp3787
(dp3788
g23
I01
sg24
Nsg26
g34
sg28
g35
sg30
I00
sbag1
(g19
g3
Ntp3789
Rp3790
(dp3791
g23
I00
sg24
Nsg26
g66
sg28
g67
sg30
I00
sbaa(lp3792
g1
(g19
g3
Ntp3793
Rp3794
(dp3795
g23
I01
sg24
Nsg26
g34
sg28
g35
sg30
I00
sbag1
(g19
g3
Ntp3796
Rp3797
(dp3798
g23
I01
sg24
Nsg26
g34
sg28
g35
sg30
I00
sbag1
(g19
g3
Ntp3799
Rp3800
(dp3801
g23
I01
sg24
Nsg26
g34
sg28
g35
sg30
I00
sbag1
(g19
g3
Ntp3802
Rp3803
(dp3804
g23
I01
sg24
Nsg26
g34
sg28
g35
sg30
I00
sbag1
(g19
g3
Ntp3805
Rp3806
(dp3807
g23
I01
sg24
Nsg26
g34
sg28
g35
sg30
I00
sbag1
(g19
g3
Ntp3808
Rp3809
(dp3810
g23
I00
sg24
g25
sg26
g27
sg28
g29
sg30
I01
sbag1
(g19
g3
Ntp3811
Rp3812
(dp3813
g23
I01
sg24
Nsg26
g34
sg28
g35
sg30
I00
sbag1
(g19
g3
Ntp3814
Rp3815
(dp3816
g23
I01
sg24
Nsg26
g34
sg28
g35
sg30
I00
sbag1
(g19
g3
Ntp3817
Rp3818
(dp3819
g23
I01
sg24
Nsg26
g34
sg28
g35
sg30
I00
sbag1
(g19
g3
Ntp3820
Rp3821
(dp3822
g23
I01
sg24
Nsg26
g34
sg28
g35
sg30
I00
sbag1
(g19
g3
Ntp3823
Rp3824
(dp3825
g23
I01
sg24
Nsg26
g34
sg28
g35
sg30
I00
sbag1
(g19
g3
Ntp3826
Rp3827
(dp3828
g23
I00
sg24
Nsg26
g66
sg28
g67
sg30
I00
sbaa(lp3829
g1
(g19
g3
Ntp3830
Rp3831
(dp3832
g23
I01
sg24
Nsg26
g34
sg28
g35
sg30
I00
sbag1
(g19
g3
Ntp3833
Rp3834
(dp3835
g23
I00
sg24
g25
sg26
g27
sg28
g29
sg30
I01
sbag1
(g19
g3
Ntp3836
Rp3837
(dp3838
g23
I01
sg24
Nsg26
g34
sg28
g35
sg30
I00
sbag1
(g19
g3
Ntp3839
Rp3840
(dp3841
g23
I01
sg24
Nsg26
g34
sg28
g35
sg30
I00
sbag1
(g19
g3
Ntp3842
Rp3843
(dp3844
g23
I01
sg24
Nsg26
g34
sg28
g35
sg30
I00
sbag1
(g19
g3
Ntp3845
Rp3846
(dp3847
g23
I01
sg24
Nsg26
g34
sg28
g35
sg30
I00
sbag1
(g19
g3
Ntp3848
Rp3849
(dp3850
g23
I01
sg24
Nsg26
g34
sg28
g35
sg30
I00
sbag1
(g19
g3
Ntp3851
Rp3852
(dp3853
g23
I00
sg24
g25
sg26
g27
sg28
g29
sg30
I01
sbag1
(g19
g3
Ntp3854
Rp3855
(dp3856
g23
I01
sg24
Nsg26
g34
sg28
g35
sg30
I00
sbag1
(g19
g3
Ntp3857
Rp3858
(dp3859
g23
I01
sg24
Nsg26
g34
sg28
g35
sg30
I00
sbag1
(g19
g3
Ntp3860
Rp3861
(dp3862
g23
I00
sg24
g25
sg26
g27
sg28
g29
sg30
I01
sbag1
(g19
g3
Ntp3863
Rp3864
(dp3865
g23
I00
sg24
Nsg26
g66
sg28
g67
sg30
I00
sbaa(lp3866
g1
(g19
g3
Ntp3867
Rp3868
(dp3869
g23
I01
sg24
Nsg26
g34
sg28
g35
sg30
I00
sbag1
(g19
g3
Ntp3870
Rp3871
(dp3872
g23
I01
sg24
Nsg26
g34
sg28
g35
sg30
I00
sbag1
(g19
g3
Ntp3873
Rp3874
(dp3875
g23
I01
sg24
Nsg26
g34
sg28
g35
sg30
I00
sbag1
(g19
g3
Ntp3876
Rp3877
(dp3878
g23
I01
sg24
Nsg26
g34
sg28
g35
sg30
I00
sbag1
(g19
g3
Ntp3879
Rp3880
(dp3881
g23
I00
sg24
g25
sg26
g27
sg28
g29
sg30
I01
sbag1
(g19
g3
Ntp3882
Rp3883
(dp3884
g23
I01
sg24
Nsg26
g34
sg28
g35
sg30
I00
sbag1
(g19
g3
Ntp3885
Rp3886
(dp3887
g23
I01
sg24
Nsg26
g34
sg28
g35
sg30
I00
sbag1
(g19
g3
Ntp3888
Rp3889
(dp3890
g23
I01
sg24
Nsg26
g34
sg28
g35
sg30
I00
sbag1
(g19
g3
Ntp3891
Rp3892
(dp3893
g23
I01
sg24
Nsg26
g34
sg28
g35
sg30
I00
sbag1
(g19
g3
Ntp3894
Rp3895
(dp3896
g23
I01
sg24
Nsg26
g34
sg28
g35
sg30
I00
sbag1
(g19
g3
Ntp3897
Rp3898
(dp3899
g23
I01
sg24
Nsg26
g34
sg28
g35
sg30
I00
sbag1
(g19
g3
Ntp3900
Rp3901
(dp3902
g23
I00
sg24
Nsg26
g66
sg28
g67
sg30
I00
sbaa(lp3903
g1
(g19
g3
Ntp3904
Rp3905
(dp3906
g23
I00
sg24
g25
sg26
g27
sg28
g29
sg30
I01
sbag1
(g19
g3
Ntp3907
Rp3908
(dp3909
g23
I01
sg24
Nsg26
g34
sg28
g35
sg30
I00
sbag1
(g19
g3
Ntp3910
Rp3911
(dp3912
g23
I01
sg24
Nsg26
g34
sg28
g35
sg30
I00
sbag1
(g19
g3
Ntp3913
Rp3914
(dp3915
g23
I01
sg24
Nsg26
g34
sg28
g35
sg30
I00
sbag1
(g19
g3
Ntp3916
Rp3917
(dp3918
g23
I01
sg24
Nsg26
g34
sg28
g35
sg30
I00
sbag1
(g19
g3
Ntp3919
Rp3920
(dp3921
g23
I01
sg24
Nsg26
g34
sg28
g35
sg30
I00
sbag1
(g19
g3
Ntp3922
Rp3923
(dp3924
g23
I00
sg24
g25
sg26
g27
sg28
g29
sg30
I01
sbag1
(g19
g3
Ntp3925
Rp3926
(dp3927
g23
I01
sg24
Nsg26
g34
sg28
g35
sg30
I00
sbag1
(g19
g3
Ntp3928
Rp3929
(dp3930
g23
I00
sg24
g25
sg26
g27
sg28
g29
sg30
I01
sbag1
(g19
g3
Ntp3931
Rp3932
(dp3933
g23
I01
sg24
Nsg26
g34
sg28
g35
sg30
I00
sbag1
(g19
g3
Ntp3934
Rp3935
(dp3936
g23
I01
sg24
Nsg26
g34
sg28
g35
sg30
I00
sbag1
(g19
g3
Ntp3937
Rp3938
(dp3939
g23
I00
sg24
Nsg26
g66
sg28
g67
sg30
I00
sbaa(lp3940
g1
(g19
g3
Ntp3941
Rp3942
(dp3943
g23
I01
sg24
Nsg26
g34
sg28
g35
sg30
I00
sbag1
(g19
g3
Ntp3944
Rp3945
(dp3946
g23
I01
sg24
Nsg26
g34
sg28
g35
sg30
I00
sbag1
(g19
g3
Ntp3947
Rp3948
(dp3949
g23
I01
sg24
Nsg26
g34
sg28
g35
sg30
I00
sbag1
(g19
g3
Ntp3950
Rp3951
(dp3952
g23
I00
sg24
g25
sg26
g27
sg28
g29
sg30
I01
sbag1
(g19
g3
Ntp3953
Rp3954
(dp3955
g23
I01
sg24
Nsg26
g34
sg28
g35
sg30
I00
sbag1
(g19
g3
Ntp3956
Rp3957
(dp3958
g23
I01
sg24
Nsg26
g34
sg28
g35
sg30
I00
sbag1
(g19
g3
Ntp3959
Rp3960
(dp3961
g23
I01
sg24
Nsg26
g34
sg28
g35
sg30
I00
sbag1
(g19
g3
Ntp3962
Rp3963
(dp3964
g23
I01
sg24
Nsg26
g34
sg28
g35
sg30
I00
sbag1
(g19
g3
Ntp3965
Rp3966
(dp3967
g23
I01
sg24
Nsg26
g34
sg28
g35
sg30
I00
sbag1
(g19
g3
Ntp3968
Rp3969
(dp3970
g23
I01
sg24
Nsg26
g34
sg28
g35
sg30
I00
sbag1
(g19
g3
Ntp3971
Rp3972
(dp3973
g23
I00
sg24
g25
sg26
g27
sg28
g29
sg30
I01
sbag1
(g19
g3
Ntp3974
Rp3975
(dp3976
g23
I00
sg24
Nsg26
g66
sg28
g67
sg30
I00
sbaa(lp3977
g1
(g19
g3
Ntp3978
Rp3979
(dp3980
g23
I01
sg24
Nsg26
g34
sg28
g35
sg30
I00
sbag1
(g19
g3
Ntp3981
Rp3982
(dp3983
g23
I00
sg24
g25
sg26
g27
sg28
g29
sg30
I01
sbag1
(g19
g3
Ntp3984
Rp3985
(dp3986
g23
I01
sg24
Nsg26
g34
sg28
g35
sg30
I00
sbag1
(g19
g3
Ntp3987
Rp3988
(dp3989
g23
I01
sg24
Nsg26
g34
sg28
g35
sg30
I00
sbag1
(g19
g3
Ntp3990
Rp3991
(dp3992
g23
I01
sg24
Nsg26
g34
sg28
g35
sg30
I00
sbag1
(g19
g3
Ntp3993
Rp3994
(dp3995
g23
I00
sg24
g25
sg26
g27
sg28
g29
sg30
I01
sbag1
(g19
g3
Ntp3996
Rp3997
(dp3998
g23
I01
sg24
Nsg26
g34
sg28
g35
sg30
I00
sbag1
(g19
g3
Ntp3999
Rp4000
(dp4001
g23
I01
sg24
Nsg26
g34
sg28
g35
sg30
I00
sbag1
(g19
g3
Ntp4002
Rp4003
(dp4004
g23
I00
sg24
g25
sg26
g27
sg28
g29
sg30
I01
sbag1
(g19
g3
Ntp4005
Rp4006
(dp4007
g23
I01
sg24
Nsg26
g34
sg28
g35
sg30
I00
sbag1
(g19
g3
Ntp4008
Rp4009
(dp4010
g23
I01
sg24
Nsg26
g34
sg28
g35
sg30
I00
sbag1
(g19
g3
Ntp4011
Rp4012
(dp4013
g23
I00
sg24
Nsg26
g66
sg28
g67
sg30
I00
sbaa(lp4014
g1
(g19
g3
Ntp4015
Rp4016
(dp4017
g23
I01
sg24
Nsg26
g34
sg28
g35
sg30
I00
sbag1
(g19
g3
Ntp4018
Rp4019
(dp4020
g23
I01
sg24
Nsg26
g34
sg28
g35
sg30
I00
sbag1
(g19
g3
Ntp4021
Rp4022
(dp4023
g23
I01
sg24
Nsg26
g34
sg28
g35
sg30
I00
sbag1
(g19
g3
Ntp4024
Rp4025
(dp4026
g23
I01
sg24
Nsg26
g34
sg28
g35
sg30
I00
sbag1
(g19
g3
Ntp4027
Rp4028
(dp4029
g23
I01
sg24
Nsg26
g34
sg28
g35
sg30
I00
sbag1
(g19
g3
Ntp4030
Rp4031
(dp4032
g23
I01
sg24
Nsg26
g34
sg28
g35
sg30
I00
sbag1
(g19
g3
Ntp4033
Rp4034
(dp4035
g23
I01
sg24
Nsg26
g34
sg28
g35
sg30
I00
sbag1
(g19
g3
Ntp4036
Rp4037
(dp4038
g23
I01
sg24
Nsg26
g34
sg28
g35
sg30
I00
sbag1
(g19
g3
Ntp4039
Rp4040
(dp4041
g23
I01
sg24
Nsg26
g34
sg28
g35
sg30
I00
sbag1
(g19
g3
Ntp4042
Rp4043
(dp4044
g23
I01
sg24
Nsg26
g34
sg28
g35
sg30
I00
sbag1
(g19
g3
Ntp4045
Rp4046
(dp4047
g23
I01
sg24
Nsg26
g34
sg28
g35
sg30
I00
sbag1
(g19
g3
Ntp4048
Rp4049
(dp4050
g23
I00
sg24
Nsg26
g66
sg28
g67
sg30
I00
sbaa(lp4051
g1
(g19
g3
Ntp4052
Rp4053
(dp4054
g23
I00
sg24
Nsg26
g66
sg28
g67
sg30
I00
sbag1
(g19
g3
Ntp4055
Rp4056
(dp4057
g23
I00
sg24
Nsg26
g66
sg28
g67
sg30
I00
sbag1
(g19
g3
Ntp4058
Rp4059
(dp4060
g23
I00
sg24
Nsg26
g66
sg28
g67
sg30
I00
sbag1
(g19
g3
Ntp4061
Rp4062
(dp4063
g23
I00
sg24
Nsg26
g66
sg28
g67
sg30
I00
sbag1
(g19
g3
Ntp4064
Rp4065
(dp4066
g23
I00
sg24
Nsg26
g66
sg28
g67
sg30
I00
sbag1
(g19
g3
Ntp4067
Rp4068
(dp4069
g23
I00
sg24
Nsg26
g66
sg28
g67
sg30
I00
sbag1
(g19
g3
Ntp4070
Rp4071
(dp4072
g23
I00
sg24
Nsg26
g66
sg28
g67
sg30
I00
sbag1
(g19
g3
Ntp4073
Rp4074
(dp4075
g23
I00
sg24
Nsg26
g66
sg28
g67
sg30
I00
sbag1
(g19
g3
Ntp4076
Rp4077
(dp4078
g23
I00
sg24
Nsg26
g66
sg28
g67
sg30
I00
sbag1
(g19
g3
Ntp4079
Rp4080
(dp4081
g23
I00
sg24
Nsg26
g66
sg28
g67
sg30
I00
sbag1
(g19
g3
Ntp4082
Rp4083
(dp4084
g23
I00
sg24
Nsg26
g66
sg28
g67
sg30
I00
sbag1
(g19
g3
Ntp4085
Rp4086
(dp4087
g23
I00
sg24
Nsg26
g66
sg28
g67
sg30
I00
sbaasg475
(I1
I1
tp4088
sbssS'chunk_height'
p4089
I12
sS'chunk_list'
p4090
(lp4091
(I-1
I-1
tp4092
a(I-1
I0
tp4093
a(I-1
I1
tp4094
a(I0
I-1
tp4095
a(I0
I0
tp4096
a(I0
I1
tp4097
a(I1
I-1
tp4098
a(I1
I0
tp4099
a(I1
I1
tp4100
asS'chunk_width'
p4101
I12
sba(lp4102
(lp4103
(I0
I0
tp4104
aI5
aI8
aaI1
a(dp4105
g25
I17
saI5
aa.